; Listing generated by Microsoft (R) Optimizing Compiler Version 17.00.50727.1 

	TITLE	E:\work_wm\HXIJY_code\endoscopemfc2012_menu_changepara_youhua_savepic_USB_1114_twothread_svepic_save5\src\EndoScopeMFC\CSetPSW.cpp
	.686P
	.XMM
	include listing.inc
	.model	flat

INCLUDELIB OLDNAMES

PUBLIC	??_R2CSetPSW@@8					; CSetPSW::`RTTI Base Class Array'
PUBLIC	??_R2CDialogEx@@8				; CDialogEx::`RTTI Base Class Array'
PUBLIC	??_R1A@?0A@EA@CSetPSW@@8			; CSetPSW::`RTTI Base Class Descriptor at (0,-1,0,64)'
PUBLIC	??_R0?AVCDialog@@@8				; CDialog `RTTI Type Descriptor'
PUBLIC	??_R0?AVCWnd@@@8				; CWnd `RTTI Type Descriptor'
PUBLIC	??_R2CWnd@@8					; CWnd::`RTTI Base Class Array'
PUBLIC	??_R3CWnd@@8					; CWnd::`RTTI Class Hierarchy Descriptor'
PUBLIC	??_R1A@?0A@EA@CWnd@@8				; CWnd::`RTTI Base Class Descriptor at (0,-1,0,64)'
PUBLIC	??_R0?AVCCmdTarget@@@8				; CCmdTarget `RTTI Type Descriptor'
PUBLIC	??_R2CCmdTarget@@8				; CCmdTarget::`RTTI Base Class Array'
PUBLIC	??_R3CCmdTarget@@8				; CCmdTarget::`RTTI Class Hierarchy Descriptor'
PUBLIC	??_R1A@?0A@EA@CCmdTarget@@8			; CCmdTarget::`RTTI Base Class Descriptor at (0,-1,0,64)'
PUBLIC	??_R2CDialog@@8					; CDialog::`RTTI Base Class Array'
PUBLIC	??_R3CDialog@@8					; CDialog::`RTTI Class Hierarchy Descriptor'
PUBLIC	??_R1A@?0A@EA@CDialog@@8			; CDialog::`RTTI Base Class Descriptor at (0,-1,0,64)'
PUBLIC	??_R1A@?0A@EA@CDialogEx@@8			; CDialogEx::`RTTI Base Class Descriptor at (0,-1,0,64)'
PUBLIC	??_R3CDialogEx@@8				; CDialogEx::`RTTI Class Hierarchy Descriptor'
PUBLIC	??_R0?AVCDialogEx@@@8				; CDialogEx `RTTI Type Descriptor'
PUBLIC	??_R3CSetPSW@@8					; CSetPSW::`RTTI Class Hierarchy Descriptor'
PUBLIC	??_R0?AVCSetPSW@@@8				; CSetPSW `RTTI Type Descriptor'
PUBLIC	??_R4CSetPSW@@6B@				; CSetPSW::`RTTI Complete Object Locator'
PUBLIC	??_R0?AVCBrush@@@8				; CBrush `RTTI Type Descriptor'
PUBLIC	??_R1A@?0A@EA@CBrush@@8				; CBrush::`RTTI Base Class Descriptor at (0,-1,0,64)'
PUBLIC	??_R2CBrush@@8					; CBrush::`RTTI Base Class Array'
PUBLIC	??_R3CBrush@@8					; CBrush::`RTTI Class Hierarchy Descriptor'
PUBLIC	??_R4CBrush@@6B@				; CBrush::`RTTI Complete Object Locator'
PUBLIC	??_7CBrush@@6B@					; CBrush::`vftable'
PUBLIC	??_R0?AVCGdiObject@@@8				; CGdiObject `RTTI Type Descriptor'
PUBLIC	??_R1A@?0A@EA@CGdiObject@@8			; CGdiObject::`RTTI Base Class Descriptor at (0,-1,0,64)'
PUBLIC	??_R0?AVCObject@@@8				; CObject `RTTI Type Descriptor'
PUBLIC	??_R2CObject@@8					; CObject::`RTTI Base Class Array'
PUBLIC	??_R3CObject@@8					; CObject::`RTTI Class Hierarchy Descriptor'
PUBLIC	??_R1A@?0A@EA@CObject@@8			; CObject::`RTTI Base Class Descriptor at (0,-1,0,64)'
PUBLIC	??_R2CGdiObject@@8				; CGdiObject::`RTTI Base Class Array'
PUBLIC	??_R3CGdiObject@@8				; CGdiObject::`RTTI Class Hierarchy Descriptor'
PUBLIC	??_R4CGdiObject@@6B@				; CGdiObject::`RTTI Complete Object Locator'
PUBLIC	??_7CGdiObject@@6B@				; CGdiObject::`vftable'
PUBLIC	??_R0PAVCException@@@8				; CException * `RTTI Type Descriptor'
PUBLIC	??_C@_0O@KHJMBFME@?$CFs?5?$CI?$CFs?3?$CFd?$CJ?6?$CFs?$AA@ ; `string'
PUBLIC	??_C@_0EM@OFMLPHMI@D?3?2Program?5Files?2Microsoft?5Visua@ ; `string'
PUBLIC	??_C@_0BP@OIEOKIDM@Exception?5thrown?5in?5destructor?$AA@ ; `string'
PUBLIC	??_C@_0L@LBHJMCDF@?$CFs?5?$CI?$CFs?3?$CFd?$CJ?$AA@ ; `string'
PUBLIC	??_7CSetPSW@@6B@				; CSetPSW::`vftable'
PUBLIC	?classCSetPSW@CSetPSW@@2UCRuntimeClass@@B	; CSetPSW::classCSetPSW
EXTRN	__imp_?ReverseFind@?$CStringT@DV?$StrTraitMFC_DLL@DV?$ChTraitsCRT@D@ATL@@@@@ATL@@QBEHD@Z:PROC
EXTRN	__imp_?Left@?$CStringT@DV?$StrTraitMFC_DLL@DV?$ChTraitsCRT@D@ATL@@@@@ATL@@QBE?AV12@H@Z:PROC
EXTRN	__imp_?PreInitDialog@CDialog@@MAEXXZ:PROC
EXTRN	__imp_?OnCancel@CDialog@@MAEXXZ:PROC
EXTRN	__imp_?OnSetFont@CDialog@@UAEXPAVCFont@@@Z:PROC
EXTRN	__imp_?OnInitDialog@CDialog@@UAEHXZ:PROC
EXTRN	__imp_?DoModal@CDialog@@UAEHXZ:PROC
EXTRN	__imp_?CreateIndirect@CDialog@@UAEHPBUDLGTEMPLATE@@PAVCWnd@@PAX@Z:PROC
EXTRN	__imp_?CreateIndirect@CDialog@@UAEHPAXPAVCWnd@@@Z:PROC
EXTRN	__imp_?Create@CDialog@@UAEHPBDPAVCWnd@@@Z:PROC
EXTRN	__imp_?GetOccDialogInfo@CDialog@@MAEPAU_AFX_OCC_DIALOG_INFO@@XZ:PROC
EXTRN	__imp_?SetOccDialogInfo@CDialog@@MAEHPAU_AFX_OCC_DIALOG_INFO@@@Z:PROC
EXTRN	__imp_?CreateControlSite@CWnd@@MAEHPAVCOleControlContainer@@PAPAVCOleControlSite@@IABU_GUID@@@Z:PROC
EXTRN	__imp_?CreateControlContainer@CWnd@@MAEHPAPAVCOleControlContainer@@@Z:PROC
EXTRN	__imp_?IsFrameWnd@CWnd@@UBEHXZ:PROC
EXTRN	__imp_?CheckAutoCenter@CDialog@@UAEHXZ:PROC
EXTRN	__imp_?OnGesturePressAndTap@CWnd@@MAEHVCPoint@@J@Z:PROC
EXTRN	__imp_?OnGestureTwoFingerTap@CWnd@@MAEHVCPoint@@@Z:PROC
EXTRN	__imp_?OnGestureRotate@CWnd@@MAEHVCPoint@@N@Z:PROC
EXTRN	__imp_?OnGesturePan@CWnd@@MAEHVCPoint@@0@Z:PROC
EXTRN	__imp_?OnGestureZoom@CWnd@@MAEHVCPoint@@J@Z:PROC
EXTRN	__imp_?GetGestureStatus@CWnd@@MAEKVCPoint@@@Z:PROC
EXTRN	__imp_?OnTouchInput@CWnd@@MAEHVCPoint@@HHPAUtagTOUCHINPUT@@@Z:PROC
EXTRN	__imp_?OnTouchInputs@CWnd@@MAEHIPAUtagTOUCHINPUT@@@Z:PROC
EXTRN	__imp_?OnChildNotify@CWnd@@MAEHIIJPAJ@Z:PROC
EXTRN	__imp_?PostNcDestroy@CWnd@@MAEXXZ:PROC
EXTRN	__imp_?DefWindowProcA@CWnd@@MAEJIIJ@Z:PROC
EXTRN	__imp_?OnWndMsg@CWnd@@MAEHIIJPAJ@Z:PROC
EXTRN	__imp_?WindowProc@CWnd@@MAEJIIJ@Z:PROC
EXTRN	__imp_?OnAmbientProperty@CWnd@@UAEHPAVCOleControlSite@@JPAUtagVARIANT@@@Z:PROC
EXTRN	__imp_?PreTranslateMessage@CDialogEx@@UAEHPAUtagMSG@@@Z:PROC
EXTRN	__imp__EnableWindow@8:PROC
EXTRN	__imp_?GetSuperWndProcAddr@CWnd@@MAEPAP6GJPAUHWND__@@IIJ@ZXZ:PROC
EXTRN	__imp_?OnNotify@CWnd@@MAEHIJPAJ@Z:PROC
EXTRN	__imp_?OnCommand@CDialogEx@@MAEHIJ@Z:PROC
EXTRN	__imp_?CreateAccessibleProxy@CWnd@@UAEJIJPAJ@Z:PROC
EXTRN	__imp_?SetProxy@CWnd@@UAEJPAUIAccessibleProxy@@@Z:PROC
EXTRN	__imp_?put_accValue@CWnd@@UAEJUtagVARIANT@@PA_W@Z:PROC
EXTRN	__imp_?put_accName@CWnd@@UAEJUtagVARIANT@@PA_W@Z:PROC
EXTRN	__imp_?accDoDefaultAction@CWnd@@UAEJUtagVARIANT@@@Z:PROC
EXTRN	__imp_?accHitTest@CWnd@@UAEJJJPAUtagVARIANT@@@Z:PROC
EXTRN	__imp_?accNavigate@CWnd@@UAEJJUtagVARIANT@@PAU2@@Z:PROC
EXTRN	__imp_?accLocation@CWnd@@UAEJPAJ000UtagVARIANT@@@Z:PROC
EXTRN	__imp_?accSelect@CWnd@@UAEJJUtagVARIANT@@@Z:PROC
EXTRN	__imp_?get_accDefaultAction@CWnd@@UAEJUtagVARIANT@@PAPA_W@Z:PROC
EXTRN	__imp_?get_accSelection@CWnd@@UAEJPAUtagVARIANT@@@Z:PROC
EXTRN	__imp_?get_accFocus@CWnd@@UAEJPAUtagVARIANT@@@Z:PROC
EXTRN	__imp_?get_accKeyboardShortcut@CWnd@@UAEJUtagVARIANT@@PAPA_W@Z:PROC
EXTRN	__imp_?get_accHelpTopic@CWnd@@UAEJPAPA_WUtagVARIANT@@PAJ@Z:PROC
EXTRN	__imp_?get_accHelp@CWnd@@UAEJUtagVARIANT@@PAPA_W@Z:PROC
EXTRN	__imp_?get_accState@CWnd@@UAEJUtagVARIANT@@PAU2@@Z:PROC
EXTRN	__imp_?get_accRole@CWnd@@UAEJUtagVARIANT@@PAU2@@Z:PROC
EXTRN	__imp_?get_accDescription@CWnd@@UAEJUtagVARIANT@@PAPA_W@Z:PROC
EXTRN	__imp_?get_accValue@CWnd@@UAEJUtagVARIANT@@PAPA_W@Z:PROC
EXTRN	__imp_?get_accName@CWnd@@UAEJUtagVARIANT@@PAPA_W@Z:PROC
EXTRN	__imp_?get_accChild@CWnd@@UAEJUtagVARIANT@@PAPAUIDispatch@@@Z:PROC
EXTRN	__imp_?get_accChildCount@CWnd@@UAEJPAJ@Z:PROC
EXTRN	__imp_?get_accParent@CWnd@@UAEJPAPAUIDispatch@@@Z:PROC
EXTRN	__imp_?EnsureStdObj@CWnd@@UAEJXZ:PROC
EXTRN	__imp_?OnDrawIconicThumbnailOrLivePreview@CWnd@@UAEXAAVCDC@@VCRect@@VCSize@@HAAH@Z:PROC
EXTRN	__imp_?EndModalLoop@CWnd@@UAEXH@Z:PROC
EXTRN	__imp_?ContinueModal@CWnd@@UAEHXZ:PROC
EXTRN	__imp_?WinHelpInternal@CWnd@@UAEXKI@Z:PROC
EXTRN	__imp_?HtmlHelpA@CWnd@@UAEXKI@Z:PROC
EXTRN	__imp_?WinHelpA@CWnd@@UAEXKI@Z:PROC
EXTRN	__imp_?GetScrollBarCtrl@CWnd@@UBEPAVCScrollBar@@H@Z:PROC
EXTRN	__imp_?OnToolHitTest@CWnd@@UBEHVCPoint@@PAUtagTOOLINFOA@@@Z:PROC
EXTRN	__imp_?SetMenu@CWnd@@UAEHPAVCMenu@@@Z:PROC
EXTRN	__imp_?GetMenu@CWnd@@UBEPAVCMenu@@XZ:PROC
EXTRN	__imp_?CalcWindowRect@CWnd@@UAEXPAUtagRECT@@I@Z:PROC
EXTRN	__imp_?PreCreateWindow@CWnd@@UAEHAAUtagCREATESTRUCTA@@@Z:PROC
EXTRN	__imp_?DestroyWindow@CWnd@@UAEHXZ:PROC
EXTRN	__imp_?CreateEx@CWnd@@UAEHKPBD0KHHHHPAUHWND__@@PAUHMENU__@@PAX@Z:PROC
EXTRN	__imp_?CreateEx@CWnd@@UAEHKPBD0KABUtagRECT@@PAV1@IPAX@Z:PROC
EXTRN	__imp_?Create@CWnd@@UAEHPBD0KABUtagRECT@@PAV1@IPAUCCreateContext@@@Z:PROC
EXTRN	__imp_?PreSubclassWindow@CWnd@@UAEXXZ:PROC
EXTRN	__imp_?GetConnectionHook@CCmdTarget@@MAEPAUIConnectionPoint@@ABU_GUID@@@Z:PROC
EXTRN	__imp_?GetExtraConnectionPoints@CCmdTarget@@MAEHPAVCPtrArray@@@Z:PROC
EXTRN	__imp_?GetInterfaceHook@CCmdTarget@@UAEPAUIUnknown@@PBX@Z:PROC
EXTRN	__imp_?OnCreateAggregates@CCmdTarget@@UAEHXZ:PROC
EXTRN	__imp_?GetEventSinkMap@CCmdTarget@@MBEPBUAFX_EVENTSINKMAP@@XZ:PROC
EXTRN	__imp_?GetInterfaceMap@CWnd@@MBEPBUAFX_INTERFACEMAP@@XZ:PROC
EXTRN	__imp_?GetConnectionMap@CCmdTarget@@MBEPBUAFX_CONNECTIONMAP@@XZ:PROC
EXTRN	__imp_?GetDispatchMap@CCmdTarget@@MBEPBUAFX_DISPMAP@@XZ:PROC
EXTRN	__imp_?GetCommandMap@CCmdTarget@@MBEPBUAFX_OLECMDMAP@@XZ:PROC
EXTRN	__imp_?GetTypeLib@CCmdTarget@@UAEJKPAPAUITypeLib@@@Z:PROC
EXTRN	__imp_?GetTypeLibCache@CCmdTarget@@UAEPAVCTypeLibCache@@XZ:PROC
EXTRN	__imp_?GetTypeInfoCount@CCmdTarget@@UAEIXZ:PROC
EXTRN	__imp_?GetDispatchIID@CCmdTarget@@UAEHPAU_GUID@@@Z:PROC
EXTRN	__imp_?IsInvokeAllowed@CCmdTarget@@UAEHJ@Z:PROC
EXTRN	__imp_?OnFinalRelease@CWnd@@UAEXXZ:PROC
EXTRN	__imp_?OnCmdMsg@CDialog@@UAEHIHPAXPAUAFX_CMDHANDLERINFO@@@Z:PROC
EXTRN	__imp__isdigit:PROC
EXTRN	__imp__isalpha:PROC
EXTRN	__imp_?OnOK@CDialog@@MAEXXZ:PROC
EXTRN	__imp__WritePrivateProfileStringA@16:PROC
EXTRN	__imp_?Compare@?$CStringT@DV?$StrTraitMFC_DLL@DV?$ChTraitsCRT@D@ATL@@@@@ATL@@QBEHPBD@Z:PROC
EXTRN	__imp__MessageBoxA@16:PROC
EXTRN	__imp_?GetDlgItemTextA@CWnd@@QBEHHAAV?$CStringT@DV?$StrTraitMFC_DLL@DV?$ChTraitsCRT@D@ATL@@@@@ATL@@@Z:PROC
EXTRN	__imp_??0?$CStringT@DV?$StrTraitMFC_DLL@DV?$ChTraitsCRT@D@ATL@@@@@ATL@@QAE@PBD@Z:PROC
EXTRN	__imp__GetPrivateProfileStringA@24:PROC
EXTRN	__imp_??0?$CStringT@DV?$StrTraitMFC_DLL@DV?$ChTraitsCRT@D@ATL@@@@@ATL@@QAE@PAUIAtlStringMgr@1@@Z:PROC
EXTRN	__imp_?GetManager@?$CStringT@DV?$StrTraitMFC_DLL@DV?$ChTraitsCRT@D@ATL@@@@@ATL@@QBEPAUIAtlStringMgr@2@XZ:PROC
EXTRN	__imp_?Concatenate@?$CSimpleStringT@D$00@ATL@@KAXAAV12@PBDH1H@Z:PROC
EXTRN	__imp_?StringLength@?$CSimpleStringT@D$00@ATL@@SAHPBD@Z:PROC
EXTRN	__imp_??0?$CStringT@DV?$StrTraitMFC_DLL@DV?$ChTraitsCRT@D@ATL@@@@@ATL@@QAE@ABV01@@Z:PROC
EXTRN	__imp_?GetLength@?$CSimpleStringT@D$00@ATL@@QBEHXZ:PROC
EXTRN	__imp_??4?$CStringT@DV?$StrTraitMFC_DLL@DV?$ChTraitsCRT@D@ATL@@@@@ATL@@QAEAAV01@ABV01@@Z:PROC
EXTRN	__imp_?ReleaseBuffer@?$CSimpleStringT@D$00@ATL@@QAEXH@Z:PROC
EXTRN	__imp_?GetBuffer@?$CSimpleStringT@D$00@ATL@@QAEPADH@Z:PROC
EXTRN	__imp_?GetBufferSetLength@?$CSimpleStringT@D$00@ATL@@QAEPADH@Z:PROC
EXTRN	__imp__GetModuleFileNameA@12:PROC
EXTRN	__imp_?GetThisMessageMap@CDialogEx@@KGPBUAFX_MSGMAP@@XZ:PROC
EXTRN	__imp_??1CDialogImpl@@MAE@XZ:PROC
EXTRN	__imp_?GetRuntimeClass@CBrush@@UBEPAUCRuntimeClass@@XZ:PROC
EXTRN	__imp_?GetRuntimeClass@CGdiObject@@UBEPAUCRuntimeClass@@XZ:PROC
EXTRN	__imp_?DeleteObject@CGdiObject@@QAEHXZ:PROC
EXTRN	__imp_??0?$CStringT@DV?$StrTraitMFC_DLL@DV?$ChTraitsCRT@D@ATL@@@@@ATL@@QAE@XZ:PROC
EXTRN	__imp_??1?$CStringT@DV?$StrTraitMFC_DLL@DV?$ChTraitsCRT@D@ATL@@@@@ATL@@QAE@XZ:PROC
EXTRN	__imp_?Format@?$CStringT@DV?$StrTraitMFC_DLL@DV?$ChTraitsCRT@D@ATL@@@@@ATL@@QAAXPBDZZ:PROC
EXTRN	__imp_?AfxMessageBox@@YGHPBDII@Z:PROC
EXTRN	__imp_??B?$CSimpleStringT@D$00@ATL@@QBEPBDXZ:PROC
EXTRN	__imp_??1CDialog@@UAE@XZ:PROC
EXTRN	__imp_??0CDialogEx@@QAE@IPAVCWnd@@@Z:PROC
EXTRN	__imp_?GetThisClass@CDialogEx@@SGPAUCRuntimeClass@@XZ:PROC
EXTRN	?OnWndMsg@CWnd@@MAEHIIJPAJ@Z:PROC		; CWnd::OnWndMsg
EXTRN	?WindowProc@CWnd@@MAEJIIJ@Z:PROC		; CWnd::WindowProc
EXTRN	?OnAmbientProperty@CWnd@@UAEHPAVCOleControlSite@@JPAUtagVARIANT@@@Z:PROC ; CWnd::OnAmbientProperty
EXTRN	?PreTranslateMessage@CDialogEx@@UAEHPAUtagMSG@@@Z:PROC ; CDialogEx::PreTranslateMessage
EXTRN	?GetSuperWndProcAddr@CWnd@@MAEPAP6GJPAUHWND__@@IIJ@ZXZ:PROC ; CWnd::GetSuperWndProcAddr
EXTRN	?OnNotify@CWnd@@MAEHIJPAJ@Z:PROC		; CWnd::OnNotify
EXTRN	?OnCommand@CDialogEx@@MAEHIJ@Z:PROC		; CDialogEx::OnCommand
EXTRN	?CreateAccessibleProxy@CWnd@@UAEJIJPAJ@Z:PROC	; CWnd::CreateAccessibleProxy
EXTRN	?SetProxy@CWnd@@UAEJPAUIAccessibleProxy@@@Z:PROC ; CWnd::SetProxy
EXTRN	?put_accValue@CWnd@@UAEJUtagVARIANT@@PA_W@Z:PROC ; CWnd::put_accValue
EXTRN	?put_accName@CWnd@@UAEJUtagVARIANT@@PA_W@Z:PROC	; CWnd::put_accName
EXTRN	?accDoDefaultAction@CWnd@@UAEJUtagVARIANT@@@Z:PROC ; CWnd::accDoDefaultAction
EXTRN	?accHitTest@CWnd@@UAEJJJPAUtagVARIANT@@@Z:PROC	; CWnd::accHitTest
EXTRN	?accNavigate@CWnd@@UAEJJUtagVARIANT@@PAU2@@Z:PROC ; CWnd::accNavigate
EXTRN	?accLocation@CWnd@@UAEJPAJ000UtagVARIANT@@@Z:PROC ; CWnd::accLocation
EXTRN	?GetThisMessageMap@CDialogEx@@KGPBUAFX_MSGMAP@@XZ:PROC ; CDialogEx::GetThisMessageMap
EXTRN	?accSelect@CWnd@@UAEJJUtagVARIANT@@@Z:PROC	; CWnd::accSelect
EXTRN	?get_accDefaultAction@CWnd@@UAEJUtagVARIANT@@PAPA_W@Z:PROC ; CWnd::get_accDefaultAction
EXTRN	?get_accSelection@CWnd@@UAEJPAUtagVARIANT@@@Z:PROC ; CWnd::get_accSelection
EXTRN	?get_accFocus@CWnd@@UAEJPAUtagVARIANT@@@Z:PROC	; CWnd::get_accFocus
EXTRN	?get_accKeyboardShortcut@CWnd@@UAEJUtagVARIANT@@PAPA_W@Z:PROC ; CWnd::get_accKeyboardShortcut
EXTRN	?get_accHelpTopic@CWnd@@UAEJPAPA_WUtagVARIANT@@PAJ@Z:PROC ; CWnd::get_accHelpTopic
EXTRN	?get_accHelp@CWnd@@UAEJUtagVARIANT@@PAPA_W@Z:PROC ; CWnd::get_accHelp
EXTRN	?get_accState@CWnd@@UAEJUtagVARIANT@@PAU2@@Z:PROC ; CWnd::get_accState
EXTRN	?GetRuntimeClass@CBrush@@UBEPAUCRuntimeClass@@XZ:PROC ; CBrush::GetRuntimeClass
EXTRN	?get_accRole@CWnd@@UAEJUtagVARIANT@@PAU2@@Z:PROC ; CWnd::get_accRole
EXTRN	?get_accDescription@CWnd@@UAEJUtagVARIANT@@PAPA_W@Z:PROC ; CWnd::get_accDescription
EXTRN	?get_accValue@CWnd@@UAEJUtagVARIANT@@PAPA_W@Z:PROC ; CWnd::get_accValue
EXTRN	?get_accName@CWnd@@UAEJUtagVARIANT@@PAPA_W@Z:PROC ; CWnd::get_accName
EXTRN	?get_accChild@CWnd@@UAEJUtagVARIANT@@PAPAUIDispatch@@@Z:PROC ; CWnd::get_accChild
EXTRN	?get_accChildCount@CWnd@@UAEJPAJ@Z:PROC		; CWnd::get_accChildCount
EXTRN	?get_accParent@CWnd@@UAEJPAPAUIDispatch@@@Z:PROC ; CWnd::get_accParent
EXTRN	?EnsureStdObj@CWnd@@UAEJXZ:PROC			; CWnd::EnsureStdObj
EXTRN	?OnDrawIconicThumbnailOrLivePreview@CWnd@@UAEXAAVCDC@@VCRect@@VCSize@@HAAH@Z:PROC ; CWnd::OnDrawIconicThumbnailOrLivePreview
EXTRN	?EndModalLoop@CWnd@@UAEXH@Z:PROC		; CWnd::EndModalLoop
EXTRN	?ContinueModal@CWnd@@UAEHXZ:PROC		; CWnd::ContinueModal
EXTRN	?WinHelpInternal@CWnd@@UAEXKI@Z:PROC		; CWnd::WinHelpInternal
EXTRN	?HtmlHelpA@CWnd@@UAEXKI@Z:PROC			; CWnd::HtmlHelpA
EXTRN	?GetRuntimeClass@CGdiObject@@UBEPAUCRuntimeClass@@XZ:PROC ; CGdiObject::GetRuntimeClass
EXTRN	?WinHelpA@CWnd@@UAEXKI@Z:PROC			; CWnd::WinHelpA
EXTRN	?GetScrollBarCtrl@CWnd@@UBEPAVCScrollBar@@H@Z:PROC ; CWnd::GetScrollBarCtrl
EXTRN	?OnToolHitTest@CWnd@@UBEHVCPoint@@PAUtagTOOLINFOA@@@Z:PROC ; CWnd::OnToolHitTest
EXTRN	?SetMenu@CWnd@@UAEHPAVCMenu@@@Z:PROC		; CWnd::SetMenu
EXTRN	?GetMenu@CWnd@@UBEPAVCMenu@@XZ:PROC		; CWnd::GetMenu
EXTRN	?CalcWindowRect@CWnd@@UAEXPAUtagRECT@@I@Z:PROC	; CWnd::CalcWindowRect
EXTRN	?PreCreateWindow@CWnd@@UAEHAAUtagCREATESTRUCTA@@@Z:PROC ; CWnd::PreCreateWindow
EXTRN	?DestroyWindow@CWnd@@UAEHXZ:PROC		; CWnd::DestroyWindow
EXTRN	?CreateEx@CWnd@@UAEHKPBD0KHHHHPAUHWND__@@PAUHMENU__@@PAX@Z:PROC ; CWnd::CreateEx
EXTRN	?CreateEx@CWnd@@UAEHKPBD0KABUtagRECT@@PAV1@IPAX@Z:PROC ; CWnd::CreateEx
EXTRN	?PreInitDialog@CDialog@@MAEXXZ:PROC		; CDialog::PreInitDialog
EXTRN	?Create@CWnd@@UAEHPBD0KABUtagRECT@@PAV1@IPAUCCreateContext@@@Z:PROC ; CWnd::Create
EXTRN	?OnCancel@CDialog@@MAEXXZ:PROC			; CDialog::OnCancel
EXTRN	?PreSubclassWindow@CWnd@@UAEXXZ:PROC		; CWnd::PreSubclassWindow
EXTRN	?OnSetFont@CDialog@@UAEXPAVCFont@@@Z:PROC	; CDialog::OnSetFont
EXTRN	?GetConnectionHook@CCmdTarget@@MAEPAUIConnectionPoint@@ABU_GUID@@@Z:PROC ; CCmdTarget::GetConnectionHook
EXTRN	?OnInitDialog@CDialog@@UAEHXZ:PROC		; CDialog::OnInitDialog
EXTRN	?GetExtraConnectionPoints@CCmdTarget@@MAEHPAVCPtrArray@@@Z:PROC ; CCmdTarget::GetExtraConnectionPoints
EXTRN	?DoModal@CDialog@@UAEHXZ:PROC			; CDialog::DoModal
EXTRN	?GetInterfaceHook@CCmdTarget@@UAEPAUIUnknown@@PBX@Z:PROC ; CCmdTarget::GetInterfaceHook
EXTRN	?CreateIndirect@CDialog@@UAEHPBUDLGTEMPLATE@@PAVCWnd@@PAX@Z:PROC ; CDialog::CreateIndirect
EXTRN	?OnCreateAggregates@CCmdTarget@@UAEHXZ:PROC	; CCmdTarget::OnCreateAggregates
EXTRN	?CreateIndirect@CDialog@@UAEHPAXPAVCWnd@@@Z:PROC ; CDialog::CreateIndirect
EXTRN	?GetEventSinkMap@CCmdTarget@@MBEPBUAFX_EVENTSINKMAP@@XZ:PROC ; CCmdTarget::GetEventSinkMap
EXTRN	?Create@CDialog@@UAEHPBDPAVCWnd@@@Z:PROC	; CDialog::Create
EXTRN	?GetInterfaceMap@CWnd@@MBEPBUAFX_INTERFACEMAP@@XZ:PROC ; CWnd::GetInterfaceMap
EXTRN	?GetConnectionMap@CCmdTarget@@MBEPBUAFX_CONNECTIONMAP@@XZ:PROC ; CCmdTarget::GetConnectionMap
EXTRN	?GetOccDialogInfo@CDialog@@MAEPAU_AFX_OCC_DIALOG_INFO@@XZ:PROC ; CDialog::GetOccDialogInfo
EXTRN	?GetDispatchMap@CCmdTarget@@MBEPBUAFX_DISPMAP@@XZ:PROC ; CCmdTarget::GetDispatchMap
EXTRN	?SetOccDialogInfo@CDialog@@MAEHPAU_AFX_OCC_DIALOG_INFO@@@Z:PROC ; CDialog::SetOccDialogInfo
EXTRN	?GetCommandMap@CCmdTarget@@MBEPBUAFX_OLECMDMAP@@XZ:PROC ; CCmdTarget::GetCommandMap
EXTRN	?CreateControlSite@CWnd@@MAEHPAVCOleControlContainer@@PAPAVCOleControlSite@@IABU_GUID@@@Z:PROC ; CWnd::CreateControlSite
EXTRN	?GetTypeLib@CCmdTarget@@UAEJKPAPAUITypeLib@@@Z:PROC ; CCmdTarget::GetTypeLib
EXTRN	?CreateControlContainer@CWnd@@MAEHPAPAVCOleControlContainer@@@Z:PROC ; CWnd::CreateControlContainer
EXTRN	?GetTypeLibCache@CCmdTarget@@UAEPAVCTypeLibCache@@XZ:PROC ; CCmdTarget::GetTypeLibCache
EXTRN	?IsFrameWnd@CWnd@@UBEHXZ:PROC			; CWnd::IsFrameWnd
EXTRN	?GetTypeInfoCount@CCmdTarget@@UAEIXZ:PROC	; CCmdTarget::GetTypeInfoCount
EXTRN	?CheckAutoCenter@CDialog@@UAEHXZ:PROC		; CDialog::CheckAutoCenter
EXTRN	?GetDispatchIID@CCmdTarget@@UAEHPAU_GUID@@@Z:PROC ; CCmdTarget::GetDispatchIID
EXTRN	?OnGesturePressAndTap@CWnd@@MAEHVCPoint@@J@Z:PROC ; CWnd::OnGesturePressAndTap
EXTRN	?IsInvokeAllowed@CCmdTarget@@UAEHJ@Z:PROC	; CCmdTarget::IsInvokeAllowed
EXTRN	?OnGestureTwoFingerTap@CWnd@@MAEHVCPoint@@@Z:PROC ; CWnd::OnGestureTwoFingerTap
EXTRN	?OnFinalRelease@CWnd@@UAEXXZ:PROC		; CWnd::OnFinalRelease
EXTRN	?OnGestureRotate@CWnd@@MAEHVCPoint@@N@Z:PROC	; CWnd::OnGestureRotate
EXTRN	?OnCmdMsg@CDialog@@UAEHIHPAXPAUAFX_CMDHANDLERINFO@@@Z:PROC ; CDialog::OnCmdMsg
EXTRN	?OnGesturePan@CWnd@@MAEHVCPoint@@0@Z:PROC	; CWnd::OnGesturePan
EXTRN	?OnGestureZoom@CWnd@@MAEHVCPoint@@J@Z:PROC	; CWnd::OnGestureZoom
EXTRN	?GetGestureStatus@CWnd@@MAEKVCPoint@@@Z:PROC	; CWnd::GetGestureStatus
EXTRN	?OnTouchInput@CWnd@@MAEHVCPoint@@HHPAUtagTOUCHINPUT@@@Z:PROC ; CWnd::OnTouchInput
EXTRN	?OnTouchInputs@CWnd@@MAEHIPAUtagTOUCHINPUT@@@Z:PROC ; CWnd::OnTouchInputs
EXTRN	?OnChildNotify@CWnd@@MAEHIIJPAJ@Z:PROC		; CWnd::OnChildNotify
EXTRN	?OnOK@CDialog@@MAEXXZ:PROC			; CDialog::OnOK
EXTRN	?PostNcDestroy@CWnd@@MAEXXZ:PROC		; CWnd::PostNcDestroy
EXTRN	?DefWindowProcA@CWnd@@MAEJIIJ@Z:PROC		; CWnd::DefWindowProcA
;	COMDAT ?classCSetPSW@CSetPSW@@2UCRuntimeClass@@B
CONST	SEGMENT
?classCSetPSW@CSetPSW@@2UCRuntimeClass@@B DD FLAT:$SG4294964374 ; CSetPSW::classCSetPSW
	DD	0b8H
	DD	0ffffH
	DD	00H
	DD	FLAT:?_GetBaseClass@CSetPSW@@KGPAUCRuntimeClass@@XZ
	DD	00H
	DD	00H
CONST	ENDS
;	COMDAT ??_7CSetPSW@@6B@
CONST	SEGMENT
??_7CSetPSW@@6B@ DD FLAT:??_R4CSetPSW@@6B@		; CSetPSW::`vftable'
	DD	FLAT:?GetRuntimeClass@CSetPSW@@UBEPAUCRuntimeClass@@XZ
	DD	FLAT:??_ECSetPSW@@UAEPAXI@Z
	DD	FLAT:?Serialize@CObject@@UAEXAAVCArchive@@@Z
	DD	FLAT:?AssertValid@CObject@@UBEXXZ
	DD	FLAT:?Dump@CObject@@UBEXAAVCDumpContext@@@Z
	DD	FLAT:?OnCmdMsg@CDialog@@UAEHIHPAXPAUAFX_CMDHANDLERINFO@@@Z
	DD	FLAT:?OnFinalRelease@CWnd@@UAEXXZ
	DD	FLAT:?IsInvokeAllowed@CCmdTarget@@UAEHJ@Z
	DD	FLAT:?GetDispatchIID@CCmdTarget@@UAEHPAU_GUID@@@Z
	DD	FLAT:?GetTypeInfoCount@CCmdTarget@@UAEIXZ
	DD	FLAT:?GetTypeLibCache@CCmdTarget@@UAEPAVCTypeLibCache@@XZ
	DD	FLAT:?GetTypeLib@CCmdTarget@@UAEJKPAPAUITypeLib@@@Z
	DD	FLAT:?GetMessageMap@CSetPSW@@MBEPBUAFX_MSGMAP@@XZ
	DD	FLAT:?GetCommandMap@CCmdTarget@@MBEPBUAFX_OLECMDMAP@@XZ
	DD	FLAT:?GetDispatchMap@CCmdTarget@@MBEPBUAFX_DISPMAP@@XZ
	DD	FLAT:?GetConnectionMap@CCmdTarget@@MBEPBUAFX_CONNECTIONMAP@@XZ
	DD	FLAT:?GetInterfaceMap@CWnd@@MBEPBUAFX_INTERFACEMAP@@XZ
	DD	FLAT:?GetEventSinkMap@CCmdTarget@@MBEPBUAFX_EVENTSINKMAP@@XZ
	DD	FLAT:?OnCreateAggregates@CCmdTarget@@UAEHXZ
	DD	FLAT:?GetInterfaceHook@CCmdTarget@@UAEPAUIUnknown@@PBX@Z
	DD	FLAT:?GetExtraConnectionPoints@CCmdTarget@@MAEHPAVCPtrArray@@@Z
	DD	FLAT:?GetConnectionHook@CCmdTarget@@MAEPAUIConnectionPoint@@ABU_GUID@@@Z
	DD	FLAT:?PreSubclassWindow@CWnd@@UAEXXZ
	DD	FLAT:?Create@CWnd@@UAEHPBD0KABUtagRECT@@PAV1@IPAUCCreateContext@@@Z
	DD	FLAT:?CreateEx@CWnd@@UAEHKPBD0KABUtagRECT@@PAV1@IPAX@Z
	DD	FLAT:?CreateEx@CWnd@@UAEHKPBD0KHHHHPAUHWND__@@PAUHMENU__@@PAX@Z
	DD	FLAT:?DestroyWindow@CWnd@@UAEHXZ
	DD	FLAT:?PreCreateWindow@CWnd@@UAEHAAUtagCREATESTRUCTA@@@Z
	DD	FLAT:?CalcWindowRect@CWnd@@UAEXPAUtagRECT@@I@Z
	DD	FLAT:?GetMenu@CWnd@@UBEPAVCMenu@@XZ
	DD	FLAT:?SetMenu@CWnd@@UAEHPAVCMenu@@@Z
	DD	FLAT:?OnToolHitTest@CWnd@@UBEHVCPoint@@PAUtagTOOLINFOA@@@Z
	DD	FLAT:?GetScrollBarCtrl@CWnd@@UBEPAVCScrollBar@@H@Z
	DD	FLAT:?WinHelpA@CWnd@@UAEXKI@Z
	DD	FLAT:?HtmlHelpA@CWnd@@UAEXKI@Z
	DD	FLAT:?WinHelpInternal@CWnd@@UAEXKI@Z
	DD	FLAT:?ContinueModal@CWnd@@UAEHXZ
	DD	FLAT:?EndModalLoop@CWnd@@UAEXH@Z
	DD	FLAT:?OnDrawIconicThumbnailOrLivePreview@CWnd@@UAEXAAVCDC@@VCRect@@VCSize@@HAAH@Z
	DD	FLAT:?EnsureStdObj@CWnd@@UAEJXZ
	DD	FLAT:?get_accParent@CWnd@@UAEJPAPAUIDispatch@@@Z
	DD	FLAT:?get_accChildCount@CWnd@@UAEJPAJ@Z
	DD	FLAT:?get_accChild@CWnd@@UAEJUtagVARIANT@@PAPAUIDispatch@@@Z
	DD	FLAT:?get_accName@CWnd@@UAEJUtagVARIANT@@PAPA_W@Z
	DD	FLAT:?get_accValue@CWnd@@UAEJUtagVARIANT@@PAPA_W@Z
	DD	FLAT:?get_accDescription@CWnd@@UAEJUtagVARIANT@@PAPA_W@Z
	DD	FLAT:?get_accRole@CWnd@@UAEJUtagVARIANT@@PAU2@@Z
	DD	FLAT:?get_accState@CWnd@@UAEJUtagVARIANT@@PAU2@@Z
	DD	FLAT:?get_accHelp@CWnd@@UAEJUtagVARIANT@@PAPA_W@Z
	DD	FLAT:?get_accHelpTopic@CWnd@@UAEJPAPA_WUtagVARIANT@@PAJ@Z
	DD	FLAT:?get_accKeyboardShortcut@CWnd@@UAEJUtagVARIANT@@PAPA_W@Z
	DD	FLAT:?get_accFocus@CWnd@@UAEJPAUtagVARIANT@@@Z
	DD	FLAT:?get_accSelection@CWnd@@UAEJPAUtagVARIANT@@@Z
	DD	FLAT:?get_accDefaultAction@CWnd@@UAEJUtagVARIANT@@PAPA_W@Z
	DD	FLAT:?accSelect@CWnd@@UAEJJUtagVARIANT@@@Z
	DD	FLAT:?accLocation@CWnd@@UAEJPAJ000UtagVARIANT@@@Z
	DD	FLAT:?accNavigate@CWnd@@UAEJJUtagVARIANT@@PAU2@@Z
	DD	FLAT:?accHitTest@CWnd@@UAEJJJPAUtagVARIANT@@@Z
	DD	FLAT:?accDoDefaultAction@CWnd@@UAEJUtagVARIANT@@@Z
	DD	FLAT:?put_accName@CWnd@@UAEJUtagVARIANT@@PA_W@Z
	DD	FLAT:?put_accValue@CWnd@@UAEJUtagVARIANT@@PA_W@Z
	DD	FLAT:?SetProxy@CWnd@@UAEJPAUIAccessibleProxy@@@Z
	DD	FLAT:?CreateAccessibleProxy@CWnd@@UAEJIJPAJ@Z
	DD	FLAT:?OnCommand@CDialogEx@@MAEHIJ@Z
	DD	FLAT:?OnNotify@CWnd@@MAEHIJPAJ@Z
	DD	FLAT:?GetSuperWndProcAddr@CWnd@@MAEPAP6GJPAUHWND__@@IIJ@ZXZ
	DD	FLAT:?DoDataExchange@CSetPSW@@MAEXPAVCDataExchange@@@Z
	DD	FLAT:?BeginModalState@CWnd@@UAEXXZ
	DD	FLAT:?EndModalState@CWnd@@UAEXXZ
	DD	FLAT:?PreTranslateMessage@CDialogEx@@UAEHPAUtagMSG@@@Z
	DD	FLAT:?OnAmbientProperty@CWnd@@UAEHPAVCOleControlSite@@JPAUtagVARIANT@@@Z
	DD	FLAT:?WindowProc@CWnd@@MAEJIIJ@Z
	DD	FLAT:?OnWndMsg@CWnd@@MAEHIIJPAJ@Z
	DD	FLAT:?DefWindowProcA@CWnd@@MAEJIIJ@Z
	DD	FLAT:?PostNcDestroy@CWnd@@MAEXXZ
	DD	FLAT:?OnChildNotify@CWnd@@MAEHIIJPAJ@Z
	DD	FLAT:?OnTouchInputs@CWnd@@MAEHIPAUtagTOUCHINPUT@@@Z
	DD	FLAT:?OnTouchInput@CWnd@@MAEHVCPoint@@HHPAUtagTOUCHINPUT@@@Z
	DD	FLAT:?GetGestureStatus@CWnd@@MAEKVCPoint@@@Z
	DD	FLAT:?OnGestureZoom@CWnd@@MAEHVCPoint@@J@Z
	DD	FLAT:?OnGesturePan@CWnd@@MAEHVCPoint@@0@Z
	DD	FLAT:?OnGestureRotate@CWnd@@MAEHVCPoint@@N@Z
	DD	FLAT:?OnGestureTwoFingerTap@CWnd@@MAEHVCPoint@@@Z
	DD	FLAT:?OnGesturePressAndTap@CWnd@@MAEHVCPoint@@J@Z
	DD	FLAT:?CheckAutoCenter@CDialog@@UAEHXZ
	DD	FLAT:?IsFrameWnd@CWnd@@UBEHXZ
	DD	FLAT:?CreateControlContainer@CWnd@@MAEHPAPAVCOleControlContainer@@@Z
	DD	FLAT:?CreateControlSite@CWnd@@MAEHPAVCOleControlContainer@@PAPAVCOleControlSite@@IABU_GUID@@@Z
	DD	FLAT:?SetOccDialogInfo@CDialog@@MAEHPAU_AFX_OCC_DIALOG_INFO@@@Z
	DD	FLAT:?GetOccDialogInfo@CDialog@@MAEPAU_AFX_OCC_DIALOG_INFO@@XZ
	DD	FLAT:?Create@CDialog@@UAEHIPAVCWnd@@@Z
	DD	FLAT:?Create@CDialog@@UAEHPBDPAVCWnd@@@Z
	DD	FLAT:?CreateIndirect@CDialog@@UAEHPAXPAVCWnd@@@Z
	DD	FLAT:?CreateIndirect@CDialog@@UAEHPBUDLGTEMPLATE@@PAVCWnd@@PAX@Z
	DD	FLAT:?DoModal@CDialog@@UAEHXZ
	DD	FLAT:?OnInitDialog@CDialog@@UAEHXZ
	DD	FLAT:?OnSetFont@CDialog@@UAEXPAVCFont@@@Z
	DD	FLAT:?OnOK@CDialog@@MAEXXZ
	DD	FLAT:?OnCancel@CDialog@@MAEXXZ
	DD	FLAT:?PreInitDialog@CDialog@@MAEXXZ
CONST	ENDS
;	COMDAT ??_C@_0L@LBHJMCDF@?$CFs?5?$CI?$CFs?3?$CFd?$CJ?$AA@
CONST	SEGMENT
??_C@_0L@LBHJMCDF@?$CFs?5?$CI?$CFs?3?$CFd?$CJ?$AA@ DB '%s (%s:%d)', 00H ; `string'
CONST	ENDS
;	COMDAT ??_C@_0BP@OIEOKIDM@Exception?5thrown?5in?5destructor?$AA@
CONST	SEGMENT
??_C@_0BP@OIEOKIDM@Exception?5thrown?5in?5destructor?$AA@ DB 'Exception t'
	DB	'hrown in destructor', 00H			; `string'
CONST	ENDS
;	COMDAT ??_C@_0EM@OFMLPHMI@D?3?2Program?5Files?2Microsoft?5Visua@
CONST	SEGMENT
??_C@_0EM@OFMLPHMI@D?3?2Program?5Files?2Microsoft?5Visua@ DB 'D:\Program '
	DB	'Files\Microsoft Visual Studio 11.0\VC\atlmfc\include\afxwin1.'
	DB	'inl', 00H					; `string'
CONST	ENDS
;	COMDAT ??_C@_0O@KHJMBFME@?$CFs?5?$CI?$CFs?3?$CFd?$CJ?6?$CFs?$AA@
CONST	SEGMENT
??_C@_0O@KHJMBFME@?$CFs?5?$CI?$CFs?3?$CFd?$CJ?6?$CFs?$AA@ DB '%s (%s:%d)', 0aH
	DB	'%s', 00H					; `string'
CONST	ENDS
;	COMDAT ??_R0PAVCException@@@8
_DATA	SEGMENT
??_R0PAVCException@@@8 DD FLAT:??_7type_info@@6B@	; CException * `RTTI Type Descriptor'
	DD	00H
	DB	'.PAVCException@@', 00H
_DATA	ENDS
;	COMDAT ??_7CGdiObject@@6B@
CONST	SEGMENT
??_7CGdiObject@@6B@ DD FLAT:??_R4CGdiObject@@6B@	; CGdiObject::`vftable'
	DD	FLAT:?GetRuntimeClass@CGdiObject@@UBEPAUCRuntimeClass@@XZ
	DD	FLAT:??_ECGdiObject@@UAEPAXI@Z
	DD	FLAT:?Serialize@CObject@@UAEXAAVCArchive@@@Z
	DD	FLAT:?AssertValid@CObject@@UBEXXZ
	DD	FLAT:?Dump@CObject@@UBEXAAVCDumpContext@@@Z
CONST	ENDS
;	COMDAT ??_R4CGdiObject@@6B@
rdata$r	SEGMENT
??_R4CGdiObject@@6B@ DD 00H				; CGdiObject::`RTTI Complete Object Locator'
	DD	00H
	DD	00H
	DD	FLAT:??_R0?AVCGdiObject@@@8
	DD	FLAT:??_R3CGdiObject@@8
rdata$r	ENDS
;	COMDAT ??_R3CGdiObject@@8
rdata$r	SEGMENT
??_R3CGdiObject@@8 DD 00H				; CGdiObject::`RTTI Class Hierarchy Descriptor'
	DD	00H
	DD	02H
	DD	FLAT:??_R2CGdiObject@@8
rdata$r	ENDS
;	COMDAT ??_R2CGdiObject@@8
rdata$r	SEGMENT
??_R2CGdiObject@@8 DD FLAT:??_R1A@?0A@EA@CGdiObject@@8	; CGdiObject::`RTTI Base Class Array'
	DD	FLAT:??_R1A@?0A@EA@CObject@@8
rdata$r	ENDS
;	COMDAT ??_R1A@?0A@EA@CObject@@8
rdata$r	SEGMENT
??_R1A@?0A@EA@CObject@@8 DD FLAT:??_R0?AVCObject@@@8	; CObject::`RTTI Base Class Descriptor at (0,-1,0,64)'
	DD	00H
	DD	00H
	DD	0ffffffffH
	DD	00H
	DD	040H
	DD	FLAT:??_R3CObject@@8
rdata$r	ENDS
;	COMDAT ??_R3CObject@@8
rdata$r	SEGMENT
??_R3CObject@@8 DD 00H					; CObject::`RTTI Class Hierarchy Descriptor'
	DD	00H
	DD	01H
	DD	FLAT:??_R2CObject@@8
rdata$r	ENDS
;	COMDAT ??_R2CObject@@8
rdata$r	SEGMENT
??_R2CObject@@8 DD FLAT:??_R1A@?0A@EA@CObject@@8	; CObject::`RTTI Base Class Array'
rdata$r	ENDS
;	COMDAT ??_R0?AVCObject@@@8
_DATA	SEGMENT
??_R0?AVCObject@@@8 DD FLAT:??_7type_info@@6B@		; CObject `RTTI Type Descriptor'
	DD	00H
	DB	'.?AVCObject@@', 00H
_DATA	ENDS
;	COMDAT ??_R1A@?0A@EA@CGdiObject@@8
rdata$r	SEGMENT
??_R1A@?0A@EA@CGdiObject@@8 DD FLAT:??_R0?AVCGdiObject@@@8 ; CGdiObject::`RTTI Base Class Descriptor at (0,-1,0,64)'
	DD	01H
	DD	00H
	DD	0ffffffffH
	DD	00H
	DD	040H
	DD	FLAT:??_R3CGdiObject@@8
rdata$r	ENDS
;	COMDAT ??_R0?AVCGdiObject@@@8
_DATA	SEGMENT
??_R0?AVCGdiObject@@@8 DD FLAT:??_7type_info@@6B@	; CGdiObject `RTTI Type Descriptor'
	DD	00H
	DB	'.?AVCGdiObject@@', 00H
_DATA	ENDS
;	COMDAT ??_7CBrush@@6B@
CONST	SEGMENT
??_7CBrush@@6B@ DD FLAT:??_R4CBrush@@6B@		; CBrush::`vftable'
	DD	FLAT:?GetRuntimeClass@CBrush@@UBEPAUCRuntimeClass@@XZ
	DD	FLAT:??_ECBrush@@UAEPAXI@Z
	DD	FLAT:?Serialize@CObject@@UAEXAAVCArchive@@@Z
	DD	FLAT:?AssertValid@CObject@@UBEXXZ
	DD	FLAT:?Dump@CObject@@UBEXAAVCDumpContext@@@Z
CONST	ENDS
;	COMDAT ??_R4CBrush@@6B@
rdata$r	SEGMENT
??_R4CBrush@@6B@ DD 00H					; CBrush::`RTTI Complete Object Locator'
	DD	00H
	DD	00H
	DD	FLAT:??_R0?AVCBrush@@@8
	DD	FLAT:??_R3CBrush@@8
rdata$r	ENDS
;	COMDAT ??_R3CBrush@@8
rdata$r	SEGMENT
??_R3CBrush@@8 DD 00H					; CBrush::`RTTI Class Hierarchy Descriptor'
	DD	00H
	DD	03H
	DD	FLAT:??_R2CBrush@@8
rdata$r	ENDS
;	COMDAT ??_R2CBrush@@8
rdata$r	SEGMENT
??_R2CBrush@@8 DD FLAT:??_R1A@?0A@EA@CBrush@@8		; CBrush::`RTTI Base Class Array'
	DD	FLAT:??_R1A@?0A@EA@CGdiObject@@8
	DD	FLAT:??_R1A@?0A@EA@CObject@@8
rdata$r	ENDS
;	COMDAT ??_R1A@?0A@EA@CBrush@@8
rdata$r	SEGMENT
??_R1A@?0A@EA@CBrush@@8 DD FLAT:??_R0?AVCBrush@@@8	; CBrush::`RTTI Base Class Descriptor at (0,-1,0,64)'
	DD	02H
	DD	00H
	DD	0ffffffffH
	DD	00H
	DD	040H
	DD	FLAT:??_R3CBrush@@8
rdata$r	ENDS
;	COMDAT ??_R0?AVCBrush@@@8
_DATA	SEGMENT
??_R0?AVCBrush@@@8 DD FLAT:??_7type_info@@6B@		; CBrush `RTTI Type Descriptor'
	DD	00H
	DB	'.?AVCBrush@@', 00H
_DATA	ENDS
;	COMDAT ?_messageEntries@?1??GetThisMessageMap@CSetPSW@@KGPBUAFX_MSGMAP@@XZ@4QBUAFX_MSGMAP_ENTRY@@B
CONST	SEGMENT
?_messageEntries@?1??GetThisMessageMap@CSetPSW@@KGPBUAFX_MSGMAP@@XZ@4QBUAFX_MSGMAP_ENTRY@@B DD 0111H ; `CSetPSW::GetThisMessageMap'::`2'::_messageEntries
	DD	00H
	DD	01H
	DD	01H
	DD	03aH
	DD	FLAT:?OnBnClickedOk@CSetPSW@@QAEXXZ
	DD	00H
	DD	00H
	DD	00H
	DD	00H
	DD	00H
	DD	00H
CONST	ENDS
;	COMDAT ?messageMap@?1??GetThisMessageMap@CSetPSW@@KGPBUAFX_MSGMAP@@XZ@4U3@B
CONST	SEGMENT
?messageMap@?1??GetThisMessageMap@CSetPSW@@KGPBUAFX_MSGMAP@@XZ@4U3@B DD FLAT:?GetThisMessageMap@CDialogEx@@KGPBUAFX_MSGMAP@@XZ ; `CSetPSW::GetThisMessageMap'::`2'::messageMap
	DD	FLAT:?_messageEntries@?1??GetThisMessageMap@CSetPSW@@KGPBUAFX_MSGMAP@@XZ@4QBUAFX_MSGMAP_ENTRY@@B
CONST	ENDS
;	COMDAT ??_R4CSetPSW@@6B@
rdata$r	SEGMENT
??_R4CSetPSW@@6B@ DD 00H				; CSetPSW::`RTTI Complete Object Locator'
	DD	00H
	DD	00H
	DD	FLAT:??_R0?AVCSetPSW@@@8
	DD	FLAT:??_R3CSetPSW@@8
rdata$r	ENDS
;	COMDAT ??_R0?AVCSetPSW@@@8
_DATA	SEGMENT
??_R0?AVCSetPSW@@@8 DD FLAT:??_7type_info@@6B@		; CSetPSW `RTTI Type Descriptor'
	DD	00H
	DB	'.?AVCSetPSW@@', 00H
_DATA	ENDS
;	COMDAT ??_R3CSetPSW@@8
rdata$r	SEGMENT
??_R3CSetPSW@@8 DD 00H					; CSetPSW::`RTTI Class Hierarchy Descriptor'
	DD	00H
	DD	06H
	DD	FLAT:??_R2CSetPSW@@8
rdata$r	ENDS
;	COMDAT ??_R0?AVCDialogEx@@@8
_DATA	SEGMENT
??_R0?AVCDialogEx@@@8 DD FLAT:??_7type_info@@6B@	; CDialogEx `RTTI Type Descriptor'
	DD	00H
	DB	'.?AVCDialogEx@@', 00H
_DATA	ENDS
;	COMDAT ??_R3CDialogEx@@8
rdata$r	SEGMENT
??_R3CDialogEx@@8 DD 00H				; CDialogEx::`RTTI Class Hierarchy Descriptor'
	DD	00H
	DD	05H
	DD	FLAT:??_R2CDialogEx@@8
rdata$r	ENDS
;	COMDAT ??_R1A@?0A@EA@CDialogEx@@8
rdata$r	SEGMENT
??_R1A@?0A@EA@CDialogEx@@8 DD FLAT:??_R0?AVCDialogEx@@@8 ; CDialogEx::`RTTI Base Class Descriptor at (0,-1,0,64)'
	DD	04H
	DD	00H
	DD	0ffffffffH
	DD	00H
	DD	040H
	DD	FLAT:??_R3CDialogEx@@8
rdata$r	ENDS
;	COMDAT ??_R1A@?0A@EA@CDialog@@8
rdata$r	SEGMENT
??_R1A@?0A@EA@CDialog@@8 DD FLAT:??_R0?AVCDialog@@@8	; CDialog::`RTTI Base Class Descriptor at (0,-1,0,64)'
	DD	03H
	DD	00H
	DD	0ffffffffH
	DD	00H
	DD	040H
	DD	FLAT:??_R3CDialog@@8
rdata$r	ENDS
;	COMDAT ??_R3CDialog@@8
rdata$r	SEGMENT
??_R3CDialog@@8 DD 00H					; CDialog::`RTTI Class Hierarchy Descriptor'
	DD	00H
	DD	04H
	DD	FLAT:??_R2CDialog@@8
rdata$r	ENDS
;	COMDAT ??_R2CDialog@@8
rdata$r	SEGMENT
??_R2CDialog@@8 DD FLAT:??_R1A@?0A@EA@CDialog@@8	; CDialog::`RTTI Base Class Array'
	DD	FLAT:??_R1A@?0A@EA@CWnd@@8
	DD	FLAT:??_R1A@?0A@EA@CCmdTarget@@8
	DD	FLAT:??_R1A@?0A@EA@CObject@@8
rdata$r	ENDS
;	COMDAT ??_R1A@?0A@EA@CCmdTarget@@8
rdata$r	SEGMENT
??_R1A@?0A@EA@CCmdTarget@@8 DD FLAT:??_R0?AVCCmdTarget@@@8 ; CCmdTarget::`RTTI Base Class Descriptor at (0,-1,0,64)'
	DD	01H
	DD	00H
	DD	0ffffffffH
	DD	00H
	DD	040H
	DD	FLAT:??_R3CCmdTarget@@8
rdata$r	ENDS
;	COMDAT ??_R3CCmdTarget@@8
rdata$r	SEGMENT
??_R3CCmdTarget@@8 DD 00H				; CCmdTarget::`RTTI Class Hierarchy Descriptor'
	DD	00H
	DD	02H
	DD	FLAT:??_R2CCmdTarget@@8
rdata$r	ENDS
;	COMDAT ??_R2CCmdTarget@@8
rdata$r	SEGMENT
??_R2CCmdTarget@@8 DD FLAT:??_R1A@?0A@EA@CCmdTarget@@8	; CCmdTarget::`RTTI Base Class Array'
	DD	FLAT:??_R1A@?0A@EA@CObject@@8
rdata$r	ENDS
;	COMDAT ??_R0?AVCCmdTarget@@@8
_DATA	SEGMENT
??_R0?AVCCmdTarget@@@8 DD FLAT:??_7type_info@@6B@	; CCmdTarget `RTTI Type Descriptor'
	DD	00H
	DB	'.?AVCCmdTarget@@', 00H
_DATA	ENDS
;	COMDAT ??_R1A@?0A@EA@CWnd@@8
rdata$r	SEGMENT
??_R1A@?0A@EA@CWnd@@8 DD FLAT:??_R0?AVCWnd@@@8		; CWnd::`RTTI Base Class Descriptor at (0,-1,0,64)'
	DD	02H
	DD	00H
	DD	0ffffffffH
	DD	00H
	DD	040H
	DD	FLAT:??_R3CWnd@@8
rdata$r	ENDS
;	COMDAT ??_R3CWnd@@8
rdata$r	SEGMENT
??_R3CWnd@@8 DD	00H					; CWnd::`RTTI Class Hierarchy Descriptor'
	DD	00H
	DD	03H
	DD	FLAT:??_R2CWnd@@8
rdata$r	ENDS
;	COMDAT ??_R2CWnd@@8
rdata$r	SEGMENT
??_R2CWnd@@8 DD	FLAT:??_R1A@?0A@EA@CWnd@@8		; CWnd::`RTTI Base Class Array'
	DD	FLAT:??_R1A@?0A@EA@CCmdTarget@@8
	DD	FLAT:??_R1A@?0A@EA@CObject@@8
rdata$r	ENDS
;	COMDAT ??_R0?AVCWnd@@@8
_DATA	SEGMENT
??_R0?AVCWnd@@@8 DD FLAT:??_7type_info@@6B@		; CWnd `RTTI Type Descriptor'
	DD	00H
	DB	'.?AVCWnd@@', 00H
_DATA	ENDS
;	COMDAT ??_R0?AVCDialog@@@8
_DATA	SEGMENT
??_R0?AVCDialog@@@8 DD FLAT:??_7type_info@@6B@		; CDialog `RTTI Type Descriptor'
	DD	00H
	DB	'.?AVCDialog@@', 00H
_DATA	ENDS
;	COMDAT ??_R1A@?0A@EA@CSetPSW@@8
rdata$r	SEGMENT
??_R1A@?0A@EA@CSetPSW@@8 DD FLAT:??_R0?AVCSetPSW@@@8	; CSetPSW::`RTTI Base Class Descriptor at (0,-1,0,64)'
	DD	05H
	DD	00H
	DD	0ffffffffH
	DD	00H
	DD	040H
	DD	FLAT:??_R3CSetPSW@@8
rdata$r	ENDS
;	COMDAT ??_R2CDialogEx@@8
rdata$r	SEGMENT
??_R2CDialogEx@@8 DD FLAT:??_R1A@?0A@EA@CDialogEx@@8	; CDialogEx::`RTTI Base Class Array'
	DD	FLAT:??_R1A@?0A@EA@CDialog@@8
	DD	FLAT:??_R1A@?0A@EA@CWnd@@8
	DD	FLAT:??_R1A@?0A@EA@CCmdTarget@@8
	DD	FLAT:??_R1A@?0A@EA@CObject@@8
rdata$r	ENDS
;	COMDAT ??_R2CSetPSW@@8
rdata$r	SEGMENT
??_R2CSetPSW@@8 DD FLAT:??_R1A@?0A@EA@CSetPSW@@8	; CSetPSW::`RTTI Base Class Array'
	DD	FLAT:??_R1A@?0A@EA@CDialogEx@@8
	DD	FLAT:??_R1A@?0A@EA@CDialog@@8
	DD	FLAT:??_R1A@?0A@EA@CWnd@@8
	DD	FLAT:??_R1A@?0A@EA@CCmdTarget@@8
	DD	FLAT:??_R1A@?0A@EA@CObject@@8
$SG4294964372 DB 00H
$SG4294964369 DB 00H
$SG4294964364 DB 00H
$SG4294964374 DB 'CSetPSW', 00H
$SG4294964373 DB '\config.ini', 00H
$SG4294964371 DB 'PASSWORD', 00H
$SG4294964370 DB 'LOGIN', 00H
$SG4294964368 DB 0ceH, 0c2H, 0dcH, 0b0H, 0ccH, 0e1H, 0caH, 0beH, 00H
$SG4294964367 DB 0d4H, 0adH, 0c3H, 0dcH, 0c2H, 0ebH, 0b2H, 0bbH, 0b5H, 0c3H
	DB	0ceH, 0aaH, 0bfH, 0d5H, 0a3H, 0a1H, 00H
$SG4294964366 DB 0ceH, 0c2H, 0dcH, 0b0H, 0ccH, 0e1H, 0caH, 0beH, 00H
$SG4294964365 DB 0d4H, 0adH, 0c3H, 0dcH, 0c2H, 0ebH, 0caH, 0e4H, 0c8H, 0ebH
	DB	0b4H, 0edH, 0ceH, 0f3H, 0a3H, 0a1H, 00H
$SG4294964363 DB 0ceH, 0c2H, 0dcH, 0b0H, 0ccH, 0e1H, 0caH, 0beH, 00H
	ORG $+2
$SG4294964362 DB 0d0H, 0c2H, 0c3H, 0dcH, 0c2H, 0ebH, 0b2H, 0bbH, 0b5H, 0c3H
	DB	0ceH, 0aaH, 0bfH, 0d5H, 0a3H, 0a1H, 00H
	ORG $+3
$SG4294964361 DB 0ceH, 0c2H, 0dcH, 0b0H, 0ccH, 0e1H, 0caH, 0beH, 00H
	ORG $+3
$SG4294964360 DB 0d0H, 0c2H, 0c3H, 0dcH, 0c2H, 0ebH, 0b2H, 0bbH, 0c4H, 0dcH
	DB	0baH, 0cdH, 0d4H, 0adH, 0c3H, 0dcH, 0c2H, 0ebH, 0cfH, 0e0H, 0cdH
	DB	0acH, 0a3H, 0a1H, 00H
	ORG $+3
$SG4294964359 DB 0ceH, 0c2H, 0dcH, 0b0H, 0ccH, 0e1H, 0caH, 0beH, 00H
	ORG $+3
$SG4294964358 DB 0d0H, 0c2H, 0c3H, 0dcH, 0c2H, 0ebH, 0d6H, 0bbH, 0c4H, 0dcH
	DB	0b0H, 0fcH, 0baH, 0acH, 0d3H, 0a2H, 0ceH, 0c4H, 0d7H, 0d6H, 0c4H
	DB	0b8H, 0bbH, 0f2H, 0caH, 0fdH, 0d7H, 0d6H, 0a3H, 0a8H, 0b0H, 0ebH
	DB	0bdH, 0c7H, 0a3H, 0a9H, 0a3H, 0a1H, 00H
	ORG $+1
$SG4294964357 DB 'PASSWORD', 00H
	ORG $+3
$SG4294964356 DB 'LOGIN', 00H
	ORG $+2
$SG4294964355 DB 0ceH, 0c2H, 0dcH, 0b0H, 0ccH, 0e1H, 0caH, 0beH, 00H
	ORG $+3
$SG4294964354 DB 0c1H, 0bdH, 0b4H, 0ceH, 0d0H, 0c2H, 0c3H, 0dcH, 0c2H, 0ebH
	DB	0caH, 0e4H, 0c8H, 0ebH, 0b2H, 0bbH, 0d2H, 0bbH, 0d6H, 0c2H, 0a3H
	DB	0a1H, 00H
PUBLIC	??3CObject@@SGXPAX@Z				; CObject::operator delete
PUBLIC	??1CBrush@@UAE@XZ				; CBrush::~CBrush
PUBLIC	??1CGdiObject@@UAE@XZ				; CGdiObject::~CGdiObject
PUBLIC	??1CObject@@UAE@XZ				; CObject::~CObject
PUBLIC	?Dump@CObject@@UBEXAAVCDumpContext@@@Z		; CObject::Dump
PUBLIC	?AssertValid@CObject@@UBEXXZ			; CObject::AssertValid
PUBLIC	?Serialize@CObject@@UAEXAAVCArchive@@@Z		; CObject::Serialize
PUBLIC	??_GCGdiObject@@UAEPAXI@Z			; CGdiObject::`scalar deleting destructor'
PUBLIC	??_GCBrush@@UAEPAXI@Z				; CBrush::`scalar deleting destructor'
PUBLIC	?DoDataExchange@CWnd@@MAEXPAVCDataExchange@@@Z	; CWnd::DoDataExchange
PUBLIC	??HATL@@YA?AV?$CStringT@DV?$StrTraitMFC_DLL@DV?$ChTraitsCRT@D@ATL@@@@@0@ABV10@PBD@Z ; ATL::operator+
PUBLIC	??8ATL@@YA_NABV?$CStringT@DV?$StrTraitMFC_DLL@DV?$ChTraitsCRT@D@ATL@@@@@0@0@Z ; ATL::operator==
PUBLIC	?BeginModalState@CWnd@@UAEXXZ			; CWnd::BeginModalState
PUBLIC	?EndModalState@CWnd@@UAEXXZ			; CWnd::EndModalState
PUBLIC	?Create@CDialog@@UAEHIPAVCWnd@@@Z		; CDialog::Create
PUBLIC	??9ATL@@YA_NABV?$CStringT@DV?$StrTraitMFC_DLL@DV?$ChTraitsCRT@D@ATL@@@@@0@0@Z ; ATL::operator!=
PUBLIC	??8ATL@@YA_NPBDABV?$CStringT@DV?$StrTraitMFC_DLL@DV?$ChTraitsCRT@D@ATL@@@@@0@@Z ; ATL::operator==
PUBLIC	?noAnorD@CSetPSW@@QAE_NPBD@Z			; CSetPSW::noAnorD
PUBLIC	?OnBnClickedOk@CSetPSW@@QAEXXZ			; CSetPSW::OnBnClickedOk
PUBLIC	?GetThisMessageMap@CSetPSW@@KGPBUAFX_MSGMAP@@XZ	; CSetPSW::GetThisMessageMap
PUBLIC	?GetMessageMap@CSetPSW@@MBEPBUAFX_MSGMAP@@XZ	; CSetPSW::GetMessageMap
PUBLIC	?DoDataExchange@CSetPSW@@MAEXPAVCDataExchange@@@Z ; CSetPSW::DoDataExchange
PUBLIC	??1CSetPSW@@UAE@XZ				; CSetPSW::~CSetPSW
PUBLIC	??1CDialogEx@@UAE@XZ				; CDialogEx::~CDialogEx
PUBLIC	??_GCSetPSW@@UAEPAXI@Z				; CSetPSW::`scalar deleting destructor'
PUBLIC	??0CSetPSW@@QAE@PAVCWnd@@@Z			; CSetPSW::CSetPSW
PUBLIC	?GetRuntimeClass@CSetPSW@@UBEPAUCRuntimeClass@@XZ ; CSetPSW::GetRuntimeClass
PUBLIC	?_GetBaseClass@CSetPSW@@KGPAUCRuntimeClass@@XZ	; CSetPSW::_GetBaseClass
EXTRN	??_ECGdiObject@@UAEPAXI@Z:PROC			; CGdiObject::`vector deleting destructor'
EXTRN	??_ECBrush@@UAEPAXI@Z:PROC			; CBrush::`vector deleting destructor'
EXTRN	??_ECSetPSW@@UAEPAXI@Z:PROC			; CSetPSW::`vector deleting destructor'
;	COMDAT xdata$x
xdata$x	SEGMENT
__ehfuncinfo$??1CDialogEx@@UAE@XZ DD 019930522H
	DD	02H
	DD	FLAT:__unwindtable$??1CDialogEx@@UAE@XZ
	DD	2 DUP(00H)
	DD	2 DUP(00H)
	DD	00H
	DD	01H
__unwindtable$??1CDialogEx@@UAE@XZ DD 0ffffffffH
	DD	FLAT:__unwindfunclet$??1CDialogEx@@UAE@XZ$0
	DD	00H
	DD	FLAT:__unwindfunclet$??1CDialogEx@@UAE@XZ$1
xdata$x	ENDS
;	COMDAT xdata$x
xdata$x	SEGMENT
__ehfuncinfo$?OnBnClickedOk@CSetPSW@@QAEXXZ DD 019930522H
	DD	07H
	DD	FLAT:__unwindtable$?OnBnClickedOk@CSetPSW@@QAEXXZ
	DD	2 DUP(00H)
	DD	2 DUP(00H)
	DD	00H
	DD	01H
__unwindtable$?OnBnClickedOk@CSetPSW@@QAEXXZ DD 0ffffffffH
	DD	FLAT:__unwindfunclet$?OnBnClickedOk@CSetPSW@@QAEXXZ$0
	DD	00H
	DD	FLAT:__unwindfunclet$?OnBnClickedOk@CSetPSW@@QAEXXZ$1
	DD	00H
	DD	FLAT:__unwindfunclet$?OnBnClickedOk@CSetPSW@@QAEXXZ$2
	DD	02H
	DD	FLAT:__unwindfunclet$?OnBnClickedOk@CSetPSW@@QAEXXZ$3
	DD	03H
	DD	FLAT:__unwindfunclet$?OnBnClickedOk@CSetPSW@@QAEXXZ$4
	DD	04H
	DD	FLAT:__unwindfunclet$?OnBnClickedOk@CSetPSW@@QAEXXZ$5
	DD	05H
	DD	FLAT:__unwindfunclet$?OnBnClickedOk@CSetPSW@@QAEXXZ$6
xdata$x	ENDS
;	COMDAT xdata$x
xdata$x	SEGMENT
__ehfuncinfo$??HATL@@YA?AV?$CStringT@DV?$StrTraitMFC_DLL@DV?$ChTraitsCRT@D@ATL@@@@@0@ABV10@PBD@Z DD 019930522H
	DD	01H
	DD	FLAT:__unwindtable$??HATL@@YA?AV?$CStringT@DV?$StrTraitMFC_DLL@DV?$ChTraitsCRT@D@ATL@@@@@0@ABV10@PBD@Z
	DD	2 DUP(00H)
	DD	2 DUP(00H)
	DD	00H
	DD	01H
__unwindtable$??HATL@@YA?AV?$CStringT@DV?$StrTraitMFC_DLL@DV?$ChTraitsCRT@D@ATL@@@@@0@ABV10@PBD@Z DD 0ffffffffH
	DD	FLAT:__unwindfunclet$??HATL@@YA?AV?$CStringT@DV?$StrTraitMFC_DLL@DV?$ChTraitsCRT@D@ATL@@@@@0@ABV10@PBD@Z$0
xdata$x	ENDS
;	COMDAT xdata$x
xdata$x	SEGMENT
__ehfuncinfo$??1CGdiObject@@UAE@XZ DD 019930522H
	DD	04H
	DD	FLAT:__unwindtable$??1CGdiObject@@UAE@XZ
	DD	01H
	DD	FLAT:__tryblocktable$??1CGdiObject@@UAE@XZ
	DD	2 DUP(00H)
	DD	00H
	DD	01H
__unwindtable$??1CGdiObject@@UAE@XZ DD 0ffffffffH
	DD	FLAT:__unwindfunclet$??1CGdiObject@@UAE@XZ$2
	DD	00H
	DD	00H
	DD	00H
	DD	00H
	DD	02H
	DD	FLAT:__unwindfunclet$??1CGdiObject@@UAE@XZ$3
__tryblocktable$??1CGdiObject@@UAE@XZ DD 01H
	DD	01H
	DD	03H
	DD	01H
	DD	FLAT:__catchsym$??1CGdiObject@@UAE@XZ$4
__catchsym$??1CGdiObject@@UAE@XZ$4 DD 00H
	DD	FLAT:??_R0PAVCException@@@8
	DD	0fffffddcH
	DD	FLAT:__catch$??1CGdiObject@@UAE@XZ$0
; Function compile flags: /Odtp
; File e:\work_wm\hxijy_code\endoscopemfc2012_menu_changepara_youhua_savepic_usb_1114_twothread_svepic_save5\src\endoscopemfc\csetpsw.cpp
;	COMDAT ?_GetBaseClass@CSetPSW@@KGPAUCRuntimeClass@@XZ
_TEXT	SEGMENT
?_GetBaseClass@CSetPSW@@KGPAUCRuntimeClass@@XZ PROC	; CSetPSW::_GetBaseClass, COMDAT

; 13   : IMPLEMENT_DYNAMIC(CSetPSW, CDialogEx)

  00000	55		 push	 ebp
  00001	8b ec		 mov	 ebp, esp
  00003	ff 15 00 00 00
	00		 call	 DWORD PTR __imp_?GetThisClass@CDialogEx@@SGPAUCRuntimeClass@@XZ
  00009	5d		 pop	 ebp
  0000a	c3		 ret	 0
?_GetBaseClass@CSetPSW@@KGPAUCRuntimeClass@@XZ ENDP	; CSetPSW::_GetBaseClass
_TEXT	ENDS
; Function compile flags: /Odtp
; File e:\work_wm\hxijy_code\endoscopemfc2012_menu_changepara_youhua_savepic_usb_1114_twothread_svepic_save5\src\endoscopemfc\csetpsw.cpp
;	COMDAT ?GetRuntimeClass@CSetPSW@@UBEPAUCRuntimeClass@@XZ
_TEXT	SEGMENT
_this$ = -4						; size = 4
?GetRuntimeClass@CSetPSW@@UBEPAUCRuntimeClass@@XZ PROC	; CSetPSW::GetRuntimeClass, COMDAT
; _this$ = ecx

; 13   : IMPLEMENT_DYNAMIC(CSetPSW, CDialogEx)

  00000	55		 push	 ebp
  00001	8b ec		 mov	 ebp, esp
  00003	51		 push	 ecx
  00004	89 4d fc	 mov	 DWORD PTR _this$[ebp], ecx
  00007	b8 00 00 00 00	 mov	 eax, OFFSET ?classCSetPSW@CSetPSW@@2UCRuntimeClass@@B ; CSetPSW::classCSetPSW
  0000c	8b e5		 mov	 esp, ebp
  0000e	5d		 pop	 ebp
  0000f	c3		 ret	 0
?GetRuntimeClass@CSetPSW@@UBEPAUCRuntimeClass@@XZ ENDP	; CSetPSW::GetRuntimeClass
_TEXT	ENDS
; Function compile flags: /Odtp
; File e:\work_wm\hxijy_code\endoscopemfc2012_menu_changepara_youhua_savepic_usb_1114_twothread_svepic_save5\src\endoscopemfc\csetpsw.cpp
;	COMDAT ??0CSetPSW@@QAE@PAVCWnd@@@Z
_TEXT	SEGMENT
_this$ = -4						; size = 4
_pParent$ = 8						; size = 4
??0CSetPSW@@QAE@PAVCWnd@@@Z PROC			; CSetPSW::CSetPSW, COMDAT
; _this$ = ecx

; 17   : {

  00000	55		 push	 ebp
  00001	8b ec		 mov	 ebp, esp
  00003	51		 push	 ecx
  00004	89 4d fc	 mov	 DWORD PTR _this$[ebp], ecx
  00007	8b 45 08	 mov	 eax, DWORD PTR _pParent$[ebp]
  0000a	50		 push	 eax
  0000b	68 84 00 00 00	 push	 132			; 00000084H
  00010	8b 4d fc	 mov	 ecx, DWORD PTR _this$[ebp]
  00013	ff 15 00 00 00
	00		 call	 DWORD PTR __imp_??0CDialogEx@@QAE@IPAVCWnd@@@Z
  00019	8b 4d fc	 mov	 ecx, DWORD PTR _this$[ebp]
  0001c	c7 01 00 00 00
	00		 mov	 DWORD PTR [ecx], OFFSET ??_7CSetPSW@@6B@

; 18   : 
; 19   : }

  00022	8b 45 fc	 mov	 eax, DWORD PTR _this$[ebp]
  00025	8b e5		 mov	 esp, ebp
  00027	5d		 pop	 ebp
  00028	c2 04 00	 ret	 4
??0CSetPSW@@QAE@PAVCWnd@@@Z ENDP			; CSetPSW::CSetPSW
_TEXT	ENDS
; Function compile flags: /Odtp
;	COMDAT ??_GCSetPSW@@UAEPAXI@Z
_TEXT	SEGMENT
_this$ = -4						; size = 4
___flags$ = 8						; size = 4
??_GCSetPSW@@UAEPAXI@Z PROC				; CSetPSW::`scalar deleting destructor', COMDAT
; _this$ = ecx
  00000	55		 push	 ebp
  00001	8b ec		 mov	 ebp, esp
  00003	51		 push	 ecx
  00004	89 4d fc	 mov	 DWORD PTR _this$[ebp], ecx
  00007	8b 4d fc	 mov	 ecx, DWORD PTR _this$[ebp]
  0000a	e8 00 00 00 00	 call	 ??1CSetPSW@@UAE@XZ	; CSetPSW::~CSetPSW
  0000f	8b 45 08	 mov	 eax, DWORD PTR ___flags$[ebp]
  00012	83 e0 01	 and	 eax, 1
  00015	74 09		 je	 SHORT $LN1@scalar
  00017	8b 4d fc	 mov	 ecx, DWORD PTR _this$[ebp]
  0001a	51		 push	 ecx
  0001b	e8 00 00 00 00	 call	 ??3CObject@@SGXPAX@Z	; CObject::operator delete
$LN1@scalar:
  00020	8b 45 fc	 mov	 eax, DWORD PTR _this$[ebp]
  00023	8b e5		 mov	 esp, ebp
  00025	5d		 pop	 ebp
  00026	c2 04 00	 ret	 4
??_GCSetPSW@@UAEPAXI@Z ENDP				; CSetPSW::`scalar deleting destructor'
_TEXT	ENDS
; Function compile flags: /Odtp
;	COMDAT ??1CDialogEx@@UAE@XZ
_TEXT	SEGMENT
_this$ = -16						; size = 4
__$EHRec$ = -12						; size = 12
??1CDialogEx@@UAE@XZ PROC				; CDialogEx::~CDialogEx, COMDAT
; _this$ = ecx
  00000	55		 push	 ebp
  00001	8b ec		 mov	 ebp, esp
  00003	6a ff		 push	 -1
  00005	68 00 00 00 00	 push	 __ehhandler$??1CDialogEx@@UAE@XZ
  0000a	64 a1 00 00 00
	00		 mov	 eax, DWORD PTR fs:0
  00010	50		 push	 eax
  00011	51		 push	 ecx
  00012	a1 00 00 00 00	 mov	 eax, DWORD PTR ___security_cookie
  00017	33 c5		 xor	 eax, ebp
  00019	50		 push	 eax
  0001a	8d 45 f4	 lea	 eax, DWORD PTR __$EHRec$[ebp]
  0001d	64 a3 00 00 00
	00		 mov	 DWORD PTR fs:0, eax
  00023	89 4d f0	 mov	 DWORD PTR _this$[ebp], ecx
  00026	c7 45 fc 01 00
	00 00		 mov	 DWORD PTR __$EHRec$[ebp+8], 1
  0002d	8b 4d f0	 mov	 ecx, DWORD PTR _this$[ebp]
  00030	81 c1 ac 00 00
	00		 add	 ecx, 172		; 000000acH
  00036	ff 15 00 00 00
	00		 call	 DWORD PTR __imp_??1CDialogImpl@@MAE@XZ
  0003c	c6 45 fc 00	 mov	 BYTE PTR __$EHRec$[ebp+8], 0
  00040	8b 4d f0	 mov	 ecx, DWORD PTR _this$[ebp]
  00043	81 c1 a0 00 00
	00		 add	 ecx, 160		; 000000a0H
  00049	e8 00 00 00 00	 call	 ??1CBrush@@UAE@XZ	; CBrush::~CBrush
  0004e	c7 45 fc ff ff
	ff ff		 mov	 DWORD PTR __$EHRec$[ebp+8], -1
  00055	8b 4d f0	 mov	 ecx, DWORD PTR _this$[ebp]
  00058	ff 15 00 00 00
	00		 call	 DWORD PTR __imp_??1CDialog@@UAE@XZ
  0005e	8b 4d f4	 mov	 ecx, DWORD PTR __$EHRec$[ebp]
  00061	64 89 0d 00 00
	00 00		 mov	 DWORD PTR fs:0, ecx
  00068	59		 pop	 ecx
  00069	8b e5		 mov	 esp, ebp
  0006b	5d		 pop	 ebp
  0006c	c3		 ret	 0
_TEXT	ENDS
;	COMDAT text$x
text$x	SEGMENT
__unwindfunclet$??1CDialogEx@@UAE@XZ$0:
  00000	8b 4d f0	 mov	 ecx, DWORD PTR _this$[ebp]
  00003	ff 25 00 00 00
	00		 jmp	 DWORD PTR __imp_??1CDialog@@UAE@XZ
__unwindfunclet$??1CDialogEx@@UAE@XZ$1:
  00009	8b 4d f0	 mov	 ecx, DWORD PTR _this$[ebp]
  0000c	81 c1 a0 00 00
	00		 add	 ecx, 160		; 000000a0H
  00012	e9 00 00 00 00	 jmp	 ??1CBrush@@UAE@XZ	; CBrush::~CBrush
__ehhandler$??1CDialogEx@@UAE@XZ:
  00017	8b 54 24 08	 mov	 edx, DWORD PTR [esp+8]
  0001b	8d 42 0c	 lea	 eax, DWORD PTR [edx+12]
  0001e	8b 4a f8	 mov	 ecx, DWORD PTR [edx-8]
  00021	33 c8		 xor	 ecx, eax
  00023	e8 00 00 00 00	 call	 @__security_check_cookie@4
  00028	b8 00 00 00 00	 mov	 eax, OFFSET __ehfuncinfo$??1CDialogEx@@UAE@XZ
  0002d	e9 00 00 00 00	 jmp	 ___CxxFrameHandler3
text$x	ENDS
??1CDialogEx@@UAE@XZ ENDP				; CDialogEx::~CDialogEx
; Function compile flags: /Odtp
; File e:\work_wm\hxijy_code\endoscopemfc2012_menu_changepara_youhua_savepic_usb_1114_twothread_svepic_save5\src\endoscopemfc\csetpsw.cpp
;	COMDAT ??1CSetPSW@@UAE@XZ
_TEXT	SEGMENT
_this$ = -4						; size = 4
??1CSetPSW@@UAE@XZ PROC					; CSetPSW::~CSetPSW, COMDAT
; _this$ = ecx

; 22   : {

  00000	55		 push	 ebp
  00001	8b ec		 mov	 ebp, esp
  00003	51		 push	 ecx
  00004	89 4d fc	 mov	 DWORD PTR _this$[ebp], ecx
  00007	8b 45 fc	 mov	 eax, DWORD PTR _this$[ebp]
  0000a	c7 00 00 00 00
	00		 mov	 DWORD PTR [eax], OFFSET ??_7CSetPSW@@6B@

; 23   : }

  00010	8b 4d fc	 mov	 ecx, DWORD PTR _this$[ebp]
  00013	e8 00 00 00 00	 call	 ??1CDialogEx@@UAE@XZ
  00018	8b e5		 mov	 esp, ebp
  0001a	5d		 pop	 ebp
  0001b	c3		 ret	 0
??1CSetPSW@@UAE@XZ ENDP					; CSetPSW::~CSetPSW
_TEXT	ENDS
; Function compile flags: /Odtp
; File e:\work_wm\hxijy_code\endoscopemfc2012_menu_changepara_youhua_savepic_usb_1114_twothread_svepic_save5\src\endoscopemfc\csetpsw.cpp
;	COMDAT ?DoDataExchange@CSetPSW@@MAEXPAVCDataExchange@@@Z
_TEXT	SEGMENT
_this$ = -4						; size = 4
_pDX$ = 8						; size = 4
?DoDataExchange@CSetPSW@@MAEXPAVCDataExchange@@@Z PROC	; CSetPSW::DoDataExchange, COMDAT
; _this$ = ecx

; 26   : {

  00000	55		 push	 ebp
  00001	8b ec		 mov	 ebp, esp
  00003	51		 push	 ecx
  00004	89 4d fc	 mov	 DWORD PTR _this$[ebp], ecx

; 27   : 	CDialogEx::DoDataExchange(pDX);

  00007	8b 45 08	 mov	 eax, DWORD PTR _pDX$[ebp]
  0000a	50		 push	 eax
  0000b	8b 4d fc	 mov	 ecx, DWORD PTR _this$[ebp]
  0000e	e8 00 00 00 00	 call	 ?DoDataExchange@CWnd@@MAEXPAVCDataExchange@@@Z ; CWnd::DoDataExchange

; 28   : }

  00013	8b e5		 mov	 esp, ebp
  00015	5d		 pop	 ebp
  00016	c2 04 00	 ret	 4
?DoDataExchange@CSetPSW@@MAEXPAVCDataExchange@@@Z ENDP	; CSetPSW::DoDataExchange
_TEXT	ENDS
; Function compile flags: /Odtp
; File e:\work_wm\hxijy_code\endoscopemfc2012_menu_changepara_youhua_savepic_usb_1114_twothread_svepic_save5\src\endoscopemfc\csetpsw.cpp
;	COMDAT ?GetMessageMap@CSetPSW@@MBEPBUAFX_MSGMAP@@XZ
_TEXT	SEGMENT
_this$ = -4						; size = 4
?GetMessageMap@CSetPSW@@MBEPBUAFX_MSGMAP@@XZ PROC	; CSetPSW::GetMessageMap, COMDAT
; _this$ = ecx

; 31   : BEGIN_MESSAGE_MAP(CSetPSW, CDialogEx)

  00000	55		 push	 ebp
  00001	8b ec		 mov	 ebp, esp
  00003	51		 push	 ecx
  00004	89 4d fc	 mov	 DWORD PTR _this$[ebp], ecx
  00007	e8 00 00 00 00	 call	 ?GetThisMessageMap@CSetPSW@@KGPBUAFX_MSGMAP@@XZ ; CSetPSW::GetThisMessageMap
  0000c	8b e5		 mov	 esp, ebp
  0000e	5d		 pop	 ebp
  0000f	c3		 ret	 0
?GetMessageMap@CSetPSW@@MBEPBUAFX_MSGMAP@@XZ ENDP	; CSetPSW::GetMessageMap
_TEXT	ENDS
; Function compile flags: /Odtp
; File e:\work_wm\hxijy_code\endoscopemfc2012_menu_changepara_youhua_savepic_usb_1114_twothread_svepic_save5\src\endoscopemfc\csetpsw.cpp
;	COMDAT ?GetThisMessageMap@CSetPSW@@KGPBUAFX_MSGMAP@@XZ
_TEXT	SEGMENT
?GetThisMessageMap@CSetPSW@@KGPBUAFX_MSGMAP@@XZ PROC	; CSetPSW::GetThisMessageMap, COMDAT

; 31   : BEGIN_MESSAGE_MAP(CSetPSW, CDialogEx)

  00000	55		 push	 ebp
  00001	8b ec		 mov	 ebp, esp

; 32   : 	ON_BN_CLICKED(IDOK, &CSetPSW::OnBnClickedOk)
; 33   : END_MESSAGE_MAP()

  00003	b8 00 00 00 00	 mov	 eax, OFFSET ?messageMap@?1??GetThisMessageMap@CSetPSW@@KGPBUAFX_MSGMAP@@XZ@4U3@B
  00008	5d		 pop	 ebp
  00009	c3		 ret	 0
?GetThisMessageMap@CSetPSW@@KGPBUAFX_MSGMAP@@XZ ENDP	; CSetPSW::GetThisMessageMap
_TEXT	ENDS
; Function compile flags: /Odtp
; File e:\work_wm\hxijy_code\endoscopemfc2012_menu_changepara_youhua_savepic_usb_1114_twothread_svepic_save5\src\endoscopemfc\csetpsw.cpp
;	COMDAT ?OnBnClickedOk@CSetPSW@@QAEXXZ
_TEXT	SEGMENT
_nPos$ = -116						; size = 4
tv264 = -112						; size = 4
_pNewPSW$ = -108					; size = 4
tv65 = -104						; size = 4
$T2 = -100						; size = 4
_this$ = -96						; size = 4
_sOldPSW$ = -92						; size = 4
_ConfigPath$ = -88					; size = 4
_sNew2$ = -84						; size = 4
_sOld$ = -80						; size = 4
_sNew$ = -76						; size = 4
_sPath$ = -72						; size = 4
_cPSW$ = -68						; size = 50
__$ArrayPad$ = -16					; size = 4
__$EHRec$ = -12						; size = 12
?OnBnClickedOk@CSetPSW@@QAEXXZ PROC			; CSetPSW::OnBnClickedOk, COMDAT
; _this$ = ecx

; 40   : {

  00000	55		 push	 ebp
  00001	8b ec		 mov	 ebp, esp
  00003	6a ff		 push	 -1
  00005	68 00 00 00 00	 push	 __ehhandler$?OnBnClickedOk@CSetPSW@@QAEXXZ
  0000a	64 a1 00 00 00
	00		 mov	 eax, DWORD PTR fs:0
  00010	50		 push	 eax
  00011	83 ec 68	 sub	 esp, 104		; 00000068H
  00014	a1 00 00 00 00	 mov	 eax, DWORD PTR ___security_cookie
  00019	33 c5		 xor	 eax, ebp
  0001b	89 45 f0	 mov	 DWORD PTR __$ArrayPad$[ebp], eax
  0001e	50		 push	 eax
  0001f	8d 45 f4	 lea	 eax, DWORD PTR __$EHRec$[ebp]
  00022	64 a3 00 00 00
	00		 mov	 DWORD PTR fs:0, eax
  00028	89 4d a0	 mov	 DWORD PTR _this$[ebp], ecx

; 41   : 	// TODO: 
; 42   : 	CString sPath;

  0002b	8d 4d b8	 lea	 ecx, DWORD PTR _sPath$[ebp]
  0002e	ff 15 00 00 00
	00		 call	 DWORD PTR __imp_??0?$CStringT@DV?$StrTraitMFC_DLL@DV?$ChTraitsCRT@D@ATL@@@@@ATL@@QAE@XZ
  00034	c7 45 fc 00 00
	00 00		 mov	 DWORD PTR __$EHRec$[ebp+8], 0

; 43   : 	GetModuleFileName(NULL, sPath.GetBufferSetLength(MAX_PATH + 1), MAX_PATH);

  0003b	68 04 01 00 00	 push	 260			; 00000104H
  00040	68 05 01 00 00	 push	 261			; 00000105H
  00045	8d 4d b8	 lea	 ecx, DWORD PTR _sPath$[ebp]
  00048	ff 15 00 00 00
	00		 call	 DWORD PTR __imp_?GetBufferSetLength@?$CSimpleStringT@D$00@ATL@@QAEPADH@Z
  0004e	50		 push	 eax
  0004f	6a 00		 push	 0
  00051	ff 15 00 00 00
	00		 call	 DWORD PTR __imp__GetModuleFileNameA@12

; 44   : 	sPath.ReleaseBuffer();

  00057	6a ff		 push	 -1
  00059	8d 4d b8	 lea	 ecx, DWORD PTR _sPath$[ebp]
  0005c	ff 15 00 00 00
	00		 call	 DWORD PTR __imp_?ReleaseBuffer@?$CSimpleStringT@D$00@ATL@@QAEXH@Z

; 45   : 
; 46   : 	int nPos;
; 47   : 	nPos = sPath.ReverseFind('\\');

  00062	6a 5c		 push	 92			; 0000005cH
  00064	8d 4d b8	 lea	 ecx, DWORD PTR _sPath$[ebp]
  00067	ff 15 00 00 00
	00		 call	 DWORD PTR __imp_?ReverseFind@?$CStringT@DV?$StrTraitMFC_DLL@DV?$ChTraitsCRT@D@ATL@@@@@ATL@@QBEHD@Z
  0006d	89 45 8c	 mov	 DWORD PTR _nPos$[ebp], eax

; 48   : 	sPath = sPath.Left(nPos);

  00070	8b 45 8c	 mov	 eax, DWORD PTR _nPos$[ebp]
  00073	50		 push	 eax
  00074	8d 4d 9c	 lea	 ecx, DWORD PTR $T2[ebp]
  00077	51		 push	 ecx
  00078	8d 4d b8	 lea	 ecx, DWORD PTR _sPath$[ebp]
  0007b	ff 15 00 00 00
	00		 call	 DWORD PTR __imp_?Left@?$CStringT@DV?$StrTraitMFC_DLL@DV?$ChTraitsCRT@D@ATL@@@@@ATL@@QBE?AV12@H@Z
  00081	89 45 98	 mov	 DWORD PTR tv65[ebp], eax
  00084	8b 55 98	 mov	 edx, DWORD PTR tv65[ebp]
  00087	89 55 90	 mov	 DWORD PTR tv264[ebp], edx
  0008a	c6 45 fc 01	 mov	 BYTE PTR __$EHRec$[ebp+8], 1
  0008e	8b 45 90	 mov	 eax, DWORD PTR tv264[ebp]
  00091	50		 push	 eax
  00092	8d 4d b8	 lea	 ecx, DWORD PTR _sPath$[ebp]
  00095	ff 15 00 00 00
	00		 call	 DWORD PTR __imp_??4?$CStringT@DV?$StrTraitMFC_DLL@DV?$ChTraitsCRT@D@ATL@@@@@ATL@@QAEAAV01@ABV01@@Z
  0009b	c6 45 fc 00	 mov	 BYTE PTR __$EHRec$[ebp+8], 0
  0009f	8d 4d 9c	 lea	 ecx, DWORD PTR $T2[ebp]
  000a2	ff 15 00 00 00
	00		 call	 DWORD PTR __imp_??1?$CStringT@DV?$StrTraitMFC_DLL@DV?$ChTraitsCRT@D@ATL@@@@@ATL@@QAE@XZ

; 49   : 
; 50   : 	CString ConfigPath = sPath + _T("\\config.ini");

  000a8	68 00 00 00 00	 push	 OFFSET $SG4294964373
  000ad	8d 4d b8	 lea	 ecx, DWORD PTR _sPath$[ebp]
  000b0	51		 push	 ecx
  000b1	8d 55 a8	 lea	 edx, DWORD PTR _ConfigPath$[ebp]
  000b4	52		 push	 edx
  000b5	e8 00 00 00 00	 call	 ??HATL@@YA?AV?$CStringT@DV?$StrTraitMFC_DLL@DV?$ChTraitsCRT@D@ATL@@@@@0@ABV10@PBD@Z ; ATL::operator+
  000ba	83 c4 0c	 add	 esp, 12			; 0000000cH
  000bd	c6 45 fc 02	 mov	 BYTE PTR __$EHRec$[ebp+8], 2

; 51   : 	char cPSW[50];
; 52   : 	memset(cPSW, 0, 50 * sizeof(char));

  000c1	6a 32		 push	 50			; 00000032H
  000c3	6a 00		 push	 0
  000c5	8d 45 bc	 lea	 eax, DWORD PTR _cPSW$[ebp]
  000c8	50		 push	 eax
  000c9	e8 00 00 00 00	 call	 _memset
  000ce	83 c4 0c	 add	 esp, 12			; 0000000cH

; 53   : 	GetPrivateProfileString("LOGIN", "PASSWORD", "", cPSW, 50 * sizeof(char), ConfigPath);

  000d1	8d 4d a8	 lea	 ecx, DWORD PTR _ConfigPath$[ebp]
  000d4	ff 15 00 00 00
	00		 call	 DWORD PTR __imp_??B?$CSimpleStringT@D$00@ATL@@QBEPBDXZ
  000da	50		 push	 eax
  000db	6a 32		 push	 50			; 00000032H
  000dd	8d 4d bc	 lea	 ecx, DWORD PTR _cPSW$[ebp]
  000e0	51		 push	 ecx
  000e1	68 00 00 00 00	 push	 OFFSET $SG4294964372
  000e6	68 00 00 00 00	 push	 OFFSET $SG4294964371
  000eb	68 00 00 00 00	 push	 OFFSET $SG4294964370
  000f0	ff 15 00 00 00
	00		 call	 DWORD PTR __imp__GetPrivateProfileStringA@24

; 54   : 	CString sOldPSW(cPSW);

  000f6	8d 55 bc	 lea	 edx, DWORD PTR _cPSW$[ebp]
  000f9	52		 push	 edx
  000fa	8d 4d a4	 lea	 ecx, DWORD PTR _sOldPSW$[ebp]
  000fd	ff 15 00 00 00
	00		 call	 DWORD PTR __imp_??0?$CStringT@DV?$StrTraitMFC_DLL@DV?$ChTraitsCRT@D@ATL@@@@@ATL@@QAE@PBD@Z
  00103	c6 45 fc 03	 mov	 BYTE PTR __$EHRec$[ebp+8], 3

; 55   : 
; 56   : 	CString sOld,sNew,sNew2;

  00107	8d 4d b0	 lea	 ecx, DWORD PTR _sOld$[ebp]
  0010a	ff 15 00 00 00
	00		 call	 DWORD PTR __imp_??0?$CStringT@DV?$StrTraitMFC_DLL@DV?$ChTraitsCRT@D@ATL@@@@@ATL@@QAE@XZ
  00110	c6 45 fc 04	 mov	 BYTE PTR __$EHRec$[ebp+8], 4
  00114	8d 4d b4	 lea	 ecx, DWORD PTR _sNew$[ebp]
  00117	ff 15 00 00 00
	00		 call	 DWORD PTR __imp_??0?$CStringT@DV?$StrTraitMFC_DLL@DV?$ChTraitsCRT@D@ATL@@@@@ATL@@QAE@XZ
  0011d	c6 45 fc 05	 mov	 BYTE PTR __$EHRec$[ebp+8], 5
  00121	8d 4d ac	 lea	 ecx, DWORD PTR _sNew2$[ebp]
  00124	ff 15 00 00 00
	00		 call	 DWORD PTR __imp_??0?$CStringT@DV?$StrTraitMFC_DLL@DV?$ChTraitsCRT@D@ATL@@@@@ATL@@QAE@XZ
  0012a	c6 45 fc 06	 mov	 BYTE PTR __$EHRec$[ebp+8], 6

; 57   : 	GetDlgItemText(IDC_EDIT_OLDPSW, sOld);

  0012e	8d 45 b0	 lea	 eax, DWORD PTR _sOld$[ebp]
  00131	50		 push	 eax
  00132	68 14 04 00 00	 push	 1044			; 00000414H
  00137	8b 4d a0	 mov	 ecx, DWORD PTR _this$[ebp]
  0013a	ff 15 00 00 00
	00		 call	 DWORD PTR __imp_?GetDlgItemTextA@CWnd@@QBEHHAAV?$CStringT@DV?$StrTraitMFC_DLL@DV?$ChTraitsCRT@D@ATL@@@@@ATL@@@Z

; 58   : 	GetDlgItemText(IDC_EDIT_NEWPSW, sNew);

  00140	8d 4d b4	 lea	 ecx, DWORD PTR _sNew$[ebp]
  00143	51		 push	 ecx
  00144	68 15 04 00 00	 push	 1045			; 00000415H
  00149	8b 4d a0	 mov	 ecx, DWORD PTR _this$[ebp]
  0014c	ff 15 00 00 00
	00		 call	 DWORD PTR __imp_?GetDlgItemTextA@CWnd@@QBEHHAAV?$CStringT@DV?$StrTraitMFC_DLL@DV?$ChTraitsCRT@D@ATL@@@@@ATL@@@Z

; 59   : 	GetDlgItemText(IDC_EDIT_NEWPSW2, sNew2);

  00152	8d 55 ac	 lea	 edx, DWORD PTR _sNew2$[ebp]
  00155	52		 push	 edx
  00156	68 16 04 00 00	 push	 1046			; 00000416H
  0015b	8b 4d a0	 mov	 ecx, DWORD PTR _this$[ebp]
  0015e	ff 15 00 00 00
	00		 call	 DWORD PTR __imp_?GetDlgItemTextA@CWnd@@QBEHHAAV?$CStringT@DV?$StrTraitMFC_DLL@DV?$ChTraitsCRT@D@ATL@@@@@ATL@@@Z

; 60   : 	if ("" == sOld)

  00164	8d 45 b0	 lea	 eax, DWORD PTR _sOld$[ebp]
  00167	50		 push	 eax
  00168	68 00 00 00 00	 push	 OFFSET $SG4294964369
  0016d	e8 00 00 00 00	 call	 ??8ATL@@YA_NPBDABV?$CStringT@DV?$StrTraitMFC_DLL@DV?$ChTraitsCRT@D@ATL@@@@@0@@Z ; ATL::operator==
  00172	83 c4 08	 add	 esp, 8
  00175	0f b6 c8	 movzx	 ecx, al
  00178	85 c9		 test	 ecx, ecx
  0017a	74 6d		 je	 SHORT $LN7@OnBnClicke

; 61   : 	{
; 62   : 		::MessageBox(NULL, "", "", MB_OK | MB_TASKMODAL | MB_SETFOREGROUND);

  0017c	68 00 20 01 00	 push	 73728			; 00012000H
  00181	68 00 00 00 00	 push	 OFFSET $SG4294964368
  00186	68 00 00 00 00	 push	 OFFSET $SG4294964367
  0018b	6a 00		 push	 0
  0018d	ff 15 00 00 00
	00		 call	 DWORD PTR __imp__MessageBoxA@16

; 63   : 		return;

  00193	c6 45 fc 05	 mov	 BYTE PTR __$EHRec$[ebp+8], 5
  00197	8d 4d ac	 lea	 ecx, DWORD PTR _sNew2$[ebp]
  0019a	ff 15 00 00 00
	00		 call	 DWORD PTR __imp_??1?$CStringT@DV?$StrTraitMFC_DLL@DV?$ChTraitsCRT@D@ATL@@@@@ATL@@QAE@XZ
  001a0	c6 45 fc 04	 mov	 BYTE PTR __$EHRec$[ebp+8], 4
  001a4	8d 4d b4	 lea	 ecx, DWORD PTR _sNew$[ebp]
  001a7	ff 15 00 00 00
	00		 call	 DWORD PTR __imp_??1?$CStringT@DV?$StrTraitMFC_DLL@DV?$ChTraitsCRT@D@ATL@@@@@ATL@@QAE@XZ
  001ad	c6 45 fc 03	 mov	 BYTE PTR __$EHRec$[ebp+8], 3
  001b1	8d 4d b0	 lea	 ecx, DWORD PTR _sOld$[ebp]
  001b4	ff 15 00 00 00
	00		 call	 DWORD PTR __imp_??1?$CStringT@DV?$StrTraitMFC_DLL@DV?$ChTraitsCRT@D@ATL@@@@@ATL@@QAE@XZ
  001ba	c6 45 fc 02	 mov	 BYTE PTR __$EHRec$[ebp+8], 2
  001be	8d 4d a4	 lea	 ecx, DWORD PTR _sOldPSW$[ebp]
  001c1	ff 15 00 00 00
	00		 call	 DWORD PTR __imp_??1?$CStringT@DV?$StrTraitMFC_DLL@DV?$ChTraitsCRT@D@ATL@@@@@ATL@@QAE@XZ
  001c7	c6 45 fc 00	 mov	 BYTE PTR __$EHRec$[ebp+8], 0
  001cb	8d 4d a8	 lea	 ecx, DWORD PTR _ConfigPath$[ebp]
  001ce	ff 15 00 00 00
	00		 call	 DWORD PTR __imp_??1?$CStringT@DV?$StrTraitMFC_DLL@DV?$ChTraitsCRT@D@ATL@@@@@ATL@@QAE@XZ
  001d4	c7 45 fc ff ff
	ff ff		 mov	 DWORD PTR __$EHRec$[ebp+8], -1
  001db	8d 4d b8	 lea	 ecx, DWORD PTR _sPath$[ebp]
  001de	ff 15 00 00 00
	00		 call	 DWORD PTR __imp_??1?$CStringT@DV?$StrTraitMFC_DLL@DV?$ChTraitsCRT@D@ATL@@@@@ATL@@QAE@XZ
  001e4	e9 1c 03 00 00	 jmp	 $LN8@OnBnClicke
$LN7@OnBnClicke:

; 64   : 	}
; 65   : 	if (sOldPSW != sOld)

  001e9	8d 55 b0	 lea	 edx, DWORD PTR _sOld$[ebp]
  001ec	52		 push	 edx
  001ed	8d 45 a4	 lea	 eax, DWORD PTR _sOldPSW$[ebp]
  001f0	50		 push	 eax
  001f1	e8 00 00 00 00	 call	 ??9ATL@@YA_NABV?$CStringT@DV?$StrTraitMFC_DLL@DV?$ChTraitsCRT@D@ATL@@@@@0@0@Z ; ATL::operator!=
  001f6	83 c4 08	 add	 esp, 8
  001f9	0f b6 c8	 movzx	 ecx, al
  001fc	85 c9		 test	 ecx, ecx
  001fe	74 6d		 je	 SHORT $LN6@OnBnClicke

; 66   : 	{
; 67   : 		::MessageBox(NULL, "", "", MB_OK | MB_TASKMODAL | MB_SETFOREGROUND);

  00200	68 00 20 01 00	 push	 73728			; 00012000H
  00205	68 00 00 00 00	 push	 OFFSET $SG4294964366
  0020a	68 00 00 00 00	 push	 OFFSET $SG4294964365
  0020f	6a 00		 push	 0
  00211	ff 15 00 00 00
	00		 call	 DWORD PTR __imp__MessageBoxA@16

; 68   : 		return;

  00217	c6 45 fc 05	 mov	 BYTE PTR __$EHRec$[ebp+8], 5
  0021b	8d 4d ac	 lea	 ecx, DWORD PTR _sNew2$[ebp]
  0021e	ff 15 00 00 00
	00		 call	 DWORD PTR __imp_??1?$CStringT@DV?$StrTraitMFC_DLL@DV?$ChTraitsCRT@D@ATL@@@@@ATL@@QAE@XZ
  00224	c6 45 fc 04	 mov	 BYTE PTR __$EHRec$[ebp+8], 4
  00228	8d 4d b4	 lea	 ecx, DWORD PTR _sNew$[ebp]
  0022b	ff 15 00 00 00
	00		 call	 DWORD PTR __imp_??1?$CStringT@DV?$StrTraitMFC_DLL@DV?$ChTraitsCRT@D@ATL@@@@@ATL@@QAE@XZ
  00231	c6 45 fc 03	 mov	 BYTE PTR __$EHRec$[ebp+8], 3
  00235	8d 4d b0	 lea	 ecx, DWORD PTR _sOld$[ebp]
  00238	ff 15 00 00 00
	00		 call	 DWORD PTR __imp_??1?$CStringT@DV?$StrTraitMFC_DLL@DV?$ChTraitsCRT@D@ATL@@@@@ATL@@QAE@XZ
  0023e	c6 45 fc 02	 mov	 BYTE PTR __$EHRec$[ebp+8], 2
  00242	8d 4d a4	 lea	 ecx, DWORD PTR _sOldPSW$[ebp]
  00245	ff 15 00 00 00
	00		 call	 DWORD PTR __imp_??1?$CStringT@DV?$StrTraitMFC_DLL@DV?$ChTraitsCRT@D@ATL@@@@@ATL@@QAE@XZ
  0024b	c6 45 fc 00	 mov	 BYTE PTR __$EHRec$[ebp+8], 0
  0024f	8d 4d a8	 lea	 ecx, DWORD PTR _ConfigPath$[ebp]
  00252	ff 15 00 00 00
	00		 call	 DWORD PTR __imp_??1?$CStringT@DV?$StrTraitMFC_DLL@DV?$ChTraitsCRT@D@ATL@@@@@ATL@@QAE@XZ
  00258	c7 45 fc ff ff
	ff ff		 mov	 DWORD PTR __$EHRec$[ebp+8], -1
  0025f	8d 4d b8	 lea	 ecx, DWORD PTR _sPath$[ebp]
  00262	ff 15 00 00 00
	00		 call	 DWORD PTR __imp_??1?$CStringT@DV?$StrTraitMFC_DLL@DV?$ChTraitsCRT@D@ATL@@@@@ATL@@QAE@XZ
  00268	e9 98 02 00 00	 jmp	 $LN8@OnBnClicke
$LN6@OnBnClicke:

; 69   : 	}
; 70   : 	if ("" == sNew)

  0026d	8d 55 b4	 lea	 edx, DWORD PTR _sNew$[ebp]
  00270	52		 push	 edx
  00271	68 00 00 00 00	 push	 OFFSET $SG4294964364
  00276	e8 00 00 00 00	 call	 ??8ATL@@YA_NPBDABV?$CStringT@DV?$StrTraitMFC_DLL@DV?$ChTraitsCRT@D@ATL@@@@@0@@Z ; ATL::operator==
  0027b	83 c4 08	 add	 esp, 8
  0027e	0f b6 c0	 movzx	 eax, al
  00281	85 c0		 test	 eax, eax
  00283	74 6d		 je	 SHORT $LN5@OnBnClicke

; 71   : 	{
; 72   : 		::MessageBox(NULL, "", "", MB_OK | MB_TASKMODAL | MB_SETFOREGROUND);

  00285	68 00 20 01 00	 push	 73728			; 00012000H
  0028a	68 00 00 00 00	 push	 OFFSET $SG4294964363
  0028f	68 00 00 00 00	 push	 OFFSET $SG4294964362
  00294	6a 00		 push	 0
  00296	ff 15 00 00 00
	00		 call	 DWORD PTR __imp__MessageBoxA@16

; 73   : 		return;

  0029c	c6 45 fc 05	 mov	 BYTE PTR __$EHRec$[ebp+8], 5
  002a0	8d 4d ac	 lea	 ecx, DWORD PTR _sNew2$[ebp]
  002a3	ff 15 00 00 00
	00		 call	 DWORD PTR __imp_??1?$CStringT@DV?$StrTraitMFC_DLL@DV?$ChTraitsCRT@D@ATL@@@@@ATL@@QAE@XZ
  002a9	c6 45 fc 04	 mov	 BYTE PTR __$EHRec$[ebp+8], 4
  002ad	8d 4d b4	 lea	 ecx, DWORD PTR _sNew$[ebp]
  002b0	ff 15 00 00 00
	00		 call	 DWORD PTR __imp_??1?$CStringT@DV?$StrTraitMFC_DLL@DV?$ChTraitsCRT@D@ATL@@@@@ATL@@QAE@XZ
  002b6	c6 45 fc 03	 mov	 BYTE PTR __$EHRec$[ebp+8], 3
  002ba	8d 4d b0	 lea	 ecx, DWORD PTR _sOld$[ebp]
  002bd	ff 15 00 00 00
	00		 call	 DWORD PTR __imp_??1?$CStringT@DV?$StrTraitMFC_DLL@DV?$ChTraitsCRT@D@ATL@@@@@ATL@@QAE@XZ
  002c3	c6 45 fc 02	 mov	 BYTE PTR __$EHRec$[ebp+8], 2
  002c7	8d 4d a4	 lea	 ecx, DWORD PTR _sOldPSW$[ebp]
  002ca	ff 15 00 00 00
	00		 call	 DWORD PTR __imp_??1?$CStringT@DV?$StrTraitMFC_DLL@DV?$ChTraitsCRT@D@ATL@@@@@ATL@@QAE@XZ
  002d0	c6 45 fc 00	 mov	 BYTE PTR __$EHRec$[ebp+8], 0
  002d4	8d 4d a8	 lea	 ecx, DWORD PTR _ConfigPath$[ebp]
  002d7	ff 15 00 00 00
	00		 call	 DWORD PTR __imp_??1?$CStringT@DV?$StrTraitMFC_DLL@DV?$ChTraitsCRT@D@ATL@@@@@ATL@@QAE@XZ
  002dd	c7 45 fc ff ff
	ff ff		 mov	 DWORD PTR __$EHRec$[ebp+8], -1
  002e4	8d 4d b8	 lea	 ecx, DWORD PTR _sPath$[ebp]
  002e7	ff 15 00 00 00
	00		 call	 DWORD PTR __imp_??1?$CStringT@DV?$StrTraitMFC_DLL@DV?$ChTraitsCRT@D@ATL@@@@@ATL@@QAE@XZ
  002ed	e9 13 02 00 00	 jmp	 $LN8@OnBnClicke
$LN5@OnBnClicke:

; 74   : 	}
; 75   : 	if (sOld == sNew)

  002f2	8d 4d b4	 lea	 ecx, DWORD PTR _sNew$[ebp]
  002f5	51		 push	 ecx
  002f6	8d 55 b0	 lea	 edx, DWORD PTR _sOld$[ebp]
  002f9	52		 push	 edx
  002fa	e8 00 00 00 00	 call	 ??8ATL@@YA_NABV?$CStringT@DV?$StrTraitMFC_DLL@DV?$ChTraitsCRT@D@ATL@@@@@0@0@Z ; ATL::operator==
  002ff	83 c4 08	 add	 esp, 8
  00302	0f b6 c0	 movzx	 eax, al
  00305	85 c0		 test	 eax, eax
  00307	74 6d		 je	 SHORT $LN4@OnBnClicke

; 76   : 	{
; 77   : 		::MessageBox(NULL, "", "", MB_OK | MB_TASKMODAL | MB_SETFOREGROUND);

  00309	68 00 20 01 00	 push	 73728			; 00012000H
  0030e	68 00 00 00 00	 push	 OFFSET $SG4294964361
  00313	68 00 00 00 00	 push	 OFFSET $SG4294964360
  00318	6a 00		 push	 0
  0031a	ff 15 00 00 00
	00		 call	 DWORD PTR __imp__MessageBoxA@16

; 78   : 		return;

  00320	c6 45 fc 05	 mov	 BYTE PTR __$EHRec$[ebp+8], 5
  00324	8d 4d ac	 lea	 ecx, DWORD PTR _sNew2$[ebp]
  00327	ff 15 00 00 00
	00		 call	 DWORD PTR __imp_??1?$CStringT@DV?$StrTraitMFC_DLL@DV?$ChTraitsCRT@D@ATL@@@@@ATL@@QAE@XZ
  0032d	c6 45 fc 04	 mov	 BYTE PTR __$EHRec$[ebp+8], 4
  00331	8d 4d b4	 lea	 ecx, DWORD PTR _sNew$[ebp]
  00334	ff 15 00 00 00
	00		 call	 DWORD PTR __imp_??1?$CStringT@DV?$StrTraitMFC_DLL@DV?$ChTraitsCRT@D@ATL@@@@@ATL@@QAE@XZ
  0033a	c6 45 fc 03	 mov	 BYTE PTR __$EHRec$[ebp+8], 3
  0033e	8d 4d b0	 lea	 ecx, DWORD PTR _sOld$[ebp]
  00341	ff 15 00 00 00
	00		 call	 DWORD PTR __imp_??1?$CStringT@DV?$StrTraitMFC_DLL@DV?$ChTraitsCRT@D@ATL@@@@@ATL@@QAE@XZ
  00347	c6 45 fc 02	 mov	 BYTE PTR __$EHRec$[ebp+8], 2
  0034b	8d 4d a4	 lea	 ecx, DWORD PTR _sOldPSW$[ebp]
  0034e	ff 15 00 00 00
	00		 call	 DWORD PTR __imp_??1?$CStringT@DV?$StrTraitMFC_DLL@DV?$ChTraitsCRT@D@ATL@@@@@ATL@@QAE@XZ
  00354	c6 45 fc 00	 mov	 BYTE PTR __$EHRec$[ebp+8], 0
  00358	8d 4d a8	 lea	 ecx, DWORD PTR _ConfigPath$[ebp]
  0035b	ff 15 00 00 00
	00		 call	 DWORD PTR __imp_??1?$CStringT@DV?$StrTraitMFC_DLL@DV?$ChTraitsCRT@D@ATL@@@@@ATL@@QAE@XZ
  00361	c7 45 fc ff ff
	ff ff		 mov	 DWORD PTR __$EHRec$[ebp+8], -1
  00368	8d 4d b8	 lea	 ecx, DWORD PTR _sPath$[ebp]
  0036b	ff 15 00 00 00
	00		 call	 DWORD PTR __imp_??1?$CStringT@DV?$StrTraitMFC_DLL@DV?$ChTraitsCRT@D@ATL@@@@@ATL@@QAE@XZ
  00371	e9 8f 01 00 00	 jmp	 $LN8@OnBnClicke
$LN4@OnBnClicke:

; 79   : 	}
; 80   : 	//
; 81   : 	char* pNewPSW = sNew.GetBuffer(0);

  00376	6a 00		 push	 0
  00378	8d 4d b4	 lea	 ecx, DWORD PTR _sNew$[ebp]
  0037b	ff 15 00 00 00
	00		 call	 DWORD PTR __imp_?GetBuffer@?$CSimpleStringT@D$00@ATL@@QAEPADH@Z
  00381	89 45 94	 mov	 DWORD PTR _pNewPSW$[ebp], eax

; 82   : 	if (noAnorD(pNewPSW))

  00384	8b 4d 94	 mov	 ecx, DWORD PTR _pNewPSW$[ebp]
  00387	51		 push	 ecx
  00388	8b 4d a0	 mov	 ecx, DWORD PTR _this$[ebp]
  0038b	e8 00 00 00 00	 call	 ?noAnorD@CSetPSW@@QAE_NPBD@Z ; CSetPSW::noAnorD
  00390	0f b6 d0	 movzx	 edx, al
  00393	85 d2		 test	 edx, edx
  00395	74 6d		 je	 SHORT $LN3@OnBnClicke

; 83   : 	{
; 84   : 		::MessageBox(NULL, "", "", MB_OK | MB_TASKMODAL | MB_SETFOREGROUND);

  00397	68 00 20 01 00	 push	 73728			; 00012000H
  0039c	68 00 00 00 00	 push	 OFFSET $SG4294964359
  003a1	68 00 00 00 00	 push	 OFFSET $SG4294964358
  003a6	6a 00		 push	 0
  003a8	ff 15 00 00 00
	00		 call	 DWORD PTR __imp__MessageBoxA@16

; 85   : 		return;

  003ae	c6 45 fc 05	 mov	 BYTE PTR __$EHRec$[ebp+8], 5
  003b2	8d 4d ac	 lea	 ecx, DWORD PTR _sNew2$[ebp]
  003b5	ff 15 00 00 00
	00		 call	 DWORD PTR __imp_??1?$CStringT@DV?$StrTraitMFC_DLL@DV?$ChTraitsCRT@D@ATL@@@@@ATL@@QAE@XZ
  003bb	c6 45 fc 04	 mov	 BYTE PTR __$EHRec$[ebp+8], 4
  003bf	8d 4d b4	 lea	 ecx, DWORD PTR _sNew$[ebp]
  003c2	ff 15 00 00 00
	00		 call	 DWORD PTR __imp_??1?$CStringT@DV?$StrTraitMFC_DLL@DV?$ChTraitsCRT@D@ATL@@@@@ATL@@QAE@XZ
  003c8	c6 45 fc 03	 mov	 BYTE PTR __$EHRec$[ebp+8], 3
  003cc	8d 4d b0	 lea	 ecx, DWORD PTR _sOld$[ebp]
  003cf	ff 15 00 00 00
	00		 call	 DWORD PTR __imp_??1?$CStringT@DV?$StrTraitMFC_DLL@DV?$ChTraitsCRT@D@ATL@@@@@ATL@@QAE@XZ
  003d5	c6 45 fc 02	 mov	 BYTE PTR __$EHRec$[ebp+8], 2
  003d9	8d 4d a4	 lea	 ecx, DWORD PTR _sOldPSW$[ebp]
  003dc	ff 15 00 00 00
	00		 call	 DWORD PTR __imp_??1?$CStringT@DV?$StrTraitMFC_DLL@DV?$ChTraitsCRT@D@ATL@@@@@ATL@@QAE@XZ
  003e2	c6 45 fc 00	 mov	 BYTE PTR __$EHRec$[ebp+8], 0
  003e6	8d 4d a8	 lea	 ecx, DWORD PTR _ConfigPath$[ebp]
  003e9	ff 15 00 00 00
	00		 call	 DWORD PTR __imp_??1?$CStringT@DV?$StrTraitMFC_DLL@DV?$ChTraitsCRT@D@ATL@@@@@ATL@@QAE@XZ
  003ef	c7 45 fc ff ff
	ff ff		 mov	 DWORD PTR __$EHRec$[ebp+8], -1
  003f6	8d 4d b8	 lea	 ecx, DWORD PTR _sPath$[ebp]
  003f9	ff 15 00 00 00
	00		 call	 DWORD PTR __imp_??1?$CStringT@DV?$StrTraitMFC_DLL@DV?$ChTraitsCRT@D@ATL@@@@@ATL@@QAE@XZ
  003ff	e9 01 01 00 00	 jmp	 $LN8@OnBnClicke
$LN3@OnBnClicke:

; 86   : 	}
; 87   : 
; 88   : 	if (sNew2 == sNew)

  00404	8d 45 b4	 lea	 eax, DWORD PTR _sNew$[ebp]
  00407	50		 push	 eax
  00408	8d 4d ac	 lea	 ecx, DWORD PTR _sNew2$[ebp]
  0040b	51		 push	 ecx
  0040c	e8 00 00 00 00	 call	 ??8ATL@@YA_NABV?$CStringT@DV?$StrTraitMFC_DLL@DV?$ChTraitsCRT@D@ATL@@@@@0@0@Z ; ATL::operator==
  00411	83 c4 08	 add	 esp, 8
  00414	0f b6 d0	 movzx	 edx, al
  00417	85 d2		 test	 edx, edx
  00419	74 26		 je	 SHORT $LN2@OnBnClicke

; 89   : 	{
; 90   : 		WritePrivateProfileString("LOGIN", "PASSWORD", sNew, ConfigPath);

  0041b	8d 4d a8	 lea	 ecx, DWORD PTR _ConfigPath$[ebp]
  0041e	ff 15 00 00 00
	00		 call	 DWORD PTR __imp_??B?$CSimpleStringT@D$00@ATL@@QBEPBDXZ
  00424	50		 push	 eax
  00425	8d 4d b4	 lea	 ecx, DWORD PTR _sNew$[ebp]
  00428	ff 15 00 00 00
	00		 call	 DWORD PTR __imp_??B?$CSimpleStringT@D$00@ATL@@QBEPBDXZ
  0042e	50		 push	 eax
  0042f	68 00 00 00 00	 push	 OFFSET $SG4294964357
  00434	68 00 00 00 00	 push	 OFFSET $SG4294964356
  00439	ff 15 00 00 00
	00		 call	 DWORD PTR __imp__WritePrivateProfileStringA@16

; 91   : 	}
; 92   : 	else

  0043f	eb 6a		 jmp	 SHORT $LN1@OnBnClicke
$LN2@OnBnClicke:

; 93   : 	{
; 94   : 		::MessageBox(NULL, "", "", MB_OK | MB_TASKMODAL | MB_SETFOREGROUND);

  00441	68 00 20 01 00	 push	 73728			; 00012000H
  00446	68 00 00 00 00	 push	 OFFSET $SG4294964355
  0044b	68 00 00 00 00	 push	 OFFSET $SG4294964354
  00450	6a 00		 push	 0
  00452	ff 15 00 00 00
	00		 call	 DWORD PTR __imp__MessageBoxA@16

; 95   : 		return;

  00458	c6 45 fc 05	 mov	 BYTE PTR __$EHRec$[ebp+8], 5
  0045c	8d 4d ac	 lea	 ecx, DWORD PTR _sNew2$[ebp]
  0045f	ff 15 00 00 00
	00		 call	 DWORD PTR __imp_??1?$CStringT@DV?$StrTraitMFC_DLL@DV?$ChTraitsCRT@D@ATL@@@@@ATL@@QAE@XZ
  00465	c6 45 fc 04	 mov	 BYTE PTR __$EHRec$[ebp+8], 4
  00469	8d 4d b4	 lea	 ecx, DWORD PTR _sNew$[ebp]
  0046c	ff 15 00 00 00
	00		 call	 DWORD PTR __imp_??1?$CStringT@DV?$StrTraitMFC_DLL@DV?$ChTraitsCRT@D@ATL@@@@@ATL@@QAE@XZ
  00472	c6 45 fc 03	 mov	 BYTE PTR __$EHRec$[ebp+8], 3
  00476	8d 4d b0	 lea	 ecx, DWORD PTR _sOld$[ebp]
  00479	ff 15 00 00 00
	00		 call	 DWORD PTR __imp_??1?$CStringT@DV?$StrTraitMFC_DLL@DV?$ChTraitsCRT@D@ATL@@@@@ATL@@QAE@XZ
  0047f	c6 45 fc 02	 mov	 BYTE PTR __$EHRec$[ebp+8], 2
  00483	8d 4d a4	 lea	 ecx, DWORD PTR _sOldPSW$[ebp]
  00486	ff 15 00 00 00
	00		 call	 DWORD PTR __imp_??1?$CStringT@DV?$StrTraitMFC_DLL@DV?$ChTraitsCRT@D@ATL@@@@@ATL@@QAE@XZ
  0048c	c6 45 fc 00	 mov	 BYTE PTR __$EHRec$[ebp+8], 0
  00490	8d 4d a8	 lea	 ecx, DWORD PTR _ConfigPath$[ebp]
  00493	ff 15 00 00 00
	00		 call	 DWORD PTR __imp_??1?$CStringT@DV?$StrTraitMFC_DLL@DV?$ChTraitsCRT@D@ATL@@@@@ATL@@QAE@XZ
  00499	c7 45 fc ff ff
	ff ff		 mov	 DWORD PTR __$EHRec$[ebp+8], -1
  004a0	8d 4d b8	 lea	 ecx, DWORD PTR _sPath$[ebp]
  004a3	ff 15 00 00 00
	00		 call	 DWORD PTR __imp_??1?$CStringT@DV?$StrTraitMFC_DLL@DV?$ChTraitsCRT@D@ATL@@@@@ATL@@QAE@XZ
  004a9	eb 5a		 jmp	 SHORT $LN8@OnBnClicke
$LN1@OnBnClicke:

; 96   : 	}
; 97   : 	CDialogEx::OnOK();

  004ab	8b 4d a0	 mov	 ecx, DWORD PTR _this$[ebp]
  004ae	ff 15 00 00 00
	00		 call	 DWORD PTR __imp_?OnOK@CDialog@@MAEXXZ

; 98   : }

  004b4	c6 45 fc 05	 mov	 BYTE PTR __$EHRec$[ebp+8], 5
  004b8	8d 4d ac	 lea	 ecx, DWORD PTR _sNew2$[ebp]
  004bb	ff 15 00 00 00
	00		 call	 DWORD PTR __imp_??1?$CStringT@DV?$StrTraitMFC_DLL@DV?$ChTraitsCRT@D@ATL@@@@@ATL@@QAE@XZ
  004c1	c6 45 fc 04	 mov	 BYTE PTR __$EHRec$[ebp+8], 4
  004c5	8d 4d b4	 lea	 ecx, DWORD PTR _sNew$[ebp]
  004c8	ff 15 00 00 00
	00		 call	 DWORD PTR __imp_??1?$CStringT@DV?$StrTraitMFC_DLL@DV?$ChTraitsCRT@D@ATL@@@@@ATL@@QAE@XZ
  004ce	c6 45 fc 03	 mov	 BYTE PTR __$EHRec$[ebp+8], 3
  004d2	8d 4d b0	 lea	 ecx, DWORD PTR _sOld$[ebp]
  004d5	ff 15 00 00 00
	00		 call	 DWORD PTR __imp_??1?$CStringT@DV?$StrTraitMFC_DLL@DV?$ChTraitsCRT@D@ATL@@@@@ATL@@QAE@XZ
  004db	c6 45 fc 02	 mov	 BYTE PTR __$EHRec$[ebp+8], 2
  004df	8d 4d a4	 lea	 ecx, DWORD PTR _sOldPSW$[ebp]
  004e2	ff 15 00 00 00
	00		 call	 DWORD PTR __imp_??1?$CStringT@DV?$StrTraitMFC_DLL@DV?$ChTraitsCRT@D@ATL@@@@@ATL@@QAE@XZ
  004e8	c6 45 fc 00	 mov	 BYTE PTR __$EHRec$[ebp+8], 0
  004ec	8d 4d a8	 lea	 ecx, DWORD PTR _ConfigPath$[ebp]
  004ef	ff 15 00 00 00
	00		 call	 DWORD PTR __imp_??1?$CStringT@DV?$StrTraitMFC_DLL@DV?$ChTraitsCRT@D@ATL@@@@@ATL@@QAE@XZ
  004f5	c7 45 fc ff ff
	ff ff		 mov	 DWORD PTR __$EHRec$[ebp+8], -1
  004fc	8d 4d b8	 lea	 ecx, DWORD PTR _sPath$[ebp]
  004ff	ff 15 00 00 00
	00		 call	 DWORD PTR __imp_??1?$CStringT@DV?$StrTraitMFC_DLL@DV?$ChTraitsCRT@D@ATL@@@@@ATL@@QAE@XZ
$LN8@OnBnClicke:
  00505	8b 4d f4	 mov	 ecx, DWORD PTR __$EHRec$[ebp]
  00508	64 89 0d 00 00
	00 00		 mov	 DWORD PTR fs:0, ecx
  0050f	59		 pop	 ecx
  00510	8b 4d f0	 mov	 ecx, DWORD PTR __$ArrayPad$[ebp]
  00513	33 cd		 xor	 ecx, ebp
  00515	e8 00 00 00 00	 call	 @__security_check_cookie@4
  0051a	8b e5		 mov	 esp, ebp
  0051c	5d		 pop	 ebp
  0051d	c3		 ret	 0
_TEXT	ENDS
;	COMDAT text$x
text$x	SEGMENT
__unwindfunclet$?OnBnClickedOk@CSetPSW@@QAEXXZ$0:
  00000	8d 4d b8	 lea	 ecx, DWORD PTR _sPath$[ebp]
  00003	ff 25 00 00 00
	00		 jmp	 DWORD PTR __imp_??1?$CStringT@DV?$StrTraitMFC_DLL@DV?$ChTraitsCRT@D@ATL@@@@@ATL@@QAE@XZ
__unwindfunclet$?OnBnClickedOk@CSetPSW@@QAEXXZ$1:
  00009	8d 4d 9c	 lea	 ecx, DWORD PTR $T2[ebp]
  0000c	ff 25 00 00 00
	00		 jmp	 DWORD PTR __imp_??1?$CStringT@DV?$StrTraitMFC_DLL@DV?$ChTraitsCRT@D@ATL@@@@@ATL@@QAE@XZ
__unwindfunclet$?OnBnClickedOk@CSetPSW@@QAEXXZ$2:
  00012	8d 4d a8	 lea	 ecx, DWORD PTR _ConfigPath$[ebp]
  00015	ff 25 00 00 00
	00		 jmp	 DWORD PTR __imp_??1?$CStringT@DV?$StrTraitMFC_DLL@DV?$ChTraitsCRT@D@ATL@@@@@ATL@@QAE@XZ
__unwindfunclet$?OnBnClickedOk@CSetPSW@@QAEXXZ$3:
  0001b	8d 4d a4	 lea	 ecx, DWORD PTR _sOldPSW$[ebp]
  0001e	ff 25 00 00 00
	00		 jmp	 DWORD PTR __imp_??1?$CStringT@DV?$StrTraitMFC_DLL@DV?$ChTraitsCRT@D@ATL@@@@@ATL@@QAE@XZ
__unwindfunclet$?OnBnClickedOk@CSetPSW@@QAEXXZ$4:
  00024	8d 4d b0	 lea	 ecx, DWORD PTR _sOld$[ebp]
  00027	ff 25 00 00 00
	00		 jmp	 DWORD PTR __imp_??1?$CStringT@DV?$StrTraitMFC_DLL@DV?$ChTraitsCRT@D@ATL@@@@@ATL@@QAE@XZ
__unwindfunclet$?OnBnClickedOk@CSetPSW@@QAEXXZ$5:
  0002d	8d 4d b4	 lea	 ecx, DWORD PTR _sNew$[ebp]
  00030	ff 25 00 00 00
	00		 jmp	 DWORD PTR __imp_??1?$CStringT@DV?$StrTraitMFC_DLL@DV?$ChTraitsCRT@D@ATL@@@@@ATL@@QAE@XZ
__unwindfunclet$?OnBnClickedOk@CSetPSW@@QAEXXZ$6:
  00036	8d 4d ac	 lea	 ecx, DWORD PTR _sNew2$[ebp]
  00039	ff 25 00 00 00
	00		 jmp	 DWORD PTR __imp_??1?$CStringT@DV?$StrTraitMFC_DLL@DV?$ChTraitsCRT@D@ATL@@@@@ATL@@QAE@XZ
__ehhandler$?OnBnClickedOk@CSetPSW@@QAEXXZ:
  0003f	8b 54 24 08	 mov	 edx, DWORD PTR [esp+8]
  00043	8d 42 0c	 lea	 eax, DWORD PTR [edx+12]
  00046	8b 4a 94	 mov	 ecx, DWORD PTR [edx-108]
  00049	33 c8		 xor	 ecx, eax
  0004b	e8 00 00 00 00	 call	 @__security_check_cookie@4
  00050	8b 4a fc	 mov	 ecx, DWORD PTR [edx-4]
  00053	33 c8		 xor	 ecx, eax
  00055	e8 00 00 00 00	 call	 @__security_check_cookie@4
  0005a	b8 00 00 00 00	 mov	 eax, OFFSET __ehfuncinfo$?OnBnClickedOk@CSetPSW@@QAEXXZ
  0005f	e9 00 00 00 00	 jmp	 ___CxxFrameHandler3
text$x	ENDS
?OnBnClickedOk@CSetPSW@@QAEXXZ ENDP			; CSetPSW::OnBnClickedOk
; Function compile flags: /Odtp
; File e:\work_wm\hxijy_code\endoscopemfc2012_menu_changepara_youhua_savepic_usb_1114_twothread_svepic_save5\src\endoscopemfc\csetpsw.cpp
;	COMDAT ?noAnorD@CSetPSW@@QAE_NPBD@Z
_TEXT	SEGMENT
_r$ = -8						; size = 4
_this$ = -4						; size = 4
_s$ = 8							; size = 4
?noAnorD@CSetPSW@@QAE_NPBD@Z PROC			; CSetPSW::noAnorD, COMDAT
; _this$ = ecx

; 100  : {

  00000	55		 push	 ebp
  00001	8b ec		 mov	 ebp, esp
  00003	83 ec 08	 sub	 esp, 8
  00006	56		 push	 esi
  00007	89 4d fc	 mov	 DWORD PTR _this$[ebp], ecx

; 101  : 	// TODO: .
; 102  : 	int r;
; 103  : 	r = 0;

  0000a	c7 45 f8 00 00
	00 00		 mov	 DWORD PTR _r$[ebp], 0
$LN4@noAnorD:

; 104  : 	while(1)

  00011	b8 01 00 00 00	 mov	 eax, 1
  00016	85 c0		 test	 eax, eax
  00018	74 41		 je	 SHORT $LN3@noAnorD

; 105  : 	{
; 106  : 		if (*s == 0) break;

  0001a	8b 4d 08	 mov	 ecx, DWORD PTR _s$[ebp]
  0001d	0f be 11	 movsx	 edx, BYTE PTR [ecx]
  00020	85 d2		 test	 edx, edx
  00022	75 02		 jne	 SHORT $LN2@noAnorD
  00024	eb 35		 jmp	 SHORT $LN3@noAnorD
$LN2@noAnorD:

; 107  : 		if (!(isalpha(*s) | isdigit(*s)))//

  00026	8b 45 08	 mov	 eax, DWORD PTR _s$[ebp]
  00029	0f be 08	 movsx	 ecx, BYTE PTR [eax]
  0002c	51		 push	 ecx
  0002d	ff 15 00 00 00
	00		 call	 DWORD PTR __imp__isalpha
  00033	83 c4 04	 add	 esp, 4
  00036	8b f0		 mov	 esi, eax
  00038	8b 55 08	 mov	 edx, DWORD PTR _s$[ebp]
  0003b	0f be 02	 movsx	 eax, BYTE PTR [edx]
  0003e	50		 push	 eax
  0003f	ff 15 00 00 00
	00		 call	 DWORD PTR __imp__isdigit
  00045	83 c4 04	 add	 esp, 4
  00048	0b f0		 or	 esi, eax
  0004a	75 04		 jne	 SHORT $LN1@noAnorD

; 108  : 			return true;

  0004c	b0 01		 mov	 al, 1
  0004e	eb 0d		 jmp	 SHORT $LN5@noAnorD
$LN1@noAnorD:

; 109  : 		s++;

  00050	8b 4d 08	 mov	 ecx, DWORD PTR _s$[ebp]
  00053	83 c1 01	 add	 ecx, 1
  00056	89 4d 08	 mov	 DWORD PTR _s$[ebp], ecx

; 110  : 	}

  00059	eb b6		 jmp	 SHORT $LN4@noAnorD
$LN3@noAnorD:

; 111  : 	return false;

  0005b	32 c0		 xor	 al, al
$LN5@noAnorD:

; 112  : }

  0005d	5e		 pop	 esi
  0005e	8b e5		 mov	 esp, ebp
  00060	5d		 pop	 ebp
  00061	c2 04 00	 ret	 4
?noAnorD@CSetPSW@@QAE_NPBD@Z ENDP			; CSetPSW::noAnorD
_TEXT	ENDS
; Function compile flags: /Odtp
; File d:\program files\microsoft visual studio 11.0\vc\atlmfc\include\cstringt.h
;	COMDAT ??8ATL@@YA_NPBDABV?$CStringT@DV?$StrTraitMFC_DLL@DV?$ChTraitsCRT@D@ATL@@@@@0@@Z
_TEXT	SEGMENT
tv68 = -4						; size = 4
_psz1$ = 8						; size = 4
_str2$ = 12						; size = 4
??8ATL@@YA_NPBDABV?$CStringT@DV?$StrTraitMFC_DLL@DV?$ChTraitsCRT@D@ATL@@@@@0@@Z PROC ; ATL::operator==, COMDAT

; 2432 : 	{

  00000	55		 push	 ebp
  00001	8b ec		 mov	 ebp, esp
  00003	51		 push	 ecx

; 2433 : 		return( str2.Compare( psz1 ) == 0 );

  00004	8b 45 08	 mov	 eax, DWORD PTR _psz1$[ebp]
  00007	50		 push	 eax
  00008	8b 4d 0c	 mov	 ecx, DWORD PTR _str2$[ebp]
  0000b	ff 15 00 00 00
	00		 call	 DWORD PTR __imp_?Compare@?$CStringT@DV?$StrTraitMFC_DLL@DV?$ChTraitsCRT@D@ATL@@@@@ATL@@QBEHPBD@Z
  00011	85 c0		 test	 eax, eax
  00013	75 09		 jne	 SHORT $LN3@operator
  00015	c7 45 fc 01 00
	00 00		 mov	 DWORD PTR tv68[ebp], 1
  0001c	eb 07		 jmp	 SHORT $LN4@operator
$LN3@operator:
  0001e	c7 45 fc 00 00
	00 00		 mov	 DWORD PTR tv68[ebp], 0
$LN4@operator:
  00025	8a 45 fc	 mov	 al, BYTE PTR tv68[ebp]

; 2434 : 	}

  00028	8b e5		 mov	 esp, ebp
  0002a	5d		 pop	 ebp
  0002b	c3		 ret	 0
??8ATL@@YA_NPBDABV?$CStringT@DV?$StrTraitMFC_DLL@DV?$ChTraitsCRT@D@ATL@@@@@0@@Z ENDP ; ATL::operator==
_TEXT	ENDS
; Function compile flags: /Odtp
; File d:\program files\microsoft visual studio 11.0\vc\atlmfc\include\cstringt.h
;	COMDAT ??9ATL@@YA_NABV?$CStringT@DV?$StrTraitMFC_DLL@DV?$ChTraitsCRT@D@ATL@@@@@0@0@Z
_TEXT	SEGMENT
tv74 = -4						; size = 4
_str1$ = 8						; size = 4
_str2$ = 12						; size = 4
??9ATL@@YA_NABV?$CStringT@DV?$StrTraitMFC_DLL@DV?$ChTraitsCRT@D@ATL@@@@@0@0@Z PROC ; ATL::operator!=, COMDAT

; 2459 : 	{

  00000	55		 push	 ebp
  00001	8b ec		 mov	 ebp, esp
  00003	51		 push	 ecx

; 2460 : 		return( str1.Compare( str2 ) != 0 );

  00004	8b 4d 0c	 mov	 ecx, DWORD PTR _str2$[ebp]
  00007	ff 15 00 00 00
	00		 call	 DWORD PTR __imp_??B?$CSimpleStringT@D$00@ATL@@QBEPBDXZ
  0000d	50		 push	 eax
  0000e	8b 4d 08	 mov	 ecx, DWORD PTR _str1$[ebp]
  00011	ff 15 00 00 00
	00		 call	 DWORD PTR __imp_?Compare@?$CStringT@DV?$StrTraitMFC_DLL@DV?$ChTraitsCRT@D@ATL@@@@@ATL@@QBEHPBD@Z
  00017	85 c0		 test	 eax, eax
  00019	74 09		 je	 SHORT $LN3@operator
  0001b	c7 45 fc 01 00
	00 00		 mov	 DWORD PTR tv74[ebp], 1
  00022	eb 07		 jmp	 SHORT $LN4@operator
$LN3@operator:
  00024	c7 45 fc 00 00
	00 00		 mov	 DWORD PTR tv74[ebp], 0
$LN4@operator:
  0002b	8a 45 fc	 mov	 al, BYTE PTR tv74[ebp]

; 2461 : 	}

  0002e	8b e5		 mov	 esp, ebp
  00030	5d		 pop	 ebp
  00031	c3		 ret	 0
??9ATL@@YA_NABV?$CStringT@DV?$StrTraitMFC_DLL@DV?$ChTraitsCRT@D@ATL@@@@@0@0@Z ENDP ; ATL::operator!=
_TEXT	ENDS
; Function compile flags: /Odtp
; File d:\program files\microsoft visual studio 11.0\vc\atlmfc\include\afxwin2.inl
;	COMDAT ?Create@CDialog@@UAEHIPAVCWnd@@@Z
_TEXT	SEGMENT
_this$ = -4						; size = 4
_nIDTemplate$ = 8					; size = 4
_pParentWnd$ = 12					; size = 4
?Create@CDialog@@UAEHIPAVCWnd@@@Z PROC			; CDialog::Create, COMDAT
; _this$ = ecx

; 673  : 	{ return CDialog::Create(ATL_MAKEINTRESOURCE(nIDTemplate), pParentWnd); }

  00000	55		 push	 ebp
  00001	8b ec		 mov	 ebp, esp
  00003	51		 push	 ecx
  00004	89 4d fc	 mov	 DWORD PTR _this$[ebp], ecx
  00007	8b 45 0c	 mov	 eax, DWORD PTR _pParentWnd$[ebp]
  0000a	50		 push	 eax
  0000b	0f b7 4d 08	 movzx	 ecx, WORD PTR _nIDTemplate$[ebp]
  0000f	51		 push	 ecx
  00010	8b 4d fc	 mov	 ecx, DWORD PTR _this$[ebp]
  00013	ff 15 00 00 00
	00		 call	 DWORD PTR __imp_?Create@CDialog@@UAEHPBDPAVCWnd@@@Z
  00019	8b e5		 mov	 esp, ebp
  0001b	5d		 pop	 ebp
  0001c	c2 08 00	 ret	 8
?Create@CDialog@@UAEHIPAVCWnd@@@Z ENDP			; CDialog::Create
_TEXT	ENDS
; Function compile flags: /Odtp
; File d:\program files\microsoft visual studio 11.0\vc\atlmfc\include\afxwin2.inl
;	COMDAT ?EndModalState@CWnd@@UAEXXZ
_TEXT	SEGMENT
_this$ = -4						; size = 4
?EndModalState@CWnd@@UAEXXZ PROC			; CWnd::EndModalState, COMDAT
; _this$ = ecx

; 655  : 	{ ::EnableWindow(m_hWnd, TRUE); }

  00000	55		 push	 ebp
  00001	8b ec		 mov	 ebp, esp
  00003	51		 push	 ecx
  00004	89 4d fc	 mov	 DWORD PTR _this$[ebp], ecx
  00007	6a 01		 push	 1
  00009	8b 45 fc	 mov	 eax, DWORD PTR _this$[ebp]
  0000c	8b 48 20	 mov	 ecx, DWORD PTR [eax+32]
  0000f	51		 push	 ecx
  00010	ff 15 00 00 00
	00		 call	 DWORD PTR __imp__EnableWindow@8
  00016	8b e5		 mov	 esp, ebp
  00018	5d		 pop	 ebp
  00019	c3		 ret	 0
?EndModalState@CWnd@@UAEXXZ ENDP			; CWnd::EndModalState
_TEXT	ENDS
; Function compile flags: /Odtp
; File d:\program files\microsoft visual studio 11.0\vc\atlmfc\include\afxwin2.inl
;	COMDAT ?BeginModalState@CWnd@@UAEXXZ
_TEXT	SEGMENT
_this$ = -4						; size = 4
?BeginModalState@CWnd@@UAEXXZ PROC			; CWnd::BeginModalState, COMDAT
; _this$ = ecx

; 653  : 	{ ::EnableWindow(m_hWnd, FALSE); }

  00000	55		 push	 ebp
  00001	8b ec		 mov	 ebp, esp
  00003	51		 push	 ecx
  00004	89 4d fc	 mov	 DWORD PTR _this$[ebp], ecx
  00007	6a 00		 push	 0
  00009	8b 45 fc	 mov	 eax, DWORD PTR _this$[ebp]
  0000c	8b 48 20	 mov	 ecx, DWORD PTR [eax+32]
  0000f	51		 push	 ecx
  00010	ff 15 00 00 00
	00		 call	 DWORD PTR __imp__EnableWindow@8
  00016	8b e5		 mov	 esp, ebp
  00018	5d		 pop	 ebp
  00019	c3		 ret	 0
?BeginModalState@CWnd@@UAEXXZ ENDP			; CWnd::BeginModalState
_TEXT	ENDS
; Function compile flags: /Odtp
; File d:\program files\microsoft visual studio 11.0\vc\atlmfc\include\cstringt.h
;	COMDAT ??8ATL@@YA_NABV?$CStringT@DV?$StrTraitMFC_DLL@DV?$ChTraitsCRT@D@ATL@@@@@0@0@Z
_TEXT	SEGMENT
tv74 = -4						; size = 4
_str1$ = 8						; size = 4
_str2$ = 12						; size = 4
??8ATL@@YA_NABV?$CStringT@DV?$StrTraitMFC_DLL@DV?$ChTraitsCRT@D@ATL@@@@@0@0@Z PROC ; ATL::operator==, COMDAT

; 2418 : 	{

  00000	55		 push	 ebp
  00001	8b ec		 mov	 ebp, esp
  00003	51		 push	 ecx

; 2419 : 		return( str1.Compare( str2 ) == 0 );

  00004	8b 4d 0c	 mov	 ecx, DWORD PTR _str2$[ebp]
  00007	ff 15 00 00 00
	00		 call	 DWORD PTR __imp_??B?$CSimpleStringT@D$00@ATL@@QBEPBDXZ
  0000d	50		 push	 eax
  0000e	8b 4d 08	 mov	 ecx, DWORD PTR _str1$[ebp]
  00011	ff 15 00 00 00
	00		 call	 DWORD PTR __imp_?Compare@?$CStringT@DV?$StrTraitMFC_DLL@DV?$ChTraitsCRT@D@ATL@@@@@ATL@@QBEHPBD@Z
  00017	85 c0		 test	 eax, eax
  00019	75 09		 jne	 SHORT $LN3@operator
  0001b	c7 45 fc 01 00
	00 00		 mov	 DWORD PTR tv74[ebp], 1
  00022	eb 07		 jmp	 SHORT $LN4@operator
$LN3@operator:
  00024	c7 45 fc 00 00
	00 00		 mov	 DWORD PTR tv74[ebp], 0
$LN4@operator:
  0002b	8a 45 fc	 mov	 al, BYTE PTR tv74[ebp]

; 2420 : 	}

  0002e	8b e5		 mov	 esp, ebp
  00030	5d		 pop	 ebp
  00031	c3		 ret	 0
??8ATL@@YA_NABV?$CStringT@DV?$StrTraitMFC_DLL@DV?$ChTraitsCRT@D@ATL@@@@@0@0@Z ENDP ; ATL::operator==
_TEXT	ENDS
; Function compile flags: /Odtp
; File d:\program files\microsoft visual studio 11.0\vc\atlmfc\include\cstringt.h
;	COMDAT ??HATL@@YA?AV?$CStringT@DV?$StrTraitMFC_DLL@DV?$ChTraitsCRT@D@ATL@@@@@0@ABV10@PBD@Z
_TEXT	SEGMENT
$T2 = -24						; size = 4
_strResult$ = -20					; size = 4
__$ArrayPad$ = -16					; size = 4
__$EHRec$ = -12						; size = 12
___$ReturnUdt$ = 8					; size = 4
_str1$ = 12						; size = 4
_psz2$ = 16						; size = 4
??HATL@@YA?AV?$CStringT@DV?$StrTraitMFC_DLL@DV?$ChTraitsCRT@D@ATL@@@@@0@ABV10@PBD@Z PROC ; ATL::operator+, COMDAT

; 2340 : 	{

  00000	55		 push	 ebp
  00001	8b ec		 mov	 ebp, esp
  00003	6a ff		 push	 -1
  00005	68 00 00 00 00	 push	 __ehhandler$??HATL@@YA?AV?$CStringT@DV?$StrTraitMFC_DLL@DV?$ChTraitsCRT@D@ATL@@@@@0@ABV10@PBD@Z
  0000a	64 a1 00 00 00
	00		 mov	 eax, DWORD PTR fs:0
  00010	50		 push	 eax
  00011	83 ec 0c	 sub	 esp, 12			; 0000000cH
  00014	a1 00 00 00 00	 mov	 eax, DWORD PTR ___security_cookie
  00019	33 c5		 xor	 eax, ebp
  0001b	89 45 f0	 mov	 DWORD PTR __$ArrayPad$[ebp], eax
  0001e	50		 push	 eax
  0001f	8d 45 f4	 lea	 eax, DWORD PTR __$EHRec$[ebp]
  00022	64 a3 00 00 00
	00		 mov	 DWORD PTR fs:0, eax
  00028	c7 45 e8 00 00
	00 00		 mov	 DWORD PTR $T2[ebp], 0

; 2341 : 		CStringT strResult( str1.GetManager() );

  0002f	8b 4d 0c	 mov	 ecx, DWORD PTR _str1$[ebp]
  00032	ff 15 00 00 00
	00		 call	 DWORD PTR __imp_?GetManager@?$CStringT@DV?$StrTraitMFC_DLL@DV?$ChTraitsCRT@D@ATL@@@@@ATL@@QBEPAUIAtlStringMgr@2@XZ
  00038	50		 push	 eax
  00039	8d 4d ec	 lea	 ecx, DWORD PTR _strResult$[ebp]
  0003c	ff 15 00 00 00
	00		 call	 DWORD PTR __imp_??0?$CStringT@DV?$StrTraitMFC_DLL@DV?$ChTraitsCRT@D@ATL@@@@@ATL@@QAE@PAUIAtlStringMgr@1@@Z
  00042	c7 45 fc 00 00
	00 00		 mov	 DWORD PTR __$EHRec$[ebp+8], 0

; 2342 : 
; 2343 : 		Concatenate( strResult, str1, str1.GetLength(), psz2, StringLength( psz2 ) );

  00049	8b 45 10	 mov	 eax, DWORD PTR _psz2$[ebp]
  0004c	50		 push	 eax
  0004d	ff 15 00 00 00
	00		 call	 DWORD PTR __imp_?StringLength@?$CSimpleStringT@D$00@ATL@@SAHPBD@Z
  00053	83 c4 04	 add	 esp, 4
  00056	50		 push	 eax
  00057	8b 4d 10	 mov	 ecx, DWORD PTR _psz2$[ebp]
  0005a	51		 push	 ecx
  0005b	8b 4d 0c	 mov	 ecx, DWORD PTR _str1$[ebp]
  0005e	ff 15 00 00 00
	00		 call	 DWORD PTR __imp_?GetLength@?$CSimpleStringT@D$00@ATL@@QBEHXZ
  00064	50		 push	 eax
  00065	8b 4d 0c	 mov	 ecx, DWORD PTR _str1$[ebp]
  00068	ff 15 00 00 00
	00		 call	 DWORD PTR __imp_??B?$CSimpleStringT@D$00@ATL@@QBEPBDXZ
  0006e	50		 push	 eax
  0006f	8d 55 ec	 lea	 edx, DWORD PTR _strResult$[ebp]
  00072	52		 push	 edx
  00073	ff 15 00 00 00
	00		 call	 DWORD PTR __imp_?Concatenate@?$CSimpleStringT@D$00@ATL@@KAXAAV12@PBDH1H@Z
  00079	83 c4 14	 add	 esp, 20			; 00000014H

; 2344 : 
; 2345 : 		return( strResult );

  0007c	8d 45 ec	 lea	 eax, DWORD PTR _strResult$[ebp]
  0007f	50		 push	 eax
  00080	8b 4d 08	 mov	 ecx, DWORD PTR ___$ReturnUdt$[ebp]
  00083	ff 15 00 00 00
	00		 call	 DWORD PTR __imp_??0?$CStringT@DV?$StrTraitMFC_DLL@DV?$ChTraitsCRT@D@ATL@@@@@ATL@@QAE@ABV01@@Z
  00089	8b 4d e8	 mov	 ecx, DWORD PTR $T2[ebp]
  0008c	83 c9 01	 or	 ecx, 1
  0008f	89 4d e8	 mov	 DWORD PTR $T2[ebp], ecx
  00092	c7 45 fc ff ff
	ff ff		 mov	 DWORD PTR __$EHRec$[ebp+8], -1
  00099	8d 4d ec	 lea	 ecx, DWORD PTR _strResult$[ebp]
  0009c	ff 15 00 00 00
	00		 call	 DWORD PTR __imp_??1?$CStringT@DV?$StrTraitMFC_DLL@DV?$ChTraitsCRT@D@ATL@@@@@ATL@@QAE@XZ
  000a2	8b 45 08	 mov	 eax, DWORD PTR ___$ReturnUdt$[ebp]

; 2346 : 	}

  000a5	8b 4d f4	 mov	 ecx, DWORD PTR __$EHRec$[ebp]
  000a8	64 89 0d 00 00
	00 00		 mov	 DWORD PTR fs:0, ecx
  000af	59		 pop	 ecx
  000b0	8b 4d f0	 mov	 ecx, DWORD PTR __$ArrayPad$[ebp]
  000b3	33 cd		 xor	 ecx, ebp
  000b5	e8 00 00 00 00	 call	 @__security_check_cookie@4
  000ba	8b e5		 mov	 esp, ebp
  000bc	5d		 pop	 ebp
  000bd	c3		 ret	 0
_TEXT	ENDS
;	COMDAT text$x
text$x	SEGMENT
__unwindfunclet$??HATL@@YA?AV?$CStringT@DV?$StrTraitMFC_DLL@DV?$ChTraitsCRT@D@ATL@@@@@0@ABV10@PBD@Z$0:
  00000	8d 4d ec	 lea	 ecx, DWORD PTR _strResult$[ebp]
  00003	ff 25 00 00 00
	00		 jmp	 DWORD PTR __imp_??1?$CStringT@DV?$StrTraitMFC_DLL@DV?$ChTraitsCRT@D@ATL@@@@@ATL@@QAE@XZ
__ehhandler$??HATL@@YA?AV?$CStringT@DV?$StrTraitMFC_DLL@DV?$ChTraitsCRT@D@ATL@@@@@0@ABV10@PBD@Z:
  00009	8b 54 24 08	 mov	 edx, DWORD PTR [esp+8]
  0000d	8d 42 0c	 lea	 eax, DWORD PTR [edx+12]
  00010	8b 4a f0	 mov	 ecx, DWORD PTR [edx-16]
  00013	33 c8		 xor	 ecx, eax
  00015	e8 00 00 00 00	 call	 @__security_check_cookie@4
  0001a	8b 4a fc	 mov	 ecx, DWORD PTR [edx-4]
  0001d	33 c8		 xor	 ecx, eax
  0001f	e8 00 00 00 00	 call	 @__security_check_cookie@4
  00024	b8 00 00 00 00	 mov	 eax, OFFSET __ehfuncinfo$??HATL@@YA?AV?$CStringT@DV?$StrTraitMFC_DLL@DV?$ChTraitsCRT@D@ATL@@@@@0@ABV10@PBD@Z
  00029	e9 00 00 00 00	 jmp	 ___CxxFrameHandler3
text$x	ENDS
??HATL@@YA?AV?$CStringT@DV?$StrTraitMFC_DLL@DV?$ChTraitsCRT@D@ATL@@@@@0@ABV10@PBD@Z ENDP ; ATL::operator+
; Function compile flags: /Odtp
; File d:\program files\microsoft visual studio 11.0\vc\atlmfc\include\afxwin2.inl
;	COMDAT ?DoDataExchange@CWnd@@MAEXPAVCDataExchange@@@Z
_TEXT	SEGMENT
_this$ = -4						; size = 4
___formal$ = 8						; size = 4
?DoDataExchange@CWnd@@MAEXPAVCDataExchange@@@Z PROC	; CWnd::DoDataExchange, COMDAT
; _this$ = ecx

; 649  : 	{ } // default does nothing

  00000	55		 push	 ebp
  00001	8b ec		 mov	 ebp, esp
  00003	51		 push	 ecx
  00004	89 4d fc	 mov	 DWORD PTR _this$[ebp], ecx
  00007	8b e5		 mov	 esp, ebp
  00009	5d		 pop	 ebp
  0000a	c2 04 00	 ret	 4
?DoDataExchange@CWnd@@MAEXPAVCDataExchange@@@Z ENDP	; CWnd::DoDataExchange
_TEXT	ENDS
; Function compile flags: /Odtp
;	COMDAT ??_GCBrush@@UAEPAXI@Z
_TEXT	SEGMENT
_this$ = -4						; size = 4
___flags$ = 8						; size = 4
??_GCBrush@@UAEPAXI@Z PROC				; CBrush::`scalar deleting destructor', COMDAT
; _this$ = ecx
  00000	55		 push	 ebp
  00001	8b ec		 mov	 ebp, esp
  00003	51		 push	 ecx
  00004	89 4d fc	 mov	 DWORD PTR _this$[ebp], ecx
  00007	8b 4d fc	 mov	 ecx, DWORD PTR _this$[ebp]
  0000a	e8 00 00 00 00	 call	 ??1CBrush@@UAE@XZ	; CBrush::~CBrush
  0000f	8b 45 08	 mov	 eax, DWORD PTR ___flags$[ebp]
  00012	83 e0 01	 and	 eax, 1
  00015	74 09		 je	 SHORT $LN1@scalar
  00017	8b 4d fc	 mov	 ecx, DWORD PTR _this$[ebp]
  0001a	51		 push	 ecx
  0001b	e8 00 00 00 00	 call	 ??3CObject@@SGXPAX@Z	; CObject::operator delete
$LN1@scalar:
  00020	8b 45 fc	 mov	 eax, DWORD PTR _this$[ebp]
  00023	8b e5		 mov	 esp, ebp
  00025	5d		 pop	 ebp
  00026	c2 04 00	 ret	 4
??_GCBrush@@UAEPAXI@Z ENDP				; CBrush::`scalar deleting destructor'
_TEXT	ENDS
; Function compile flags: /Odtp
;	COMDAT ??_GCGdiObject@@UAEPAXI@Z
_TEXT	SEGMENT
_this$ = -4						; size = 4
___flags$ = 8						; size = 4
??_GCGdiObject@@UAEPAXI@Z PROC				; CGdiObject::`scalar deleting destructor', COMDAT
; _this$ = ecx
  00000	55		 push	 ebp
  00001	8b ec		 mov	 ebp, esp
  00003	51		 push	 ecx
  00004	89 4d fc	 mov	 DWORD PTR _this$[ebp], ecx
  00007	8b 4d fc	 mov	 ecx, DWORD PTR _this$[ebp]
  0000a	e8 00 00 00 00	 call	 ??1CGdiObject@@UAE@XZ	; CGdiObject::~CGdiObject
  0000f	8b 45 08	 mov	 eax, DWORD PTR ___flags$[ebp]
  00012	83 e0 01	 and	 eax, 1
  00015	74 09		 je	 SHORT $LN1@scalar
  00017	8b 4d fc	 mov	 ecx, DWORD PTR _this$[ebp]
  0001a	51		 push	 ecx
  0001b	e8 00 00 00 00	 call	 ??3CObject@@SGXPAX@Z	; CObject::operator delete
$LN1@scalar:
  00020	8b 45 fc	 mov	 eax, DWORD PTR _this$[ebp]
  00023	8b e5		 mov	 esp, ebp
  00025	5d		 pop	 ebp
  00026	c2 04 00	 ret	 4
??_GCGdiObject@@UAEPAXI@Z ENDP				; CGdiObject::`scalar deleting destructor'
_TEXT	ENDS
; Function compile flags: /Odtp
; File d:\program files\microsoft visual studio 11.0\vc\atlmfc\include\afx.inl
;	COMDAT ?Serialize@CObject@@UAEXAAVCArchive@@@Z
_TEXT	SEGMENT
_this$ = -4						; size = 4
___formal$ = 8						; size = 4
?Serialize@CObject@@UAEXAAVCArchive@@@Z PROC		; CObject::Serialize, COMDAT
; _this$ = ecx

; 96   : 	{ /* CObject does not serialize anything by default */ }

  00000	55		 push	 ebp
  00001	8b ec		 mov	 ebp, esp
  00003	51		 push	 ecx
  00004	89 4d fc	 mov	 DWORD PTR _this$[ebp], ecx
  00007	8b e5		 mov	 esp, ebp
  00009	5d		 pop	 ebp
  0000a	c2 04 00	 ret	 4
?Serialize@CObject@@UAEXAAVCArchive@@@Z ENDP		; CObject::Serialize
_TEXT	ENDS
; Function compile flags: /Odtp
; File d:\program files\microsoft visual studio 11.0\vc\atlmfc\include\afx.inl
;	COMDAT ?AssertValid@CObject@@UBEXXZ
_TEXT	SEGMENT
_this$ = -4						; size = 4
?AssertValid@CObject@@UBEXXZ PROC			; CObject::AssertValid, COMDAT
; _this$ = ecx

; 110  : 	{ /* no asserts in release builds */ }

  00000	55		 push	 ebp
  00001	8b ec		 mov	 ebp, esp
  00003	51		 push	 ecx
  00004	89 4d fc	 mov	 DWORD PTR _this$[ebp], ecx
  00007	8b e5		 mov	 esp, ebp
  00009	5d		 pop	 ebp
  0000a	c3		 ret	 0
?AssertValid@CObject@@UBEXXZ ENDP			; CObject::AssertValid
_TEXT	ENDS
; Function compile flags: /Odtp
; File d:\program files\microsoft visual studio 11.0\vc\atlmfc\include\afx.inl
;	COMDAT ?Dump@CObject@@UBEXAAVCDumpContext@@@Z
_TEXT	SEGMENT
_this$ = -4						; size = 4
___formal$ = 8						; size = 4
?Dump@CObject@@UBEXAAVCDumpContext@@@Z PROC		; CObject::Dump, COMDAT
; _this$ = ecx

; 112  : 	{ /* no dumping in release builds */ }

  00000	55		 push	 ebp
  00001	8b ec		 mov	 ebp, esp
  00003	51		 push	 ecx
  00004	89 4d fc	 mov	 DWORD PTR _this$[ebp], ecx
  00007	8b e5		 mov	 esp, ebp
  00009	5d		 pop	 ebp
  0000a	c2 04 00	 ret	 4
?Dump@CObject@@UBEXAAVCDumpContext@@@Z ENDP		; CObject::Dump
_TEXT	ENDS
; Function compile flags: /Odtp
; File d:\program files\microsoft visual studio 11.0\vc\atlmfc\include\afx.inl
;	COMDAT ??1CObject@@UAE@XZ
_TEXT	SEGMENT
_this$ = -4						; size = 4
??1CObject@@UAE@XZ PROC					; CObject::~CObject, COMDAT
; _this$ = ecx

; 94   : 	{ }

  00000	55		 push	 ebp
  00001	8b ec		 mov	 ebp, esp
  00003	51		 push	 ecx
  00004	89 4d fc	 mov	 DWORD PTR _this$[ebp], ecx
  00007	8b e5		 mov	 esp, ebp
  00009	5d		 pop	 ebp
  0000a	c3		 ret	 0
??1CObject@@UAE@XZ ENDP					; CObject::~CObject
_TEXT	ENDS
; Function compile flags: /Odtp
; File d:\program files\microsoft visual studio 11.0\vc\atlmfc\include\afxwin1.inl
;	COMDAT ??1CGdiObject@@UAE@XZ
_TEXT	SEGMENT
$T2 = -556						; size = 4
tv149 = -552						; size = 4
_pException$3 = -548					; size = 4
_this$ = -544						; size = 4
$T4 = -540						; size = 4
_strMsg$5 = -536					; size = 4
_szErrorMessage$6 = -532				; size = 512
__$ArrayPad$ = -20					; size = 4
__$EHRec$ = -16						; size = 16
??1CGdiObject@@UAE@XZ PROC				; CGdiObject::~CGdiObject, COMDAT
; _this$ = ecx

; 72   : {

  00000	55		 push	 ebp
  00001	8b ec		 mov	 ebp, esp
  00003	6a ff		 push	 -1
  00005	68 00 00 00 00	 push	 __ehhandler$??1CGdiObject@@UAE@XZ
  0000a	64 a1 00 00 00
	00		 mov	 eax, DWORD PTR fs:0
  00010	50		 push	 eax
  00011	51		 push	 ecx
  00012	81 ec 1c 02 00
	00		 sub	 esp, 540		; 0000021cH
  00018	a1 00 00 00 00	 mov	 eax, DWORD PTR ___security_cookie
  0001d	33 c5		 xor	 eax, ebp
  0001f	89 45 ec	 mov	 DWORD PTR __$ArrayPad$[ebp], eax
  00022	53		 push	 ebx
  00023	56		 push	 esi
  00024	57		 push	 edi
  00025	50		 push	 eax
  00026	8d 45 f4	 lea	 eax, DWORD PTR __$EHRec$[ebp+4]
  00029	64 a3 00 00 00
	00		 mov	 DWORD PTR fs:0, eax
  0002f	89 65 f0	 mov	 DWORD PTR __$EHRec$[ebp], esp
  00032	89 8d e0 fd ff
	ff		 mov	 DWORD PTR _this$[ebp], ecx
  00038	8b 85 e0 fd ff
	ff		 mov	 eax, DWORD PTR _this$[ebp]
  0003e	c7 00 00 00 00
	00		 mov	 DWORD PTR [eax], OFFSET ??_7CGdiObject@@6B@
  00044	c7 45 fc 00 00
	00 00		 mov	 DWORD PTR __$EHRec$[ebp+12], 0

; 73   :     AFX_BEGIN_DESTRUCTOR

  0004b	c6 45 fc 01	 mov	 BYTE PTR __$EHRec$[ebp+12], 1

; 74   : 
; 75   :         DeleteObject(); 

  0004f	8b 8d e0 fd ff
	ff		 mov	 ecx, DWORD PTR _this$[ebp]
  00055	ff 15 00 00 00
	00		 call	 DWORD PTR __imp_?DeleteObject@CGdiObject@@QAEHXZ
  0005b	e9 05 01 00 00	 jmp	 $LN14@CGdiObject
__catch$??1CGdiObject@@UAE@XZ$0:
$LN5@CGdiObject:

; 76   : 
; 77   :     AFX_END_DESTRUCTOR

  00060	8d 8d e8 fd ff
	ff		 lea	 ecx, DWORD PTR _strMsg$5[ebp]
  00066	ff 15 00 00 00
	00		 call	 DWORD PTR __imp_??0?$CStringT@DV?$StrTraitMFC_DLL@DV?$ChTraitsCRT@D@ATL@@@@@ATL@@QAE@XZ
  0006c	c6 45 fc 03	 mov	 BYTE PTR __$EHRec$[ebp+12], 3
  00070	6a 00		 push	 0
  00072	68 00 02 00 00	 push	 512			; 00000200H
  00077	8d 8d ec fd ff
	ff		 lea	 ecx, DWORD PTR _szErrorMessage$6[ebp]
  0007d	51		 push	 ecx
  0007e	8b 95 dc fd ff
	ff		 mov	 edx, DWORD PTR _pException$3[ebp]
  00084	8b 02		 mov	 eax, DWORD PTR [edx]
  00086	8b 8d dc fd ff
	ff		 mov	 ecx, DWORD PTR _pException$3[ebp]
  0008c	8b 50 14	 mov	 edx, DWORD PTR [eax+20]
  0008f	ff d2		 call	 edx
  00091	85 c0		 test	 eax, eax
  00093	74 2a		 je	 SHORT $LN2@CGdiObject
  00095	8d 85 ec fd ff
	ff		 lea	 eax, DWORD PTR _szErrorMessage$6[ebp]
  0009b	50		 push	 eax
  0009c	6a 4d		 push	 77			; 0000004dH
  0009e	68 00 00 00 00	 push	 OFFSET ??_C@_0EM@OFMLPHMI@D?3?2Program?5Files?2Microsoft?5Visua@
  000a3	68 00 00 00 00	 push	 OFFSET ??_C@_0BP@OIEOKIDM@Exception?5thrown?5in?5destructor?$AA@
  000a8	68 00 00 00 00	 push	 OFFSET ??_C@_0O@KHJMBFME@?$CFs?5?$CI?$CFs?3?$CFd?$CJ?6?$CFs?$AA@
  000ad	8d 8d e8 fd ff
	ff		 lea	 ecx, DWORD PTR _strMsg$5[ebp]
  000b3	51		 push	 ecx
  000b4	ff 15 00 00 00
	00		 call	 DWORD PTR __imp_?Format@?$CStringT@DV?$StrTraitMFC_DLL@DV?$ChTraitsCRT@D@ATL@@@@@ATL@@QAAXPBDZZ
  000ba	83 c4 18	 add	 esp, 24			; 00000018H
  000bd	eb 21		 jmp	 SHORT $LN1@CGdiObject
$LN2@CGdiObject:
  000bf	6a 4d		 push	 77			; 0000004dH
  000c1	68 00 00 00 00	 push	 OFFSET ??_C@_0EM@OFMLPHMI@D?3?2Program?5Files?2Microsoft?5Visua@
  000c6	68 00 00 00 00	 push	 OFFSET ??_C@_0BP@OIEOKIDM@Exception?5thrown?5in?5destructor?$AA@
  000cb	68 00 00 00 00	 push	 OFFSET ??_C@_0L@LBHJMCDF@?$CFs?5?$CI?$CFs?3?$CFd?$CJ?$AA@
  000d0	8d 95 e8 fd ff
	ff		 lea	 edx, DWORD PTR _strMsg$5[ebp]
  000d6	52		 push	 edx
  000d7	ff 15 00 00 00
	00		 call	 DWORD PTR __imp_?Format@?$CStringT@DV?$StrTraitMFC_DLL@DV?$ChTraitsCRT@D@ATL@@@@@ATL@@QAAXPBDZZ
  000dd	83 c4 14	 add	 esp, 20			; 00000014H
$LN1@CGdiObject:
  000e0	6a 00		 push	 0
  000e2	6a 00		 push	 0
  000e4	8d 8d e8 fd ff
	ff		 lea	 ecx, DWORD PTR _strMsg$5[ebp]
  000ea	ff 15 00 00 00
	00		 call	 DWORD PTR __imp_??B?$CSimpleStringT@D$00@ATL@@QBEPBDXZ
  000f0	50		 push	 eax
  000f1	ff 15 00 00 00
	00		 call	 DWORD PTR __imp_?AfxMessageBox@@YGHPBDII@Z
  000f7	c6 45 fc 02	 mov	 BYTE PTR __$EHRec$[ebp+12], 2
  000fb	8d 8d e8 fd ff
	ff		 lea	 ecx, DWORD PTR _strMsg$5[ebp]
  00101	ff 15 00 00 00
	00		 call	 DWORD PTR __imp_??1?$CStringT@DV?$StrTraitMFC_DLL@DV?$ChTraitsCRT@D@ATL@@@@@ATL@@QAE@XZ
  00107	33 c0		 xor	 eax, eax
  00109	0f 85 51 ff ff
	ff		 jne	 $LN5@CGdiObject
  0010f	8b 8d dc fd ff
	ff		 mov	 ecx, DWORD PTR _pException$3[ebp]
  00115	89 8d d4 fd ff
	ff		 mov	 DWORD PTR $T2[ebp], ecx
  0011b	8b 95 d4 fd ff
	ff		 mov	 edx, DWORD PTR $T2[ebp]
  00121	89 95 e4 fd ff
	ff		 mov	 DWORD PTR $T4[ebp], edx
  00127	83 bd e4 fd ff
	ff 00		 cmp	 DWORD PTR $T4[ebp], 0
  0012e	74 1d		 je	 SHORT $LN12@CGdiObject
  00130	6a 01		 push	 1
  00132	8b 85 e4 fd ff
	ff		 mov	 eax, DWORD PTR $T4[ebp]
  00138	8b 10		 mov	 edx, DWORD PTR [eax]
  0013a	8b 8d e4 fd ff
	ff		 mov	 ecx, DWORD PTR $T4[ebp]
  00140	8b 42 04	 mov	 eax, DWORD PTR [edx+4]
  00143	ff d0		 call	 eax
  00145	89 85 d8 fd ff
	ff		 mov	 DWORD PTR tv149[ebp], eax
  0014b	eb 0a		 jmp	 SHORT $LN7@CGdiObject
$LN12@CGdiObject:
  0014d	c7 85 d8 fd ff
	ff 00 00 00 00	 mov	 DWORD PTR tv149[ebp], 0
$LN7@CGdiObject:
  00157	33 c9		 xor	 ecx, ecx
  00159	0f 85 01 ff ff
	ff		 jne	 $LN5@CGdiObject
  0015f	b8 00 00 00 00	 mov	 eax, $LN19@CGdiObject
  00164	c3		 ret	 0
$LN14@CGdiObject:
  00165	c7 45 fc 00 00
	00 00		 mov	 DWORD PTR __$EHRec$[ebp+12], 0
  0016c	eb 07		 jmp	 SHORT $LN10@CGdiObject
$LN19@CGdiObject:
  0016e	c7 45 fc 00 00
	00 00		 mov	 DWORD PTR __$EHRec$[ebp+12], 0
$LN10@CGdiObject:

; 78   : }

  00175	c7 45 fc ff ff
	ff ff		 mov	 DWORD PTR __$EHRec$[ebp+12], -1
  0017c	8b 8d e0 fd ff
	ff		 mov	 ecx, DWORD PTR _this$[ebp]
  00182	e8 00 00 00 00	 call	 ??1CObject@@UAE@XZ	; CObject::~CObject
  00187	8b 4d f4	 mov	 ecx, DWORD PTR __$EHRec$[ebp+4]
  0018a	64 89 0d 00 00
	00 00		 mov	 DWORD PTR fs:0, ecx
  00191	59		 pop	 ecx
  00192	5f		 pop	 edi
  00193	5e		 pop	 esi
  00194	5b		 pop	 ebx
  00195	8b 4d ec	 mov	 ecx, DWORD PTR __$ArrayPad$[ebp]
  00198	33 cd		 xor	 ecx, ebp
  0019a	e8 00 00 00 00	 call	 @__security_check_cookie@4
  0019f	8b e5		 mov	 esp, ebp
  001a1	5d		 pop	 ebp
  001a2	c3		 ret	 0
_TEXT	ENDS
;	COMDAT text$x
text$x	SEGMENT
__unwindfunclet$??1CGdiObject@@UAE@XZ$2:
  00000	8b 8d e0 fd ff
	ff		 mov	 ecx, DWORD PTR _this$[ebp]
  00006	e9 00 00 00 00	 jmp	 ??1CObject@@UAE@XZ	; CObject::~CObject
__unwindfunclet$??1CGdiObject@@UAE@XZ$3:
  0000b	8d 8d e8 fd ff
	ff		 lea	 ecx, DWORD PTR _strMsg$5[ebp]
  00011	ff 25 00 00 00
	00		 jmp	 DWORD PTR __imp_??1?$CStringT@DV?$StrTraitMFC_DLL@DV?$ChTraitsCRT@D@ATL@@@@@ATL@@QAE@XZ
__ehhandler$??1CGdiObject@@UAE@XZ:
  00017	8b 54 24 08	 mov	 edx, DWORD PTR [esp+8]
  0001b	8d 42 0c	 lea	 eax, DWORD PTR [edx+12]
  0001e	8b 8a d0 fd ff
	ff		 mov	 ecx, DWORD PTR [edx-560]
  00024	33 c8		 xor	 ecx, eax
  00026	e8 00 00 00 00	 call	 @__security_check_cookie@4
  0002b	8b 4a f8	 mov	 ecx, DWORD PTR [edx-8]
  0002e	33 c8		 xor	 ecx, eax
  00030	e8 00 00 00 00	 call	 @__security_check_cookie@4
  00035	b8 00 00 00 00	 mov	 eax, OFFSET __ehfuncinfo$??1CGdiObject@@UAE@XZ
  0003a	e9 00 00 00 00	 jmp	 ___CxxFrameHandler3
text$x	ENDS
??1CGdiObject@@UAE@XZ ENDP				; CGdiObject::~CGdiObject
; Function compile flags: /Odtp
; File d:\program files\microsoft visual studio 11.0\vc\atlmfc\include\afxwin1.inl
;	COMDAT ??1CBrush@@UAE@XZ
_TEXT	SEGMENT
_this$ = -4						; size = 4
??1CBrush@@UAE@XZ PROC					; CBrush::~CBrush, COMDAT
; _this$ = ecx

; 130  : 	{ }

  00000	55		 push	 ebp
  00001	8b ec		 mov	 ebp, esp
  00003	51		 push	 ecx
  00004	89 4d fc	 mov	 DWORD PTR _this$[ebp], ecx
  00007	8b 45 fc	 mov	 eax, DWORD PTR _this$[ebp]
  0000a	c7 00 00 00 00
	00		 mov	 DWORD PTR [eax], OFFSET ??_7CBrush@@6B@
  00010	8b 4d fc	 mov	 ecx, DWORD PTR _this$[ebp]
  00013	e8 00 00 00 00	 call	 ??1CGdiObject@@UAE@XZ	; CGdiObject::~CGdiObject
  00018	8b e5		 mov	 esp, ebp
  0001a	5d		 pop	 ebp
  0001b	c3		 ret	 0
??1CBrush@@UAE@XZ ENDP					; CBrush::~CBrush
_TEXT	ENDS
; Function compile flags: /Odtp
; File d:\program files\microsoft visual studio 11.0\vc\atlmfc\include\afx.inl
;	COMDAT ??3CObject@@SGXPAX@Z
_TEXT	SEGMENT
_p$ = 8							; size = 4
??3CObject@@SGXPAX@Z PROC				; CObject::operator delete, COMDAT

; 102  : 	{ ::operator delete(p); }

  00000	55		 push	 ebp
  00001	8b ec		 mov	 ebp, esp
  00003	8b 45 08	 mov	 eax, DWORD PTR _p$[ebp]
  00006	50		 push	 eax
  00007	ff 15 00 00 00
	00		 call	 DWORD PTR __imp_??3@YAXPAX@Z
  0000d	83 c4 04	 add	 esp, 4
  00010	5d		 pop	 ebp
  00011	c2 04 00	 ret	 4
??3CObject@@SGXPAX@Z ENDP				; CObject::operator delete
_TEXT	ENDS
END
