; Listing generated by Microsoft (R) Optimizing Compiler Version 17.00.50727.1 

	TITLE	E:\work_wm\HXIJY_code\endoscopemfc2012_menu_changepara_youhua_savepic_USB_1114_twothread_svepic_save5\src\EndoScopeMFC\DataType.cpp
	.686P
	.XMM
	include listing.inc
	.model	flat

INCLUDELIB OLDNAMES

PUBLIC	?g_bStop@@3HA					; g_bStop
PUBLIC	??_C@_0BM@PAPJHAGI@invalid?5map?1set?$DMT?$DO?5iterator?$AA@ ; `string'
PUBLIC	??_C@_0BC@KBDMBKEH@deque?$DMT?$DO?5too?5long?$AA@ ; `string'
PUBLIC	?g_pShowDlg@@3PAVCWnd@@A			; g_pShowDlg
PUBLIC	?g_bConnect@@3HA				; g_bConnect
PUBLIC	?g_bVideo@@3HA					; g_bVideo
PUBLIC	?g_bOneB@@3HA					; g_bOneB
PUBLIC	?g_bOneR@@3HA					; g_bOneR
PUBLIC	?g_bOneSharpen@@3HA				; g_bOneSharpen
PUBLIC	?g_bIsUpan@@3HA					; g_bIsUpan
PUBLIC	?g_bIsLightOpen@@3HA				; g_bIsLightOpen
PUBLIC	?g_bWhiteBalance@@3HA				; g_bWhiteBalance
PUBLIC	?g_bExposure@@3HA				; g_bExposure
PUBLIC	?g_thred@@3HA					; g_thred
PUBLIC	?g_iMenu@@3HA					; g_iMenu
PUBLIC	?g_fGainB@@3NA					; g_fGainB
PUBLIC	?g_fGainR@@3NA					; g_fGainR
PUBLIC	?g_lamdag@@3NA					; g_lamdag
PUBLIC	?g_lamdab@@3NA					; g_lamdab
PUBLIC	?g_lamdar@@3NA					; g_lamdar
PUBLIC	?g_nPort@@3HA					; g_nPort
PUBLIC	?g_nCCOM@@3HA					; g_nCCOM
PUBLIC	?g_nLCOM@@3HA					; g_nLCOM
PUBLIC	?g_nVCOM@@3HA					; g_nVCOM
PUBLIC	?g_nShowShape@@3HA				; g_nShowShape
PUBLIC	?g_nChange255@@3HA				; g_nChange255
PUBLIC	?g_nChangePixel@@3HA				; g_nChangePixel
PUBLIC	?g_nThreshNew@@3HA				; g_nThreshNew
PUBLIC	?g_nThresh@@3HA					; g_nThresh
PUBLIC	?g_nMetering@@3HA				; g_nMetering
PUBLIC	?g_nBlue@@3HA					; g_nBlue
PUBLIC	?g_nRed@@3HA					; g_nRed
PUBLIC	?g_nLBrightness@@3HA				; g_nLBrightness
PUBLIC	?g_nWhitebalance@@3HA				; g_nWhitebalance
PUBLIC	?g_nGain@@3HA					; g_nGain
PUBLIC	?g_nExposure@@3HA				; g_nExposure
PUBLIC	?g_nSaturation@@3HA				; g_nSaturation
PUBLIC	?g_nContrast@@3HA				; g_nContrast
PUBLIC	?g_nBrightness@@3HA				; g_nBrightness
PUBLIC	?g_nSharpness@@3HA				; g_nSharpness
PUBLIC	?g_FPS@@3HA					; g_FPS
EXTRN	__imp_?Trim@?$CStringT@DV?$StrTraitMFC_DLL@DV?$ChTraitsCRT@D@ATL@@@@@ATL@@QAEAAV12@XZ:PROC
EXTRN	__imp_?Right@?$CStringT@DV?$StrTraitMFC_DLL@DV?$ChTraitsCRT@D@ATL@@@@@ATL@@QBE?AV12@H@Z:PROC
EXTRN	__imp_??0_Container_base12@std@@QAE@XZ:PROC
EXTRN	__imp_??1_Container_base12@std@@QAE@XZ:PROC
EXTRN	__imp___recalloc:PROC
EXTRN	__imp__calloc:PROC
EXTRN	__imp_?_Orphan_all@_Container_base12@std@@QAEXXZ:PROC
EXTRN	__imp_?AfxThrowInvalidArgException@@YGXXZ:PROC
EXTRN	__imp__free:PROC
EXTRN	__imp__GetPrivateProfileIntA@16:PROC
EXTRN	__imp_?Append@?$CSimpleStringT@D$00@ATL@@QAEXPBD@Z:PROC
EXTRN	__imp_?GetString@?$CSimpleStringT@D$00@ATL@@QBEPBDXZ:PROC
EXTRN	__imp__memcpy_s:PROC
EXTRN	__imp_?AfxThrowMemoryException@@YGXXZ:PROC
EXTRN	__imp_?AfxThrowOleException@@YGXJ@Z:PROC
?g_bStop@@3HA DD 01H DUP (?)				; g_bStop
?g_pShowDlg@@3PAVCWnd@@A DD 01H DUP (?)			; g_pShowDlg
?g_bConnect@@3HA DD 01H DUP (?)				; g_bConnect
?g_bVideo@@3HA DD 01H DUP (?)				; g_bVideo
?g_bOneB@@3HA DD 01H DUP (?)				; g_bOneB
?g_bOneR@@3HA DD 01H DUP (?)				; g_bOneR
?g_bOneSharpen@@3HA DD 01H DUP (?)			; g_bOneSharpen
?g_bIsUpan@@3HA DD 01H DUP (?)				; g_bIsUpan
?g_bIsLightOpen@@3HA DD 01H DUP (?)			; g_bIsLightOpen
?g_bWhiteBalance@@3HA DD 01H DUP (?)			; g_bWhiteBalance
?g_bExposure@@3HA DD 01H DUP (?)			; g_bExposure
?g_thred@@3HA DD 01H DUP (?)				; g_thred
?g_iMenu@@3HA DD 01H DUP (?)				; g_iMenu
	ALIGN	8

?g_fGainB@@3NA DQ 01H DUP (?)				; g_fGainB
?g_fGainR@@3NA DQ 01H DUP (?)				; g_fGainR
?g_nLCOM@@3HA DD 01H DUP (?)				; g_nLCOM
?g_nVCOM@@3HA DD 01H DUP (?)				; g_nVCOM
?g_nShowShape@@3HA DD 01H DUP (?)			; g_nShowShape
?g_nChange255@@3HA DD 01H DUP (?)			; g_nChange255
?g_nMetering@@3HA DD 01H DUP (?)			; g_nMetering
?g_nBlue@@3HA DD 01H DUP (?)				; g_nBlue
?g_nRed@@3HA DD	01H DUP (?)				; g_nRed
?g_nWhitebalance@@3HA DD 01H DUP (?)			; g_nWhitebalance
?g_nGain@@3HA DD 01H DUP (?)				; g_nGain
?g_nExposure@@3HA DD 01H DUP (?)			; g_nExposure
?g_nContrast@@3HA DD 01H DUP (?)			; g_nContrast
?g_nBrightness@@3HA DD 01H DUP (?)			; g_nBrightness
?g_nSharpness@@3HA DD 01H DUP (?)			; g_nSharpness
?g_FPS@@3HA DD	01H DUP (?)				; g_FPS
_BSS	ENDS
?g_lamdag@@3NA DQ 03ff0000000000000r		; 1	; g_lamdag
?g_lamdab@@3NA DQ 03ff0000000000000r		; 1	; g_lamdab
?g_lamdar@@3NA DQ 03ff0000000000000r		; 1	; g_lamdar
?g_nPort@@3HA DD 022b7H					; g_nPort
?g_nCCOM@@3HA DD 02H					; g_nCCOM
?g_nChangePixel@@3HA DD 03H				; g_nChangePixel
?g_nThreshNew@@3HA DD 0ffH				; g_nThreshNew
?g_nThresh@@3HA DD 0ffH					; g_nThresh
?g_nLBrightness@@3HA DD 05H				; g_nLBrightness
?g_nSaturation@@3HA DD 05H				; g_nSaturation
_DATA	ENDS
;	COMDAT ??_C@_0BC@KBDMBKEH@deque?$DMT?$DO?5too?5long?$AA@
CONST	SEGMENT
??_C@_0BC@KBDMBKEH@deque?$DMT?$DO?5too?5long?$AA@ DB 'deque<T> too long', 00H ; `string'
CONST	ENDS
;	COMDAT ??_C@_0BM@PAPJHAGI@invalid?5map?1set?$DMT?$DO?5iterator?$AA@
CONST	SEGMENT
??_C@_0BM@PAPJHAGI@invalid?5map?1set?$DMT?$DO?5iterator?$AA@ DB 'invalid '
	DB	'map/set<T> iterator', 00H			; `string'
$SG4294963869 DB 00H
$SG4294963866 DB 00H
$SG4294963864 DB 00H
$SG4294963863 DB 00H
$SG4294963862 DB 00H
$SG4294963861 DB 00H
$SG4294963860 DB 00H
$SG4294963859 DB 00H
$SG4294963858 DB 00H
	ORG $+1
$SG4294963868 DB 'DATA\', 00H
	ORG $+2
$SG4294963867 DB 'D:\Temp\', 00H
	ORG $+3
$SG4294963865 DB '192.168.1.145', 00H
	ORG $+2
$SG4294963857 DB '\config.ini', 00H
$SG4294963856 DB 'D:\', 0c4H, 0daH, 0bfH, 0faH, 0beH, 0b5H, 0caH, 0fdH, 0beH
	DB	0ddH, '\', 00H
	ORG $+1
$SG4294963855 DB 'PATH', 00H
	ORG $+3
$SG4294963854 DB 'PARAMETER', 00H
	ORG $+2
$SG4294963853 DB '\', 00H
	ORG $+2
$SG4294963852 DB '\', 00H
	ORG $+2
$SG4294963851 DB 'BRIGHTNESS', 00H
	ORG $+1
$SG4294963850 DB 'PARAMETER', 00H
	ORG $+2
$SG4294963849 DB 'CONTRAST', 00H
	ORG $+3
$SG4294963848 DB 'PARAMETER', 00H
	ORG $+2
$SG4294963847 DB 'SATURATION', 00H
	ORG $+1
$SG4294963846 DB 'PARAMETER', 00H
	ORG $+2
$SG4294963845 DB 'EXPOSURE', 00H
	ORG $+3
$SG4294963844 DB 'PARAMETER', 00H
	ORG $+2
$SG4294963843 DB 'GAIN', 00H
	ORG $+3
$SG4294963842 DB 'PARAMETER', 00H
	ORG $+2
$SG4294963841 DB 'ADJBRIGHT', 00H
	ORG $+2
$SG4294963840 DB 'PARAMETER', 00H
	ORG $+2
$SG4294963839 DB 'WHITEBALANCE', 00H
	ORG $+3
$SG4294963838 DB 'PARAMETER', 00H
	ORG $+2
$SG4294963837 DB 'WHITEBALANCEVAL', 00H
$SG4294963836 DB 'PARAMETER', 00H
	ORG $+2
$SG4294963835 DB 'HUE_B', 00H
	ORG $+2
$SG4294963834 DB 'PARAMETER', 00H
	ORG $+2
$SG4294963833 DB 'HUE_R', 00H
	ORG $+2
$SG4294963832 DB 'PARAMETER', 00H
	ORG $+2
$SG4294963831 DB 'CONTUOR', 00H
$SG4294963830 DB 'PARAMETER', 00H
	ORG $+2
$SG4294963829 DB 'AUTOEXPOSURE', 00H
	ORG $+3
$SG4294963828 DB 'PARAMETER', 00H
	ORG $+2
$SG4294963827 DB 'THRETH', 00H
	ORG $+1
$SG4294963826 DB 'PARAMETER', 00H
	ORG $+2
$SG4294963825 DB 'GAIN_R', 00H
	ORG $+1
$SG4294963824 DB 'PARAMETER', 00H
	ORG $+2
$SG4294963823 DB 'GAIN_B', 00H
	ORG $+1
$SG4294963822 DB 'PARAMETER', 00H
	ORG $+2
$SG4294963821 DB 'MENU', 00H
	ORG $+3
$SG4294963820 DB 'PARAMETER', 00H
	ORG $+2
$SG4294963819 DB 'LAMDAR', 00H
	ORG $+1
$SG4294963818 DB 'PARAMETER', 00H
	ORG $+2
$SG4294963817 DB 'LAMDAG', 00H
	ORG $+1
$SG4294963816 DB 'PARAMETER', 00H
	ORG $+2
$SG4294963815 DB 'LAMDAB', 00H
	ORG $+1
$SG4294963814 DB 'PARAMETER', 00H
	ORG $+2
$SG4294963813 DB 'CHANGEPIXEL', 00H
$SG4294963812 DB 'PARAMETER', 00H
	ORG $+2
$SG4294963811 DB 'THRETH2', 00H
$SG4294963810 DB 'PARAMETER', 00H
	ORG $+2
$SG4294963809 DB 'CHANGE255', 00H
	ORG $+2
$SG4294963808 DB 'PARAMETER', 00H
	ORG $+2
$SG4294963807 DB 'THRETHNEW', 00H
	ORG $+2
$SG4294963806 DB 'PARAMETER', 00H
	ORG $+2
$SG4294963805 DB 'VCOMNUM', 00H
$SG4294963804 DB 'COM', 00H
$SG4294963803 DB 'LCOMNUM', 00H
$SG4294963802 DB 'COM', 00H
$SG4294963801 DB 'CCOMNUM', 00H
$SG4294963800 DB 'COM', 00H
$SG4294963799 DB 'ISCONNECT', 00H
	ORG $+2
$SG4294963798 DB 'SOCKET', 00H
	ORG $+1
$SG4294963797 DB '192.168.1.248', 00H
	ORG $+2
$SG4294963796 DB 'SERVERIP', 00H
	ORG $+3
$SG4294963795 DB 'SOCKET', 00H
	ORG $+1
$SG4294963794 DB 'SERVERPORT', 00H
	ORG $+1
$SG4294963793 DB 'SOCKET', 00H
	ORG $+1
$SG4294963792 DB '%lf', 00H
$SG4294963791 DB 'PARAMETER', 00H
	ORG $+2
$SG4294963790 DB 'insert into RecData (', 0b2H, 0d9H, 0d7H, 0f7H, ', ', 0b2H
	DB	0d9H, 0d7H, 0f7H, 0d6H, 0b5H, ') Values(''%s'', ''%lf'')', 00H
PUBLIC	?AtlThrowImpl@ATL@@YGXJ@Z			; ATL::AtlThrowImpl
PUBLIC	??$AtlConvFreeMemory@D@ATL@@YAXPAD0H@Z		; ATL::AtlConvFreeMemory<char>
PUBLIC	?AfxCrtErrorCheck@@YAHH@Z			; AfxCrtErrorCheck
PUBLIC	??$AtlConvAllocMemory@D@ATL@@YAXPAPADHPADH@Z	; ATL::AtlConvAllocMemory<char>
PUBLIC	?memcpy_s@Checked@ATL@@YAXPAXIPBXI@Z		; ATL::Checked::memcpy_s
PUBLIC	??0_Container_proxy@std@@QAE@XZ			; std::_Container_proxy::_Container_proxy
PUBLIC	?_Adopt@_Iterator_base0@std@@QAEXPBX@Z		; std::_Iterator_base0::_Adopt
PUBLIC	??0?$allocator@D@std@@QAE@ABV01@@Z		; std::allocator<char>::allocator<char>
PUBLIC	??_G?$basic_string@DU?$char_traits@D@std@@V?$allocator@D@2@@std@@QAEPAXI@Z ; std::basic_string<char,std::char_traits<char>,std::allocator<char> >::`scalar deleting destructor'
PUBLIC	??$construct@PAU?$_Tree_node@U?$pair@$$CBIN@std@@PAX@std@@AAPAU12@@?$allocator@U?$_Tree_node@U?$pair@$$CBIN@std@@PAX@std@@@std@@QAEXPAPAU?$_Tree_node@U?$pair@$$CBIN@std@@PAX@1@AAPAU21@@Z ; std::allocator<std::_Tree_node<std::pair<unsigned int const ,double>,void *> >::construct<std::_Tree_node<std::pair<unsigned int const ,double>,void *> *,std::_Tree_node<std::pair<unsigned int const ,double>,void *> * &>
PUBLIC	??$destroy@U?$pair@$$CBIN@std@@@?$allocator@U?$_Tree_node@U?$pair@$$CBIN@std@@PAX@std@@@std@@QAEXPAU?$pair@$$CBIN@1@@Z ; std::allocator<std::_Tree_node<std::pair<unsigned int const ,double>,void *> >::destroy<std::pair<unsigned int const ,double> >
PUBLIC	??$construct@U_Container_proxy@std@@U12@@?$allocator@U_Container_proxy@std@@@std@@QAEXPAU_Container_proxy@1@$$QAU21@@Z ; std::allocator<std::_Container_proxy>::construct<std::_Container_proxy,std::_Container_proxy>
PUBLIC	??$_Fill_n@PAPAV?$basic_string@DU?$char_traits@D@std@@V?$allocator@D@2@@std@@IPAV12@@std@@YAPAPAV?$basic_string@DU?$char_traits@D@std@@V?$allocator@D@2@@0@PAPAV10@IABQAV10@@Z ; std::_Fill_n<std::basic_string<char,std::char_traits<char>,std::allocator<char> > * *,unsigned int,std::basic_string<char,std::char_traits<char>,std::allocator<char> > *>
PUBLIC	??$destroy@V?$basic_string@DU?$char_traits@D@std@@V?$allocator@D@2@@std@@@?$allocator@V?$basic_string@DU?$char_traits@D@std@@V?$allocator@D@2@@std@@@std@@QAEXPAV?$basic_string@DU?$char_traits@D@std@@V?$allocator@D@2@@1@@Z ; std::allocator<std::basic_string<char,std::char_traits<char>,std::allocator<char> > >::destroy<std::basic_string<char,std::char_traits<char>,std::allocator<char> > >
PUBLIC	??$destroy@PAU?$_Tree_node@U?$pair@$$CBIN@std@@PAX@std@@@?$allocator@U?$_Tree_node@U?$pair@$$CBIN@std@@PAX@std@@@std@@QAEXPAPAU?$_Tree_node@U?$pair@$$CBIN@std@@PAX@1@@Z ; std::allocator<std::_Tree_node<std::pair<unsigned int const ,double>,void *> >::destroy<std::_Tree_node<std::pair<unsigned int const ,double>,void *> *>
PUBLIC	??$destroy@U_Container_proxy@std@@@?$allocator@U_Container_proxy@std@@@std@@QAEXPAU_Container_proxy@1@@Z ; std::allocator<std::_Container_proxy>::destroy<std::_Container_proxy>
PUBLIC	??$destroy@PAE@?$allocator@PAE@std@@QAEXPAPAE@Z	; std::allocator<unsigned char *>::destroy<unsigned char *>
PUBLIC	??$destroy@PAV?$basic_string@DU?$char_traits@D@std@@V?$allocator@D@2@@std@@@?$allocator@V?$basic_string@DU?$char_traits@D@std@@V?$allocator@D@2@@std@@@std@@QAEXPAPAV?$basic_string@DU?$char_traits@D@std@@V?$allocator@D@2@@1@@Z ; std::allocator<std::basic_string<char,std::char_traits<char>,std::allocator<char> > >::destroy<std::basic_string<char,std::char_traits<char>,std::allocator<char> > *>
PUBLIC	??$destroy@PAPAE@?$allocator@PAE@std@@QAEXPAPAPAE@Z ; std::allocator<unsigned char *>::destroy<unsigned char * *>
PUBLIC	?select_on_container_copy_construction@?$allocator@D@std@@QBE?AV12@XZ ; std::allocator<char>::select_on_container_copy_construction
PUBLIC	?select_on_container_copy_construction@?$allocator_traits@V?$allocator@D@std@@@std@@SA?AV?$allocator@D@2@ABV32@@Z ; std::allocator_traits<std::allocator<char> >::select_on_container_copy_construction
PUBLIC	??0?$_Wrap_alloc@V?$allocator@D@std@@@std@@QAE@ABV?$allocator@D@1@@Z ; std::_Wrap_alloc<std::allocator<char> >::_Wrap_alloc<std::allocator<char> >
PUBLIC	?select_on_container_copy_construction@?$_Wrap_alloc@V?$allocator@D@std@@@std@@QBE?AU12@XZ ; std::_Wrap_alloc<std::allocator<char> >::select_on_container_copy_construction
PUBLIC	??0?$basic_string@DU?$char_traits@D@std@@V?$allocator@D@2@@std@@QAE@ABV01@@Z ; std::basic_string<char,std::char_traits<char>,std::allocator<char> >::basic_string<char,std::char_traits<char>,std::allocator<char> >
PUBLIC	?construct@?$allocator@V?$basic_string@DU?$char_traits@D@std@@V?$allocator@D@2@@std@@@std@@QAEXPAV?$basic_string@DU?$char_traits@D@std@@V?$allocator@D@2@@2@ABV32@@Z ; std::allocator<std::basic_string<char,std::char_traits<char>,std::allocator<char> > >::construct
PUBLIC	??$construct@PAU?$_Tree_node@U?$pair@$$CBIN@std@@PAX@std@@AAPAU12@@?$allocator_traits@V?$allocator@U?$_Tree_node@U?$pair@$$CBIN@std@@PAX@std@@@std@@@std@@SAXAAV?$allocator@U?$_Tree_node@U?$pair@$$CBIN@std@@PAX@std@@@1@PAPAU?$_Tree_node@U?$pair@$$CBIN@std@@PAX@1@AAPAU31@@Z ; std::allocator_traits<std::allocator<std::_Tree_node<std::pair<unsigned int const ,double>,void *> > >::construct<std::_Tree_node<std::pair<unsigned int const ,double>,void *> *,std::_Tree_node<std::pair<unsigned int const ,double>,void *> * &>
PUBLIC	??$forward@AAPAU?$_Tree_node@U?$pair@$$CBIN@std@@PAX@std@@@std@@YAAAPAU?$_Tree_node@U?$pair@$$CBIN@std@@PAX@0@AAPAU10@@Z ; std::forward<std::_Tree_node<std::pair<unsigned int const ,double>,void *> * &>
PUBLIC	??$destroy@U?$pair@$$CBIN@std@@@?$allocator_traits@V?$allocator@U?$_Tree_node@U?$pair@$$CBIN@std@@PAX@std@@@std@@@std@@SAXAAV?$allocator@U?$_Tree_node@U?$pair@$$CBIN@std@@PAX@std@@@1@PAU?$pair@$$CBIN@1@@Z ; std::allocator_traits<std::allocator<std::_Tree_node<std::pair<unsigned int const ,double>,void *> > >::destroy<std::pair<unsigned int const ,double> >
PUBLIC	??$_Move@AAD@std@@YA$$QADAAD@Z			; std::_Move<char &>
PUBLIC	??$construct@U_Container_proxy@std@@U12@@?$allocator_traits@V?$allocator@U_Container_proxy@std@@@std@@@std@@SAXAAV?$allocator@U_Container_proxy@std@@@1@PAU_Container_proxy@1@$$QAU31@@Z ; std::allocator_traits<std::allocator<std::_Container_proxy> >::construct<std::_Container_proxy,std::_Container_proxy>
PUBLIC	??$forward@U_Container_proxy@std@@@std@@YA$$QAU_Container_proxy@0@AAU10@@Z ; std::forward<std::_Container_proxy>
PUBLIC	??$_Destroy_range@U?$_Wrap_alloc@V?$allocator@PAV?$basic_string@DU?$char_traits@D@std@@V?$allocator@D@2@@std@@@std@@@std@@@std@@YAXPAPAV?$basic_string@DU?$char_traits@D@std@@V?$allocator@D@2@@0@0AAU?$_Wrap_alloc@V?$allocator@PAV?$basic_string@DU?$char_traits@D@std@@V?$allocator@D@2@@std@@@std@@@0@U_Scalar_ptr_iterator_tag@0@@Z ; std::_Destroy_range<std::_Wrap_alloc<std::allocator<std::basic_string<char,std::char_traits<char>,std::allocator<char> > *> > >
PUBLIC	??$_Uninit_def_fill_n@PAV?$basic_string@DU?$char_traits@D@std@@V?$allocator@D@2@@std@@IPAV12@@std@@YAXPAPAV?$basic_string@DU?$char_traits@D@std@@V?$allocator@D@2@@0@IAAU?$_Wrap_alloc@V?$allocator@PAV?$basic_string@DU?$char_traits@D@std@@V?$allocator@D@2@@std@@@std@@@0@0U_Scalar_ptr_iterator_tag@0@@Z ; std::_Uninit_def_fill_n<std::basic_string<char,std::char_traits<char>,std::allocator<char> > *,unsigned int,std::basic_string<char,std::char_traits<char>,std::allocator<char> > *>
PUBLIC	??$_Val_type@PAPAV?$basic_string@DU?$char_traits@D@std@@V?$allocator@D@2@@std@@@std@@YAPAPAV?$basic_string@DU?$char_traits@D@std@@V?$allocator@D@2@@0@PAPAV10@@Z ; std::_Val_type<std::basic_string<char,std::char_traits<char>,std::allocator<char> > * *>
PUBLIC	??$_Uninit_copy@PAV?$basic_string@DU?$char_traits@D@std@@V?$allocator@D@2@@std@@PAV12@@std@@YAPAPAV?$basic_string@DU?$char_traits@D@std@@V?$allocator@D@2@@0@PAPAV10@00AAU?$_Wrap_alloc@V?$allocator@PAV?$basic_string@DU?$char_traits@D@std@@V?$allocator@D@2@@std@@@std@@@0@U_Scalar_ptr_iterator_tag@0@@Z ; std::_Uninit_copy<std::basic_string<char,std::char_traits<char>,std::allocator<char> > *,std::basic_string<char,std::char_traits<char>,std::allocator<char> > *>
PUBLIC	??$_Ptr_cat@PAV?$basic_string@DU?$char_traits@D@std@@V?$allocator@D@2@@std@@PAV12@@std@@YA?AU_Scalar_ptr_iterator_tag@0@PAPAV?$basic_string@DU?$char_traits@D@std@@V?$allocator@D@2@@0@0@Z ; std::_Ptr_cat<std::basic_string<char,std::char_traits<char>,std::allocator<char> > *,std::basic_string<char,std::char_traits<char>,std::allocator<char> > *>
PUBLIC	??$destroy@V?$basic_string@DU?$char_traits@D@std@@V?$allocator@D@2@@std@@@?$allocator_traits@V?$allocator@V?$basic_string@DU?$char_traits@D@std@@V?$allocator@D@2@@std@@@std@@@std@@SAXAAV?$allocator@V?$basic_string@DU?$char_traits@D@std@@V?$allocator@D@2@@std@@@1@PAV?$basic_string@DU?$char_traits@D@std@@V?$allocator@D@2@@1@@Z ; std::allocator_traits<std::allocator<std::basic_string<char,std::char_traits<char>,std::allocator<char> > > >::destroy<std::basic_string<char,std::char_traits<char>,std::allocator<char> > >
PUBLIC	??$destroy@PAU?$_Tree_node@U?$pair@$$CBIN@std@@PAX@std@@@?$allocator_traits@V?$allocator@U?$_Tree_node@U?$pair@$$CBIN@std@@PAX@std@@@std@@@std@@SAXAAV?$allocator@U?$_Tree_node@U?$pair@$$CBIN@std@@PAX@std@@@1@PAPAU?$_Tree_node@U?$pair@$$CBIN@std@@PAX@1@@Z ; std::allocator_traits<std::allocator<std::_Tree_node<std::pair<unsigned int const ,double>,void *> > >::destroy<std::_Tree_node<std::pair<unsigned int const ,double>,void *> *>
PUBLIC	??$destroy@U_Container_proxy@std@@@?$allocator_traits@V?$allocator@U_Container_proxy@std@@@std@@@std@@SAXAAV?$allocator@U_Container_proxy@std@@@1@PAU_Container_proxy@1@@Z ; std::allocator_traits<std::allocator<std::_Container_proxy> >::destroy<std::_Container_proxy>
PUBLIC	??$destroy@PAE@?$allocator_traits@V?$allocator@PAE@std@@@std@@SAXAAV?$allocator@PAE@1@PAPAE@Z ; std::allocator_traits<std::allocator<unsigned char *> >::destroy<unsigned char *>
PUBLIC	??$destroy@PAV?$basic_string@DU?$char_traits@D@std@@V?$allocator@D@2@@std@@@?$allocator_traits@V?$allocator@V?$basic_string@DU?$char_traits@D@std@@V?$allocator@D@2@@std@@@std@@@std@@SAXAAV?$allocator@V?$basic_string@DU?$char_traits@D@std@@V?$allocator@D@2@@std@@@1@PAPAV?$basic_string@DU?$char_traits@D@std@@V?$allocator@D@2@@1@@Z ; std::allocator_traits<std::allocator<std::basic_string<char,std::char_traits<char>,std::allocator<char> > > >::destroy<std::basic_string<char,std::char_traits<char>,std::allocator<char> > *>
PUBLIC	??$?0V?$basic_string@DU?$char_traits@D@std@@V?$allocator@D@2@@std@@@?$allocator@PAV?$basic_string@DU?$char_traits@D@std@@V?$allocator@D@2@@std@@@std@@QAE@ABV?$allocator@V?$basic_string@DU?$char_traits@D@std@@V?$allocator@D@2@@std@@@1@@Z ; std::allocator<std::basic_string<char,std::char_traits<char>,std::allocator<char> > *>::allocator<std::basic_string<char,std::char_traits<char>,std::allocator<char> > *><std::basic_string<char,std::char_traits<char>,std::allocator<char> > >
PUBLIC	??$construct@V?$basic_string@DU?$char_traits@D@std@@V?$allocator@D@2@@std@@ABV12@@?$allocator_traits@V?$allocator@V?$basic_string@DU?$char_traits@D@std@@V?$allocator@D@2@@std@@@std@@@std@@SAXAAV?$allocator@V?$basic_string@DU?$char_traits@D@std@@V?$allocator@D@2@@std@@@1@PAV?$basic_string@DU?$char_traits@D@std@@V?$allocator@D@2@@1@ABV31@@Z ; std::allocator_traits<std::allocator<std::basic_string<char,std::char_traits<char>,std::allocator<char> > > >::construct<std::basic_string<char,std::char_traits<char>,std::allocator<char> >,std::basic_string<char,std::char_traits<char>,std::allocator<char> > const &>
PUBLIC	??$forward@ABV?$basic_string@DU?$char_traits@D@std@@V?$allocator@D@2@@std@@@std@@YAABV?$basic_string@DU?$char_traits@D@std@@V?$allocator@D@2@@0@ABV10@@Z ; std::forward<std::basic_string<char,std::char_traits<char>,std::allocator<char> > const &>
PUBLIC	??$destroy@PAPAE@?$allocator_traits@V?$allocator@PAE@std@@@std@@SAXAAV?$allocator@PAE@1@PAPAPAE@Z ; std::allocator_traits<std::allocator<unsigned char *> >::destroy<unsigned char * *>
PUBLIC	??$?0PAE@?$allocator@PAPAE@std@@QAE@ABV?$allocator@PAE@1@@Z ; std::allocator<unsigned char * *>::allocator<unsigned char * *><unsigned char *>
PUBLIC	??$_Allocate@U?$_Tree_node@U?$pair@$$CBIN@std@@PAX@std@@@std@@YAPAU?$_Tree_node@U?$pair@$$CBIN@std@@PAX@0@IPAU10@@Z ; std::_Allocate<std::_Tree_node<std::pair<unsigned int const ,double>,void *> >
PUBLIC	??$_Allocate@U_Container_proxy@std@@@std@@YAPAU_Container_proxy@0@IPAU10@@Z ; std::_Allocate<std::_Container_proxy>
PUBLIC	??$construct@PAU?$_Tree_node@U?$pair@$$CBIN@std@@PAX@std@@AAPAU12@@?$_Wrap_alloc@V?$allocator@U?$_Tree_node@U?$pair@$$CBIN@std@@PAX@std@@@std@@@std@@QAEXPAPAU?$_Tree_node@U?$pair@$$CBIN@std@@PAX@1@AAPAU21@@Z ; std::_Wrap_alloc<std::allocator<std::_Tree_node<std::pair<unsigned int const ,double>,void *> > >::construct<std::_Tree_node<std::pair<unsigned int const ,double>,void *> *,std::_Tree_node<std::pair<unsigned int const ,double>,void *> * &>
PUBLIC	??$_Allocate@PAV?$basic_string@DU?$char_traits@D@std@@V?$allocator@D@2@@std@@@std@@YAPAPAV?$basic_string@DU?$char_traits@D@std@@V?$allocator@D@2@@0@IPAPAV10@@Z ; std::_Allocate<std::basic_string<char,std::char_traits<char>,std::allocator<char> > *>
PUBLIC	??$_Allocate@V?$basic_string@DU?$char_traits@D@std@@V?$allocator@D@2@@std@@@std@@YAPAV?$basic_string@DU?$char_traits@D@std@@V?$allocator@D@2@@0@IPAV10@@Z ; std::_Allocate<std::basic_string<char,std::char_traits<char>,std::allocator<char> > >
PUBLIC	??$destroy@U?$pair@$$CBIN@std@@@?$_Wrap_alloc@V?$allocator@U?$_Tree_node@U?$pair@$$CBIN@std@@PAX@std@@@std@@@std@@QAEXPAU?$pair@$$CBIN@1@@Z ; std::_Wrap_alloc<std::allocator<std::_Tree_node<std::pair<unsigned int const ,double>,void *> > >::destroy<std::pair<unsigned int const ,double> >
PUBLIC	??$addressof@U?$pair@$$CBIN@std@@@std@@YAPAU?$pair@$$CBIN@0@AAU10@@Z ; std::addressof<std::pair<unsigned int const ,double> >
PUBLIC	??$swap@D@std@@YAXAAD0@Z			; std::swap<char>
PUBLIC	??$construct@U_Container_proxy@std@@U12@@?$_Wrap_alloc@V?$allocator@U_Container_proxy@std@@@std@@@std@@QAEXPAU_Container_proxy@1@$$QAU21@@Z ; std::_Wrap_alloc<std::allocator<std::_Container_proxy> >::construct<std::_Container_proxy,std::_Container_proxy>
PUBLIC	??$_Destroy_range@U?$_Wrap_alloc@V?$allocator@PAV?$basic_string@DU?$char_traits@D@std@@V?$allocator@D@2@@std@@@std@@@std@@@std@@YAXPAPAV?$basic_string@DU?$char_traits@D@std@@V?$allocator@D@2@@0@0AAU?$_Wrap_alloc@V?$allocator@PAV?$basic_string@DU?$char_traits@D@std@@V?$allocator@D@2@@std@@@std@@@0@@Z ; std::_Destroy_range<std::_Wrap_alloc<std::allocator<std::basic_string<char,std::char_traits<char>,std::allocator<char> > *> > >
PUBLIC	??$_Uninitialized_default_fill_n@PAPAV?$basic_string@DU?$char_traits@D@std@@V?$allocator@D@2@@std@@IU?$_Wrap_alloc@V?$allocator@PAV?$basic_string@DU?$char_traits@D@std@@V?$allocator@D@2@@std@@@std@@@2@@std@@YAXPAPAV?$basic_string@DU?$char_traits@D@std@@V?$allocator@D@2@@0@IAAU?$_Wrap_alloc@V?$allocator@PAV?$basic_string@DU?$char_traits@D@std@@V?$allocator@D@2@@std@@@std@@@0@@Z ; std::_Uninitialized_default_fill_n<std::basic_string<char,std::char_traits<char>,std::allocator<char> > * *,unsigned int,std::_Wrap_alloc<std::allocator<std::basic_string<char,std::char_traits<char>,std::allocator<char> > *> > >
PUBLIC	??$_Uninitialized_copy@PAPAV?$basic_string@DU?$char_traits@D@std@@V?$allocator@D@2@@std@@PAPAV12@U?$_Wrap_alloc@V?$allocator@PAV?$basic_string@DU?$char_traits@D@std@@V?$allocator@D@2@@std@@@std@@@2@@std@@YAPAPAV?$basic_string@DU?$char_traits@D@std@@V?$allocator@D@2@@0@PAPAV10@00AAU?$_Wrap_alloc@V?$allocator@PAV?$basic_string@DU?$char_traits@D@std@@V?$allocator@D@2@@std@@@std@@@0@@Z ; std::_Uninitialized_copy<std::basic_string<char,std::char_traits<char>,std::allocator<char> > * *,std::basic_string<char,std::char_traits<char>,std::allocator<char> > * *,std::_Wrap_alloc<std::allocator<std::basic_string<char,std::char_traits<char>,std::allocator<char> > *> > >
PUBLIC	??$destroy@V?$basic_string@DU?$char_traits@D@std@@V?$allocator@D@2@@std@@@?$_Wrap_alloc@V?$allocator@V?$basic_string@DU?$char_traits@D@std@@V?$allocator@D@2@@std@@@std@@@std@@QAEXPAV?$basic_string@DU?$char_traits@D@std@@V?$allocator@D@2@@1@@Z ; std::_Wrap_alloc<std::allocator<std::basic_string<char,std::char_traits<char>,std::allocator<char> > > >::destroy<std::basic_string<char,std::char_traits<char>,std::allocator<char> > >
PUBLIC	??$destroy@PAU?$_Tree_node@U?$pair@$$CBIN@std@@PAX@std@@@?$_Wrap_alloc@V?$allocator@U?$_Tree_node@U?$pair@$$CBIN@std@@PAX@std@@@std@@@std@@QAEXPAPAU?$_Tree_node@U?$pair@$$CBIN@std@@PAX@1@@Z ; std::_Wrap_alloc<std::allocator<std::_Tree_node<std::pair<unsigned int const ,double>,void *> > >::destroy<std::_Tree_node<std::pair<unsigned int const ,double>,void *> *>
PUBLIC	??$addressof@PAU?$_Tree_node@U?$pair@$$CBIN@std@@PAX@std@@@std@@YAPAPAU?$_Tree_node@U?$pair@$$CBIN@std@@PAX@0@AAPAU10@@Z ; std::addressof<std::_Tree_node<std::pair<unsigned int const ,double>,void *> *>
PUBLIC	??$destroy@U_Container_proxy@std@@@?$_Wrap_alloc@V?$allocator@U_Container_proxy@std@@@std@@@std@@QAEXPAU_Container_proxy@1@@Z ; std::_Wrap_alloc<std::allocator<std::_Container_proxy> >::destroy<std::_Container_proxy>
PUBLIC	??$destroy@PAE@?$_Wrap_alloc@V?$allocator@PAE@std@@@std@@QAEXPAPAE@Z ; std::_Wrap_alloc<std::allocator<unsigned char *> >::destroy<unsigned char *>
PUBLIC	??$destroy@PAV?$basic_string@DU?$char_traits@D@std@@V?$allocator@D@2@@std@@@?$_Wrap_alloc@V?$allocator@V?$basic_string@DU?$char_traits@D@std@@V?$allocator@D@2@@std@@@std@@@std@@QAEXPAPAV?$basic_string@DU?$char_traits@D@std@@V?$allocator@D@2@@1@@Z ; std::_Wrap_alloc<std::allocator<std::basic_string<char,std::char_traits<char>,std::allocator<char> > > >::destroy<std::basic_string<char,std::char_traits<char>,std::allocator<char> > *>
PUBLIC	??$?0U?$_Wrap_alloc@V?$allocator@V?$basic_string@DU?$char_traits@D@std@@V?$allocator@D@2@@std@@@std@@@std@@@?$_Wrap_alloc@V?$allocator@PAV?$basic_string@DU?$char_traits@D@std@@V?$allocator@D@2@@std@@@std@@@std@@QAE@ABU?$_Wrap_alloc@V?$allocator@V?$basic_string@DU?$char_traits@D@std@@V?$allocator@D@2@@std@@@std@@@1@@Z ; std::_Wrap_alloc<std::allocator<std::basic_string<char,std::char_traits<char>,std::allocator<char> > *> >::_Wrap_alloc<std::allocator<std::basic_string<char,std::char_traits<char>,std::allocator<char> > *> ><std::_Wrap_alloc<std::allocator<std::basic_string<char,std::char_traits<char>,std::allocator<char> > > > >
PUBLIC	??$construct@V?$basic_string@DU?$char_traits@D@std@@V?$allocator@D@2@@std@@ABV12@@?$_Wrap_alloc@V?$allocator@V?$basic_string@DU?$char_traits@D@std@@V?$allocator@D@2@@std@@@std@@@std@@QAEXPAV?$basic_string@DU?$char_traits@D@std@@V?$allocator@D@2@@1@ABV21@@Z ; std::_Wrap_alloc<std::allocator<std::basic_string<char,std::char_traits<char>,std::allocator<char> > > >::construct<std::basic_string<char,std::char_traits<char>,std::allocator<char> >,std::basic_string<char,std::char_traits<char>,std::allocator<char> > const &>
PUBLIC	??$destroy@PAPAE@?$_Wrap_alloc@V?$allocator@PAE@std@@@std@@QAEXPAPAPAE@Z ; std::_Wrap_alloc<std::allocator<unsigned char *> >::destroy<unsigned char * *>
PUBLIC	??$?0U?$_Wrap_alloc@V?$allocator@PAE@std@@@std@@@?$_Wrap_alloc@V?$allocator@PAPAE@std@@@std@@QAE@ABU?$_Wrap_alloc@V?$allocator@PAE@std@@@1@@Z ; std::_Wrap_alloc<std::allocator<unsigned char * *> >::_Wrap_alloc<std::allocator<unsigned char * *> ><std::_Wrap_alloc<std::allocator<unsigned char *> > >
PUBLIC	?allocate@?$allocator@U?$_Tree_node@U?$pair@$$CBIN@std@@PAX@std@@@std@@QAEPAU?$_Tree_node@U?$pair@$$CBIN@std@@PAX@2@I@Z ; std::allocator<std::_Tree_node<std::pair<unsigned int const ,double>,void *> >::allocate
PUBLIC	?max_size@?$allocator@V?$basic_string@DU?$char_traits@D@std@@V?$allocator@D@2@@std@@@std@@QBEIXZ ; std::allocator<std::basic_string<char,std::char_traits<char>,std::allocator<char> > >::max_size
PUBLIC	?allocate@?$_Wrap_alloc@V?$allocator@U?$_Tree_node@U?$pair@$$CBIN@std@@PAX@std@@@std@@@std@@QAEPAU?$_Tree_node@U?$pair@$$CBIN@std@@PAX@2@I@Z ; std::_Wrap_alloc<std::allocator<std::_Tree_node<std::pair<unsigned int const ,double>,void *> > >::allocate
PUBLIC	?allocate@?$allocator@U_Container_proxy@std@@@std@@QAEPAU_Container_proxy@2@I@Z ; std::allocator<std::_Container_proxy>::allocate
PUBLIC	??E?$_Tree_unchecked_const_iterator@V?$_Tree_val@U?$_Tree_simple_types@U?$pair@$$CBIN@std@@@std@@@std@@U_Iterator_base0@2@@std@@QAEAAV01@XZ ; std::_Tree_unchecked_const_iterator<std::_Tree_val<std::_Tree_simple_types<std::pair<unsigned int const ,double> > >,std::_Iterator_base0>::operator++
PUBLIC	??0?$_Tree_unchecked_const_iterator@V?$_Tree_val@U?$_Tree_simple_types@U?$pair@$$CBIN@std@@@std@@@std@@U_Iterator_base0@2@@std@@QAE@PAU?$_Tree_node@U?$pair@$$CBIN@std@@PAX@1@PBV?$_Tree_val@U?$_Tree_simple_types@U?$pair@$$CBIN@std@@@std@@@1@@Z ; std::_Tree_unchecked_const_iterator<std::_Tree_val<std::_Tree_simple_types<std::pair<unsigned int const ,double> > >,std::_Iterator_base0>::_Tree_unchecked_const_iterator<std::_Tree_val<std::_Tree_simple_types<std::pair<unsigned int const ,double> > >,std::_Iterator_base0>
PUBLIC	?max_size@?$allocator_traits@V?$allocator@V?$basic_string@DU?$char_traits@D@std@@V?$allocator@D@2@@std@@@std@@@std@@SAIABV?$allocator@V?$basic_string@DU?$char_traits@D@std@@V?$allocator@D@2@@std@@@2@@Z ; std::allocator_traits<std::allocator<std::basic_string<char,std::char_traits<char>,std::allocator<char> > > >::max_size
PUBLIC	??0?$_Tree_val@U?$_Tree_simple_types@U?$pair@$$CBIN@std@@@std@@@std@@QAE@XZ ; std::_Tree_val<std::_Tree_simple_types<std::pair<unsigned int const ,double> > >::_Tree_val<std::_Tree_simple_types<std::pair<unsigned int const ,double> > >
PUBLIC	??0?$allocator@U?$_Tree_node@U?$pair@$$CBIN@std@@PAX@std@@@std@@QAE@XZ ; std::allocator<std::_Tree_node<std::pair<unsigned int const ,double>,void *> >::allocator<std::_Tree_node<std::pair<unsigned int const ,double>,void *> >
PUBLIC	?_Buyheadnode@?$_Tree_alloc@$0A@U?$_Tree_base_types@U?$pair@$$CBIN@std@@V?$allocator@U?$pair@$$CBIN@std@@@2@@std@@@std@@QAEPAU?$_Tree_node@U?$pair@$$CBIN@std@@PAX@2@XZ ; std::_Tree_alloc<0,std::_Tree_base_types<std::pair<unsigned int const ,double>,std::allocator<std::pair<unsigned int const ,double> > > >::_Buyheadnode
PUBLIC	?deallocate@?$allocator@U_Container_proxy@std@@@std@@QAEXPAU_Container_proxy@2@I@Z ; std::allocator<std::_Container_proxy>::deallocate
PUBLIC	??0?$allocator@U_Container_proxy@std@@@std@@QAE@XZ ; std::allocator<std::_Container_proxy>::allocator<std::_Container_proxy>
PUBLIC	?allocate@?$_Wrap_alloc@V?$allocator@U_Container_proxy@std@@@std@@@std@@QAEPAU_Container_proxy@2@I@Z ; std::_Wrap_alloc<std::allocator<std::_Container_proxy> >::allocate
PUBLIC	?_Mynode@?$_Tree_unchecked_const_iterator@V?$_Tree_val@U?$_Tree_simple_types@U?$pair@$$CBIN@std@@@std@@@std@@U_Iterator_base0@2@@std@@QBEPAU?$_Tree_node@U?$pair@$$CBIN@std@@PAX@2@XZ ; std::_Tree_unchecked_const_iterator<std::_Tree_val<std::_Tree_simple_types<std::pair<unsigned int const ,double> > >,std::_Iterator_base0>::_Mynode
PUBLIC	??E?$_Tree_const_iterator@V?$_Tree_val@U?$_Tree_simple_types@U?$pair@$$CBIN@std@@@std@@@std@@@std@@QAEAAV01@XZ ; std::_Tree_const_iterator<std::_Tree_val<std::_Tree_simple_types<std::pair<unsigned int const ,double> > > >::operator++
PUBLIC	??0?$_Tree_const_iterator@V?$_Tree_val@U?$_Tree_simple_types@U?$pair@$$CBIN@std@@@std@@@std@@@std@@QAE@PAU?$_Tree_node@U?$pair@$$CBIN@std@@PAX@1@PBV?$_Tree_val@U?$_Tree_simple_types@U?$pair@$$CBIN@std@@@std@@@1@@Z ; std::_Tree_const_iterator<std::_Tree_val<std::_Tree_simple_types<std::pair<unsigned int const ,double> > > >::_Tree_const_iterator<std::_Tree_val<std::_Tree_simple_types<std::pair<unsigned int const ,double> > > >
PUBLIC	?allocate@?$allocator@PAV?$basic_string@DU?$char_traits@D@std@@V?$allocator@D@2@@std@@@std@@QAEPAPAV?$basic_string@DU?$char_traits@D@std@@V?$allocator@D@2@@2@I@Z ; std::allocator<std::basic_string<char,std::char_traits<char>,std::allocator<char> > *>::allocate
PUBLIC	?max_size@?$_Wrap_alloc@V?$allocator@V?$basic_string@DU?$char_traits@D@std@@V?$allocator@D@2@@std@@@std@@@std@@QBEIXZ ; std::_Wrap_alloc<std::allocator<std::basic_string<char,std::char_traits<char>,std::allocator<char> > > >::max_size
PUBLIC	?_Min@?$_Tree_val@U?$_Tree_simple_types@U?$pair@$$CBIN@std@@@std@@@std@@SAPAU?$_Tree_node@U?$pair@$$CBIN@std@@PAX@2@PAU32@@Z ; std::_Tree_val<std::_Tree_simple_types<std::pair<unsigned int const ,double> > >::_Min
PUBLIC	?_Max@?$_Tree_val@U?$_Tree_simple_types@U?$pair@$$CBIN@std@@@std@@@std@@SAPAU?$_Tree_node@U?$pair@$$CBIN@std@@PAX@2@PAU32@@Z ; std::_Tree_val<std::_Tree_simple_types<std::pair<unsigned int const ,double> > >::_Max
PUBLIC	?_Myval@?$_Tree_val@U?$_Tree_simple_types@U?$pair@$$CBIN@std@@@std@@@std@@SAAAU?$pair@$$CBIN@2@PAU?$_Tree_node@U?$pair@$$CBIN@std@@PAX@2@@Z ; std::_Tree_val<std::_Tree_simple_types<std::pair<unsigned int const ,double> > >::_Myval
PUBLIC	?_Isnil@?$_Tree_val@U?$_Tree_simple_types@U?$pair@$$CBIN@std@@@std@@@std@@SAAADPAU?$_Tree_node@U?$pair@$$CBIN@std@@PAX@2@@Z ; std::_Tree_val<std::_Tree_simple_types<std::pair<unsigned int const ,double> > >::_Isnil
PUBLIC	?_Color@?$_Tree_val@U?$_Tree_simple_types@U?$pair@$$CBIN@std@@@std@@@std@@SAAADPAU?$_Tree_node@U?$pair@$$CBIN@std@@PAX@2@@Z ; std::_Tree_val<std::_Tree_simple_types<std::pair<unsigned int const ,double> > >::_Color
PUBLIC	?deallocate@?$allocator@U?$_Tree_node@U?$pair@$$CBIN@std@@PAX@std@@@std@@QAEXPAU?$_Tree_node@U?$pair@$$CBIN@std@@PAX@2@I@Z ; std::allocator<std::_Tree_node<std::pair<unsigned int const ,double>,void *> >::deallocate
PUBLIC	??0?$_Wrap_alloc@V?$allocator@U?$_Tree_node@U?$pair@$$CBIN@std@@PAX@std@@@std@@@std@@QAE@XZ ; std::_Wrap_alloc<std::allocator<std::_Tree_node<std::pair<unsigned int const ,double>,void *> > >::_Wrap_alloc<std::allocator<std::_Tree_node<std::pair<unsigned int const ,double>,void *> > >
PUBLIC	??0?$_Tree_alloc@$0A@U?$_Tree_base_types@U?$pair@$$CBIN@std@@V?$allocator@U?$pair@$$CBIN@std@@@2@@std@@@std@@QAE@ABV?$allocator@U?$pair@$$CBIN@std@@@1@@Z ; std::_Tree_alloc<0,std::_Tree_base_types<std::pair<unsigned int const ,double>,std::allocator<std::pair<unsigned int const ,double> > > >::_Tree_alloc<0,std::_Tree_base_types<std::pair<unsigned int const ,double>,std::allocator<std::pair<unsigned int const ,double> > > >
PUBLIC	?_Rrotate@?$_Tree@V?$_Tmap_traits@INU?$less@I@std@@V?$allocator@U?$pair@$$CBIN@std@@@2@$0A@@std@@@std@@IAEXPAU?$_Tree_node@U?$pair@$$CBIN@std@@PAX@2@@Z ; std::_Tree<std::_Tmap_traits<unsigned int,double,std::less<unsigned int>,std::allocator<std::pair<unsigned int const ,double> >,0> >::_Rrotate
PUBLIC	?_Root@?$_Tree@V?$_Tmap_traits@INU?$less@I@std@@V?$allocator@U?$pair@$$CBIN@std@@@2@$0A@@std@@@std@@IBEAAPAU?$_Tree_node@U?$pair@$$CBIN@std@@PAX@2@XZ ; std::_Tree<std::_Tmap_traits<unsigned int,double,std::less<unsigned int>,std::allocator<std::pair<unsigned int const ,double> >,0> >::_Root
PUBLIC	?_Rmost@?$_Tree@V?$_Tmap_traits@INU?$less@I@std@@V?$allocator@U?$pair@$$CBIN@std@@@2@$0A@@std@@@std@@IBEAAPAU?$_Tree_node@U?$pair@$$CBIN@std@@PAX@2@XZ ; std::_Tree<std::_Tmap_traits<unsigned int,double,std::less<unsigned int>,std::allocator<std::pair<unsigned int const ,double> >,0> >::_Rmost
PUBLIC	?_Lrotate@?$_Tree@V?$_Tmap_traits@INU?$less@I@std@@V?$allocator@U?$pair@$$CBIN@std@@@2@$0A@@std@@@std@@IAEXPAU?$_Tree_node@U?$pair@$$CBIN@std@@PAX@2@@Z ; std::_Tree<std::_Tmap_traits<unsigned int,double,std::less<unsigned int>,std::allocator<std::pair<unsigned int const ,double> >,0> >::_Lrotate
PUBLIC	?_Erase@?$_Tree@V?$_Tmap_traits@INU?$less@I@std@@V?$allocator@U?$pair@$$CBIN@std@@@2@$0A@@std@@@std@@IAEXPAU?$_Tree_node@U?$pair@$$CBIN@std@@PAX@2@@Z ; std::_Tree<std::_Tmap_traits<unsigned int,double,std::less<unsigned int>,std::allocator<std::pair<unsigned int const ,double> >,0> >::_Erase
PUBLIC	?__autoclassinit@?$_Tree_unchecked_const_iterator@V?$_Tree_val@U?$_Tree_simple_types@U?$pair@$$CBIN@std@@@std@@@std@@U_Iterator_base0@2@@std@@QAEXI@Z ; std::_Tree_unchecked_const_iterator<std::_Tree_val<std::_Tree_simple_types<std::pair<unsigned int const ,double> > >,std::_Iterator_base0>::__autoclassinit
PUBLIC	?__autoclassinit@?$_Tree_const_iterator@V?$_Tree_val@U?$_Tree_simple_types@U?$pair@$$CBIN@std@@@std@@@std@@@std@@QAEXI@Z ; std::_Tree_const_iterator<std::_Tree_val<std::_Tree_simple_types<std::pair<unsigned int const ,double> > > >::__autoclassinit
PUBLIC	?deallocate@?$_Wrap_alloc@V?$allocator@U_Container_proxy@std@@@std@@@std@@QAEXPAU_Container_proxy@2@I@Z ; std::_Wrap_alloc<std::allocator<std::_Container_proxy> >::deallocate
PUBLIC	??0?$_Wrap_alloc@V?$allocator@U_Container_proxy@std@@@std@@@std@@QAE@XZ ; std::_Wrap_alloc<std::allocator<std::_Container_proxy> >::_Wrap_alloc<std::allocator<std::_Container_proxy> >
PUBLIC	??9?$_Tree_const_iterator@V?$_Tree_val@U?$_Tree_simple_types@U?$pair@$$CBIN@std@@@std@@@std@@@std@@QBE_NABV01@@Z ; std::_Tree_const_iterator<std::_Tree_val<std::_Tree_simple_types<std::pair<unsigned int const ,double> > > >::operator!=
PUBLIC	??8?$_Tree_const_iterator@V?$_Tree_val@U?$_Tree_simple_types@U?$pair@$$CBIN@std@@@std@@@std@@@std@@QBE_NABV01@@Z ; std::_Tree_const_iterator<std::_Tree_val<std::_Tree_simple_types<std::pair<unsigned int const ,double> > > >::operator==
PUBLIC	??E?$_Tree_const_iterator@V?$_Tree_val@U?$_Tree_simple_types@U?$pair@$$CBIN@std@@@std@@@std@@@std@@QAE?AV01@H@Z ; std::_Tree_const_iterator<std::_Tree_val<std::_Tree_simple_types<std::pair<unsigned int const ,double> > > >::operator++
PUBLIC	??0?$_Tree_iterator@V?$_Tree_val@U?$_Tree_simple_types@U?$pair@$$CBIN@std@@@std@@@std@@@std@@QAE@PAU?$_Tree_node@U?$pair@$$CBIN@std@@PAX@1@PBV?$_Tree_val@U?$_Tree_simple_types@U?$pair@$$CBIN@std@@@std@@@1@@Z ; std::_Tree_iterator<std::_Tree_val<std::_Tree_simple_types<std::pair<unsigned int const ,double> > > >::_Tree_iterator<std::_Tree_val<std::_Tree_simple_types<std::pair<unsigned int const ,double> > > >
PUBLIC	??0?$_Deque_val@U?$_Deque_simple_types@V?$basic_string@DU?$char_traits@D@std@@V?$allocator@D@2@@std@@@std@@@std@@QAE@XZ ; std::_Deque_val<std::_Deque_simple_types<std::basic_string<char,std::char_traits<char>,std::allocator<char> > > >::_Deque_val<std::_Deque_simple_types<std::basic_string<char,std::char_traits<char>,std::allocator<char> > > >
PUBLIC	?deallocate@?$allocator@PAV?$basic_string@DU?$char_traits@D@std@@V?$allocator@D@2@@std@@@std@@QAEXPAPAV?$basic_string@DU?$char_traits@D@std@@V?$allocator@D@2@@2@I@Z ; std::allocator<std::basic_string<char,std::char_traits<char>,std::allocator<char> > *>::deallocate
PUBLIC	?allocate@?$_Wrap_alloc@V?$allocator@PAV?$basic_string@DU?$char_traits@D@std@@V?$allocator@D@2@@std@@@std@@@std@@QAEPAPAV?$basic_string@DU?$char_traits@D@std@@V?$allocator@D@2@@2@I@Z ; std::_Wrap_alloc<std::allocator<std::basic_string<char,std::char_traits<char>,std::allocator<char> > *> >::allocate
PUBLIC	??0?$_Wrap_alloc@V?$allocator@V?$basic_string@DU?$char_traits@D@std@@V?$allocator@D@2@@std@@@std@@@std@@QAE@XZ ; std::_Wrap_alloc<std::allocator<std::basic_string<char,std::char_traits<char>,std::allocator<char> > > >::_Wrap_alloc<std::allocator<std::basic_string<char,std::char_traits<char>,std::allocator<char> > > >
PUBLIC	?_Alloc_proxy@?$_Deque_alloc@$0A@U?$_Deque_base_types@V?$basic_string@DU?$char_traits@D@std@@V?$allocator@D@2@@std@@V?$allocator@V?$basic_string@DU?$char_traits@D@std@@V?$allocator@D@2@@std@@@2@@std@@@std@@QAEXXZ ; std::_Deque_alloc<0,std::_Deque_base_types<std::basic_string<char,std::char_traits<char>,std::allocator<char> >,std::allocator<std::basic_string<char,std::char_traits<char>,std::allocator<char> > > > >::_Alloc_proxy
PUBLIC	?allocate@?$allocator@V?$basic_string@DU?$char_traits@D@std@@V?$allocator@D@2@@std@@@std@@QAEPAV?$basic_string@DU?$char_traits@D@std@@V?$allocator@D@2@@2@I@Z ; std::allocator<std::basic_string<char,std::char_traits<char>,std::allocator<char> > >::allocate
PUBLIC	?deallocate@?$allocator@V?$basic_string@DU?$char_traits@D@std@@V?$allocator@D@2@@std@@@std@@QAEXPAV?$basic_string@DU?$char_traits@D@std@@V?$allocator@D@2@@2@I@Z ; std::allocator<std::basic_string<char,std::char_traits<char>,std::allocator<char> > >::deallocate
PUBLIC	?_Xlen@?$deque@V?$basic_string@DU?$char_traits@D@std@@V?$allocator@D@2@@std@@V?$allocator@V?$basic_string@DU?$char_traits@D@std@@V?$allocator@D@2@@std@@@2@@std@@IBEXXZ ; std::deque<std::basic_string<char,std::char_traits<char>,std::allocator<char> >,std::allocator<std::basic_string<char,std::char_traits<char>,std::allocator<char> > > >::_Xlen
PUBLIC	?max_size@?$deque@V?$basic_string@DU?$char_traits@D@std@@V?$allocator@D@2@@std@@V?$allocator@V?$basic_string@DU?$char_traits@D@std@@V?$allocator@D@2@@std@@@2@@std@@QBEIXZ ; std::deque<std::basic_string<char,std::char_traits<char>,std::allocator<char> >,std::allocator<std::basic_string<char,std::char_traits<char>,std::allocator<char> > > >::max_size
PUBLIC	?_Right@?$_Tree_val@U?$_Tree_simple_types@U?$pair@$$CBIN@std@@@std@@@std@@SAAAPAU?$_Tree_node@U?$pair@$$CBIN@std@@PAX@2@PAU32@@Z ; std::_Tree_val<std::_Tree_simple_types<std::pair<unsigned int const ,double> > >::_Right
PUBLIC	?_Parent@?$_Tree_val@U?$_Tree_simple_types@U?$pair@$$CBIN@std@@@std@@@std@@SAAAPAU?$_Tree_node@U?$pair@$$CBIN@std@@PAX@2@PAU32@@Z ; std::_Tree_val<std::_Tree_simple_types<std::pair<unsigned int const ,double> > >::_Parent
PUBLIC	?_Left@?$_Tree_val@U?$_Tree_simple_types@U?$pair@$$CBIN@std@@@std@@@std@@SAAAPAU?$_Tree_node@U?$pair@$$CBIN@std@@PAX@2@PAU32@@Z ; std::_Tree_val<std::_Tree_simple_types<std::pair<unsigned int const ,double> > >::_Left
PUBLIC	?deallocate@?$_Wrap_alloc@V?$allocator@U?$_Tree_node@U?$pair@$$CBIN@std@@PAX@std@@@std@@@std@@QAEXPAU?$_Tree_node@U?$pair@$$CBIN@std@@PAX@2@I@Z ; std::_Wrap_alloc<std::allocator<std::_Tree_node<std::pair<unsigned int const ,double>,void *> > >::deallocate
PUBLIC	?_Getal@?$_Tree_alloc@$0A@U?$_Tree_base_types@U?$pair@$$CBIN@std@@V?$allocator@U?$pair@$$CBIN@std@@@2@@std@@@std@@QBE?AU?$_Wrap_alloc@V?$allocator@U?$_Tree_node@U?$pair@$$CBIN@std@@PAX@std@@@std@@@2@XZ ; std::_Tree_alloc<0,std::_Tree_base_types<std::pair<unsigned int const ,double>,std::allocator<std::pair<unsigned int const ,double> > > >::_Getal
PUBLIC	??0?$_Tree_buy@U?$pair@$$CBIN@std@@V?$allocator@U?$pair@$$CBIN@std@@@2@@std@@QAE@ABV?$allocator@U?$pair@$$CBIN@std@@@1@@Z ; std::_Tree_buy<std::pair<unsigned int const ,double>,std::allocator<std::pair<unsigned int const ,double> > >::_Tree_buy<std::pair<unsigned int const ,double>,std::allocator<std::pair<unsigned int const ,double> > >
PUBLIC	?_Lmost@?$_Tree@V?$_Tmap_traits@INU?$less@I@std@@V?$allocator@U?$pair@$$CBIN@std@@@2@$0A@@std@@@std@@IBEAAPAU?$_Tree_node@U?$pair@$$CBIN@std@@PAX@2@XZ ; std::_Tree<std::_Tmap_traits<unsigned int,double,std::less<unsigned int>,std::allocator<std::pair<unsigned int const ,double> >,0> >::_Lmost
PUBLIC	?clear@?$_Tree@V?$_Tmap_traits@INU?$less@I@std@@V?$allocator@U?$pair@$$CBIN@std@@@2@$0A@@std@@@std@@QAEXXZ ; std::_Tree<std::_Tmap_traits<unsigned int,double,std::less<unsigned int>,std::allocator<std::pair<unsigned int const ,double> >,0> >::clear
PUBLIC	?erase@?$_Tree@V?$_Tmap_traits@INU?$less@I@std@@V?$allocator@U?$pair@$$CBIN@std@@@2@$0A@@std@@@std@@QAE?AV?$_Tree_iterator@V?$_Tree_val@U?$_Tree_simple_types@U?$pair@$$CBIN@std@@@std@@@std@@@2@V?$_Tree_const_iterator@V?$_Tree_val@U?$_Tree_simple_types@U?$pair@$$CBIN@std@@@std@@@std@@@2@@Z ; std::_Tree<std::_Tmap_traits<unsigned int,double,std::less<unsigned int>,std::allocator<std::pair<unsigned int const ,double> >,0> >::erase
PUBLIC	?_Getblock@?$_Deque_val@U?$_Deque_simple_types@PAE@std@@@std@@QBEII@Z ; std::_Deque_val<std::_Deque_simple_types<unsigned char *> >::_Getblock
PUBLIC	??0?$_Deque_val@U?$_Deque_simple_types@PAE@std@@@std@@QAE@XZ ; std::_Deque_val<std::_Deque_simple_types<unsigned char *> >::_Deque_val<std::_Deque_simple_types<unsigned char *> >
PUBLIC	?deallocate@?$allocator@PAPAE@std@@QAEXPAPAPAEI@Z ; std::allocator<unsigned char * *>::deallocate
PUBLIC	??0?$_Wrap_alloc@V?$allocator@PAE@std@@@std@@QAE@XZ ; std::_Wrap_alloc<std::allocator<unsigned char *> >::_Wrap_alloc<std::allocator<unsigned char *> >
PUBLIC	?_Alloc_proxy@?$_Deque_alloc@$0A@U?$_Deque_base_types@PAEV?$allocator@PAE@std@@@std@@@std@@QAEXXZ ; std::_Deque_alloc<0,std::_Deque_base_types<unsigned char *,std::allocator<unsigned char *> > >::_Alloc_proxy
PUBLIC	?deallocate@?$allocator@PAE@std@@QAEXPAPAEI@Z	; std::allocator<unsigned char *>::deallocate
PUBLIC	?_Getblock@?$_Deque_val@U?$_Deque_simple_types@V?$basic_string@DU?$char_traits@D@std@@V?$allocator@D@2@@std@@@std@@@std@@QBEII@Z ; std::_Deque_val<std::_Deque_simple_types<std::basic_string<char,std::char_traits<char>,std::allocator<char> > > >::_Getblock
PUBLIC	?deallocate@?$_Wrap_alloc@V?$allocator@PAV?$basic_string@DU?$char_traits@D@std@@V?$allocator@D@2@@std@@@std@@@std@@QAEXPAPAV?$basic_string@DU?$char_traits@D@std@@V?$allocator@D@2@@2@I@Z ; std::_Wrap_alloc<std::allocator<std::basic_string<char,std::char_traits<char>,std::allocator<char> > *> >::deallocate
PUBLIC	?deallocate@?$_Wrap_alloc@V?$allocator@V?$basic_string@DU?$char_traits@D@std@@V?$allocator@D@2@@std@@@std@@@std@@QAEXPAV?$basic_string@DU?$char_traits@D@std@@V?$allocator@D@2@@2@I@Z ; std::_Wrap_alloc<std::allocator<std::basic_string<char,std::char_traits<char>,std::allocator<char> > > >::deallocate
PUBLIC	?allocate@?$_Wrap_alloc@V?$allocator@V?$basic_string@DU?$char_traits@D@std@@V?$allocator@D@2@@std@@@std@@@std@@QAEPAV?$basic_string@DU?$char_traits@D@std@@V?$allocator@D@2@@2@I@Z ; std::_Wrap_alloc<std::allocator<std::basic_string<char,std::char_traits<char>,std::allocator<char> > > >::allocate
PUBLIC	?_Getal@?$_Deque_alloc@$0A@U?$_Deque_base_types@V?$basic_string@DU?$char_traits@D@std@@V?$allocator@D@2@@std@@V?$allocator@V?$basic_string@DU?$char_traits@D@std@@V?$allocator@D@2@@std@@@2@@std@@@std@@QBE?AU?$_Wrap_alloc@V?$allocator@V?$basic_string@DU?$char_traits@D@std@@V?$allocator@D@2@@std@@@std@@@2@XZ ; std::_Deque_alloc<0,std::_Deque_base_types<std::basic_string<char,std::char_traits<char>,std::allocator<char> >,std::allocator<std::basic_string<char,std::char_traits<char>,std::allocator<char> > > > >::_Getal
PUBLIC	?_Free_proxy@?$_Deque_alloc@$0A@U?$_Deque_base_types@V?$basic_string@DU?$char_traits@D@std@@V?$allocator@D@2@@std@@V?$allocator@V?$basic_string@DU?$char_traits@D@std@@V?$allocator@D@2@@std@@@2@@std@@@std@@QAEXXZ ; std::_Deque_alloc<0,std::_Deque_base_types<std::basic_string<char,std::char_traits<char>,std::allocator<char> >,std::allocator<std::basic_string<char,std::char_traits<char>,std::allocator<char> > > > >::_Free_proxy
PUBLIC	??0?$_Deque_alloc@$0A@U?$_Deque_base_types@V?$basic_string@DU?$char_traits@D@std@@V?$allocator@D@2@@std@@V?$allocator@V?$basic_string@DU?$char_traits@D@std@@V?$allocator@D@2@@std@@@2@@std@@@std@@QAE@ABV?$allocator@V?$basic_string@DU?$char_traits@D@std@@V?$allocator@D@2@@std@@@1@@Z ; std::_Deque_alloc<0,std::_Deque_base_types<std::basic_string<char,std::char_traits<char>,std::allocator<char> >,std::allocator<std::basic_string<char,std::char_traits<char>,std::allocator<char> > > > >::_Deque_alloc<0,std::_Deque_base_types<std::basic_string<char,std::char_traits<char>,std::allocator<char> >,std::allocator<std::basic_string<char,std::char_traits<char>,std::allocator<char> > > > >
PUBLIC	??0?$allocator@V?$basic_string@DU?$char_traits@D@std@@V?$allocator@D@2@@std@@@std@@QAE@XZ ; std::allocator<std::basic_string<char,std::char_traits<char>,std::allocator<char> > >::allocator<std::basic_string<char,std::char_traits<char>,std::allocator<char> > >
PUBLIC	?_Growmap@?$deque@V?$basic_string@DU?$char_traits@D@std@@V?$allocator@D@2@@std@@V?$allocator@V?$basic_string@DU?$char_traits@D@std@@V?$allocator@D@2@@std@@@2@@std@@IAEXI@Z ; std::deque<std::basic_string<char,std::char_traits<char>,std::allocator<char> >,std::allocator<std::basic_string<char,std::char_traits<char>,std::allocator<char> > > >::_Growmap
PUBLIC	?pop_back@?$deque@V?$basic_string@DU?$char_traits@D@std@@V?$allocator@D@2@@std@@V?$allocator@V?$basic_string@DU?$char_traits@D@std@@V?$allocator@D@2@@std@@@2@@std@@QAEXXZ ; std::deque<std::basic_string<char,std::char_traits<char>,std::allocator<char> >,std::allocator<std::basic_string<char,std::char_traits<char>,std::allocator<char> > > >::pop_back
PUBLIC	?empty@?$deque@V?$basic_string@DU?$char_traits@D@std@@V?$allocator@D@2@@std@@V?$allocator@V?$basic_string@DU?$char_traits@D@std@@V?$allocator@D@2@@std@@@2@@std@@QBE_NXZ ; std::deque<std::basic_string<char,std::char_traits<char>,std::allocator<char> >,std::allocator<std::basic_string<char,std::char_traits<char>,std::allocator<char> > > >::empty
PUBLIC	?_Freeheadnode@?$_Tree_alloc@$0A@U?$_Tree_base_types@U?$pair@$$CBIN@std@@V?$allocator@U?$pair@$$CBIN@std@@@2@@std@@@std@@QAEXPAU?$_Tree_node@U?$pair@$$CBIN@std@@PAX@2@@Z ; std::_Tree_alloc<0,std::_Tree_base_types<std::pair<unsigned int const ,double>,std::allocator<std::pair<unsigned int const ,double> > > >::_Freeheadnode
PUBLIC	??0?$_Tree_comp@$0A@V?$_Tmap_traits@INU?$less@I@std@@V?$allocator@U?$pair@$$CBIN@std@@@2@$0A@@std@@@std@@QAE@ABU?$less@I@1@ABV?$allocator@U?$pair@$$CBIN@std@@@1@@Z ; std::_Tree_comp<0,std::_Tmap_traits<unsigned int,double,std::less<unsigned int>,std::allocator<std::pair<unsigned int const ,double> >,0> >::_Tree_comp<0,std::_Tmap_traits<unsigned int,double,std::less<unsigned int>,std::allocator<std::pair<unsigned int const ,double> >,0> >
PUBLIC	?erase@?$_Tree@V?$_Tmap_traits@INU?$less@I@std@@V?$allocator@U?$pair@$$CBIN@std@@@2@$0A@@std@@@std@@QAE?AV?$_Tree_iterator@V?$_Tree_val@U?$_Tree_simple_types@U?$pair@$$CBIN@std@@@std@@@std@@@2@V?$_Tree_const_iterator@V?$_Tree_val@U?$_Tree_simple_types@U?$pair@$$CBIN@std@@@std@@@std@@@2@0@Z ; std::_Tree<std::_Tmap_traits<unsigned int,double,std::less<unsigned int>,std::allocator<std::pair<unsigned int const ,double> >,0> >::erase
PUBLIC	?end@?$_Tree@V?$_Tmap_traits@INU?$less@I@std@@V?$allocator@U?$pair@$$CBIN@std@@@2@$0A@@std@@@std@@QAE?AV?$_Tree_iterator@V?$_Tree_val@U?$_Tree_simple_types@U?$pair@$$CBIN@std@@@std@@@std@@@2@XZ ; std::_Tree<std::_Tmap_traits<unsigned int,double,std::less<unsigned int>,std::allocator<std::pair<unsigned int const ,double> >,0> >::end
PUBLIC	?begin@?$_Tree@V?$_Tmap_traits@INU?$less@I@std@@V?$allocator@U?$pair@$$CBIN@std@@@2@$0A@@std@@@std@@QAE?AV?$_Tree_iterator@V?$_Tree_val@U?$_Tree_simple_types@U?$pair@$$CBIN@std@@@std@@@std@@@2@XZ ; std::_Tree<std::_Tmap_traits<unsigned int,double,std::less<unsigned int>,std::allocator<std::pair<unsigned int const ,double> >,0> >::begin
PUBLIC	?deallocate@?$_Wrap_alloc@V?$allocator@PAPAE@std@@@std@@QAEXPAPAPAEI@Z ; std::_Wrap_alloc<std::allocator<unsigned char * *> >::deallocate
PUBLIC	?deallocate@?$_Wrap_alloc@V?$allocator@PAE@std@@@std@@QAEXPAPAEI@Z ; std::_Wrap_alloc<std::allocator<unsigned char *> >::deallocate
PUBLIC	?_Getal@?$_Deque_alloc@$0A@U?$_Deque_base_types@PAEV?$allocator@PAE@std@@@std@@@std@@QBE?AU?$_Wrap_alloc@V?$allocator@PAE@std@@@2@XZ ; std::_Deque_alloc<0,std::_Deque_base_types<unsigned char *,std::allocator<unsigned char *> > >::_Getal
PUBLIC	?_Free_proxy@?$_Deque_alloc@$0A@U?$_Deque_base_types@PAEV?$allocator@PAE@std@@@std@@@std@@QAEXXZ ; std::_Deque_alloc<0,std::_Deque_base_types<unsigned char *,std::allocator<unsigned char *> > >::_Free_proxy
PUBLIC	??0?$_Deque_alloc@$0A@U?$_Deque_base_types@PAEV?$allocator@PAE@std@@@std@@@std@@QAE@ABV?$allocator@PAE@1@@Z ; std::_Deque_alloc<0,std::_Deque_base_types<unsigned char *,std::allocator<unsigned char *> > >::_Deque_alloc<0,std::_Deque_base_types<unsigned char *,std::allocator<unsigned char *> > >
PUBLIC	??0?$allocator@PAE@std@@QAE@XZ			; std::allocator<unsigned char *>::allocator<unsigned char *>
PUBLIC	?pop_back@?$deque@PAEV?$allocator@PAE@std@@@std@@QAEXXZ ; std::deque<unsigned char *,std::allocator<unsigned char *> >::pop_back
PUBLIC	?empty@?$deque@PAEV?$allocator@PAE@std@@@std@@QBE_NXZ ; std::deque<unsigned char *,std::allocator<unsigned char *> >::empty
PUBLIC	??1?$_Deque_val@U?$_Deque_simple_types@V?$basic_string@DU?$char_traits@D@std@@V?$allocator@D@2@@std@@@std@@@std@@QAE@XZ ; std::_Deque_val<std::_Deque_simple_types<std::basic_string<char,std::char_traits<char>,std::allocator<char> > > >::~_Deque_val<std::_Deque_simple_types<std::basic_string<char,std::char_traits<char>,std::allocator<char> > > >
PUBLIC	??1?$_Deque_val@U?$_Deque_simple_types@PAE@std@@@std@@QAE@XZ ; std::_Deque_val<std::_Deque_simple_types<unsigned char *> >::~_Deque_val<std::_Deque_simple_types<unsigned char *> >
PUBLIC	?Init@?$CA2AEX@$0IA@@ATL@@AAEXPBD@Z		; ATL::CA2AEX<128>::Init
PUBLIC	??1?$_Deque_alloc@$0A@U?$_Deque_base_types@V?$basic_string@DU?$char_traits@D@std@@V?$allocator@D@2@@std@@V?$allocator@V?$basic_string@DU?$char_traits@D@std@@V?$allocator@D@2@@std@@@2@@std@@@std@@QAE@XZ ; std::_Deque_alloc<0,std::_Deque_base_types<std::basic_string<char,std::char_traits<char>,std::allocator<char> >,std::allocator<std::basic_string<char,std::char_traits<char>,std::allocator<char> > > > >::~_Deque_alloc<0,std::_Deque_base_types<std::basic_string<char,std::char_traits<char>,std::allocator<char> >,std::allocator<std::basic_string<char,std::char_traits<char>,std::allocator<char> > > > >
PUBLIC	?_Tidy@?$deque@V?$basic_string@DU?$char_traits@D@std@@V?$allocator@D@2@@std@@V?$allocator@V?$basic_string@DU?$char_traits@D@std@@V?$allocator@D@2@@std@@@2@@std@@IAEXXZ ; std::deque<std::basic_string<char,std::char_traits<char>,std::allocator<char> >,std::allocator<std::basic_string<char,std::char_traits<char>,std::allocator<char> > > >::_Tidy
PUBLIC	?push_back@?$deque@V?$basic_string@DU?$char_traits@D@std@@V?$allocator@D@2@@std@@V?$allocator@V?$basic_string@DU?$char_traits@D@std@@V?$allocator@D@2@@std@@@2@@std@@QAEXABV?$basic_string@DU?$char_traits@D@std@@V?$allocator@D@2@@2@@Z ; std::deque<std::basic_string<char,std::char_traits<char>,std::allocator<char> >,std::allocator<std::basic_string<char,std::char_traits<char>,std::allocator<char> > > >::push_back
PUBLIC	??0?$deque@V?$basic_string@DU?$char_traits@D@std@@V?$allocator@D@2@@std@@V?$allocator@V?$basic_string@DU?$char_traits@D@std@@V?$allocator@D@2@@std@@@2@@std@@QAE@XZ ; std::deque<std::basic_string<char,std::char_traits<char>,std::allocator<char> >,std::allocator<std::basic_string<char,std::char_traits<char>,std::allocator<char> > > >::deque<std::basic_string<char,std::char_traits<char>,std::allocator<char> >,std::allocator<std::basic_string<char,std::char_traits<char>,std::allocator<char> > > >
PUBLIC	??1?$_Tree_alloc@$0A@U?$_Tree_base_types@U?$pair@$$CBIN@std@@V?$allocator@U?$pair@$$CBIN@std@@@2@@std@@@std@@QAE@XZ ; std::_Tree_alloc<0,std::_Tree_base_types<std::pair<unsigned int const ,double>,std::allocator<std::pair<unsigned int const ,double> > > >::~_Tree_alloc<0,std::_Tree_base_types<std::pair<unsigned int const ,double>,std::allocator<std::pair<unsigned int const ,double> > > >
PUBLIC	??0?$allocator@U?$pair@$$CBIN@std@@@std@@QAE@XZ	; std::allocator<std::pair<unsigned int const ,double> >::allocator<std::pair<unsigned int const ,double> >
PUBLIC	?_Tidy@?$_Tree@V?$_Tmap_traits@INU?$less@I@std@@V?$allocator@U?$pair@$$CBIN@std@@@2@$0A@@std@@@std@@IAEXXZ ; std::_Tree<std::_Tmap_traits<unsigned int,double,std::less<unsigned int>,std::allocator<std::pair<unsigned int const ,double> >,0> >::_Tidy
PUBLIC	??0?$_Tree@V?$_Tmap_traits@INU?$less@I@std@@V?$allocator@U?$pair@$$CBIN@std@@@2@$0A@@std@@@std@@QAE@ABU?$less@I@1@ABV?$allocator@U?$pair@$$CBIN@std@@@1@@Z ; std::_Tree<std::_Tmap_traits<unsigned int,double,std::less<unsigned int>,std::allocator<std::pair<unsigned int const ,double> >,0> >::_Tree<std::_Tmap_traits<unsigned int,double,std::less<unsigned int>,std::allocator<std::pair<unsigned int const ,double> >,0> >
PUBLIC	??1?$_Deque_alloc@$0A@U?$_Deque_base_types@PAEV?$allocator@PAE@std@@@std@@@std@@QAE@XZ ; std::_Deque_alloc<0,std::_Deque_base_types<unsigned char *,std::allocator<unsigned char *> > >::~_Deque_alloc<0,std::_Deque_base_types<unsigned char *,std::allocator<unsigned char *> > >
PUBLIC	?_Tidy@?$deque@PAEV?$allocator@PAE@std@@@std@@IAEXXZ ; std::deque<unsigned char *,std::allocator<unsigned char *> >::_Tidy
PUBLIC	??0?$deque@PAEV?$allocator@PAE@std@@@std@@QAE@XZ ; std::deque<unsigned char *,std::allocator<unsigned char *> >::deque<unsigned char *,std::allocator<unsigned char *> >
PUBLIC	??1?$_Tree_buy@U?$pair@$$CBIN@std@@V?$allocator@U?$pair@$$CBIN@std@@@2@@std@@QAE@XZ ; std::_Tree_buy<std::pair<unsigned int const ,double>,std::allocator<std::pair<unsigned int const ,double> > >::~_Tree_buy<std::pair<unsigned int const ,double>,std::allocator<std::pair<unsigned int const ,double> > >
PUBLIC	??1?$_Tree_comp@$0A@V?$_Tmap_traits@INU?$less@I@std@@V?$allocator@U?$pair@$$CBIN@std@@@2@$0A@@std@@@std@@QAE@XZ ; std::_Tree_comp<0,std::_Tmap_traits<unsigned int,double,std::less<unsigned int>,std::allocator<std::pair<unsigned int const ,double> >,0> >::~_Tree_comp<0,std::_Tmap_traits<unsigned int,double,std::less<unsigned int>,std::allocator<std::pair<unsigned int const ,double> >,0> >
PUBLIC	??B?$CA2AEX@$0IA@@ATL@@QBEPADXZ			; ATL::CA2AEX<128>::operator char *
PUBLIC	??1?$CA2AEX@$0IA@@ATL@@QAE@XZ			; ATL::CA2AEX<128>::~CA2AEX<128>
PUBLIC	??0?$CA2AEX@$0IA@@ATL@@QAE@PBD@Z		; ATL::CA2AEX<128>::CA2AEX<128>
PUBLIC	??1?$deque@V?$basic_string@DU?$char_traits@D@std@@V?$allocator@D@2@@std@@V?$allocator@V?$basic_string@DU?$char_traits@D@std@@V?$allocator@D@2@@std@@@2@@std@@QAE@XZ ; std::deque<std::basic_string<char,std::char_traits<char>,std::allocator<char> >,std::allocator<std::basic_string<char,std::char_traits<char>,std::allocator<char> > > >::~deque<std::basic_string<char,std::char_traits<char>,std::allocator<char> >,std::allocator<std::basic_string<char,std::char_traits<char>,std::allocator<char> > > >
PUBLIC	?push@?$queue@V?$basic_string@DU?$char_traits@D@std@@V?$allocator@D@2@@std@@V?$deque@V?$basic_string@DU?$char_traits@D@std@@V?$allocator@D@2@@std@@V?$allocator@V?$basic_string@DU?$char_traits@D@std@@V?$allocator@D@2@@std@@@2@@2@@std@@QAEXABV?$basic_string@DU?$char_traits@D@std@@V?$allocator@D@2@@2@@Z ; std::queue<std::basic_string<char,std::char_traits<char>,std::allocator<char> >,std::deque<std::basic_string<char,std::char_traits<char>,std::allocator<char> >,std::allocator<std::basic_string<char,std::char_traits<char>,std::allocator<char> > > > >::push
PUBLIC	??0?$queue@V?$basic_string@DU?$char_traits@D@std@@V?$allocator@D@2@@std@@V?$deque@V?$basic_string@DU?$char_traits@D@std@@V?$allocator@D@2@@std@@V?$allocator@V?$basic_string@DU?$char_traits@D@std@@V?$allocator@D@2@@std@@@2@@2@@std@@QAE@XZ ; std::queue<std::basic_string<char,std::char_traits<char>,std::allocator<char> >,std::deque<std::basic_string<char,std::char_traits<char>,std::allocator<char> >,std::allocator<std::basic_string<char,std::char_traits<char>,std::allocator<char> > > > >::queue<std::basic_string<char,std::char_traits<char>,std::allocator<char> >,std::deque<std::basic_string<char,std::char_traits<char>,std::allocator<char> >,std::allocator<std::basic_string<char,std::char_traits<char>,std::allocator<char> > > > >
PUBLIC	??1?$_Tree@V?$_Tmap_traits@INU?$less@I@std@@V?$allocator@U?$pair@$$CBIN@std@@@2@$0A@@std@@@std@@QAE@XZ ; std::_Tree<std::_Tmap_traits<unsigned int,double,std::less<unsigned int>,std::allocator<std::pair<unsigned int const ,double> >,0> >::~_Tree<std::_Tmap_traits<unsigned int,double,std::less<unsigned int>,std::allocator<std::pair<unsigned int const ,double> >,0> >
PUBLIC	??0?$map@INU?$less@I@std@@V?$allocator@U?$pair@$$CBIN@std@@@2@@std@@QAE@XZ ; std::map<unsigned int,double,std::less<unsigned int>,std::allocator<std::pair<unsigned int const ,double> > >::map<unsigned int,double,std::less<unsigned int>,std::allocator<std::pair<unsigned int const ,double> > >
PUBLIC	??1?$deque@PAEV?$allocator@PAE@std@@@std@@QAE@XZ ; std::deque<unsigned char *,std::allocator<unsigned char *> >::~deque<unsigned char *,std::allocator<unsigned char *> >
PUBLIC	??0?$queue@PAEV?$deque@PAEV?$allocator@PAE@std@@@std@@@std@@QAE@XZ ; std::queue<unsigned char *,std::deque<unsigned char *,std::allocator<unsigned char *> > >::queue<unsigned char *,std::deque<unsigned char *,std::allocator<unsigned char *> > >
PUBLIC	??9ATL@@YA_NABV?$CStringT@DV?$StrTraitMFC_DLL@DV?$ChTraitsCRT@D@ATL@@@@@0@PBD@Z ; ATL::operator!=
PUBLIC	?ReturnPath@@YA?AV?$CStringT@DV?$StrTraitMFC_DLL@DV?$ChTraitsCRT@D@ATL@@@@@ATL@@XZ ; ReturnPath
PUBLIC	?SetConfig@@YAXV?$CStringT@DV?$StrTraitMFC_DLL@DV?$ChTraitsCRT@D@ATL@@@@@ATL@@N@Z ; SetConfig
PUBLIC	?ReadConfig@@YA_NXZ				; ReadConfig
PUBLIC	?__autoclassinit@?$_Deque_val@U?$_Deque_simple_types@V?$basic_string@DU?$char_traits@D@std@@V?$allocator@D@2@@std@@@std@@@std@@QAEXI@Z ; std::_Deque_val<std::_Deque_simple_types<std::basic_string<char,std::char_traits<char>,std::allocator<char> > > >::__autoclassinit
PUBLIC	?__autoclassinit@?$_Deque_alloc@$0A@U?$_Deque_base_types@V?$basic_string@DU?$char_traits@D@std@@V?$allocator@D@2@@std@@V?$allocator@V?$basic_string@DU?$char_traits@D@std@@V?$allocator@D@2@@std@@@2@@std@@@std@@QAEXI@Z ; std::_Deque_alloc<0,std::_Deque_base_types<std::basic_string<char,std::char_traits<char>,std::allocator<char> >,std::allocator<std::basic_string<char,std::char_traits<char>,std::allocator<char> > > > >::__autoclassinit
PUBLIC	?__autoclassinit@?$deque@V?$basic_string@DU?$char_traits@D@std@@V?$allocator@D@2@@std@@V?$allocator@V?$basic_string@DU?$char_traits@D@std@@V?$allocator@D@2@@std@@@2@@std@@QAEXI@Z ; std::deque<std::basic_string<char,std::char_traits<char>,std::allocator<char> >,std::allocator<std::basic_string<char,std::char_traits<char>,std::allocator<char> > > >::__autoclassinit
PUBLIC	??1?$queue@V?$basic_string@DU?$char_traits@D@std@@V?$allocator@D@2@@std@@V?$deque@V?$basic_string@DU?$char_traits@D@std@@V?$allocator@D@2@@std@@V?$allocator@V?$basic_string@DU?$char_traits@D@std@@V?$allocator@D@2@@std@@@2@@2@@std@@QAE@XZ ; std::queue<std::basic_string<char,std::char_traits<char>,std::allocator<char> >,std::deque<std::basic_string<char,std::char_traits<char>,std::allocator<char> >,std::allocator<std::basic_string<char,std::char_traits<char>,std::allocator<char> > > > >::~queue<std::basic_string<char,std::char_traits<char>,std::allocator<char> >,std::deque<std::basic_string<char,std::char_traits<char>,std::allocator<char> >,std::allocator<std::basic_string<char,std::char_traits<char>,std::allocator<char> > > > >
PUBLIC	?__autoclassinit@?$queue@V?$basic_string@DU?$char_traits@D@std@@V?$allocator@D@2@@std@@V?$deque@V?$basic_string@DU?$char_traits@D@std@@V?$allocator@D@2@@std@@V?$allocator@V?$basic_string@DU?$char_traits@D@std@@V?$allocator@D@2@@std@@@2@@2@@std@@QAEXI@Z ; std::queue<std::basic_string<char,std::char_traits<char>,std::allocator<char> >,std::deque<std::basic_string<char,std::char_traits<char>,std::allocator<char> >,std::allocator<std::basic_string<char,std::char_traits<char>,std::allocator<char> > > > >::__autoclassinit
PUBLIC	?__autoclassinit@?$_Tree_val@U?$_Tree_simple_types@U?$pair@$$CBIN@std@@@std@@@std@@QAEXI@Z ; std::_Tree_val<std::_Tree_simple_types<std::pair<unsigned int const ,double> > >::__autoclassinit
PUBLIC	?__autoclassinit@?$_Tree_alloc@$0A@U?$_Tree_base_types@U?$pair@$$CBIN@std@@V?$allocator@U?$pair@$$CBIN@std@@@2@@std@@@std@@QAEXI@Z ; std::_Tree_alloc<0,std::_Tree_base_types<std::pair<unsigned int const ,double>,std::allocator<std::pair<unsigned int const ,double> > > >::__autoclassinit
PUBLIC	?__autoclassinit@?$_Tree_buy@U?$pair@$$CBIN@std@@V?$allocator@U?$pair@$$CBIN@std@@@2@@std@@QAEXI@Z ; std::_Tree_buy<std::pair<unsigned int const ,double>,std::allocator<std::pair<unsigned int const ,double> > >::__autoclassinit
PUBLIC	?__autoclassinit@?$_Tree_comp@$0A@V?$_Tmap_traits@INU?$less@I@std@@V?$allocator@U?$pair@$$CBIN@std@@@2@$0A@@std@@@std@@QAEXI@Z ; std::_Tree_comp<0,std::_Tmap_traits<unsigned int,double,std::less<unsigned int>,std::allocator<std::pair<unsigned int const ,double> >,0> >::__autoclassinit
PUBLIC	?__autoclassinit@?$_Tree@V?$_Tmap_traits@INU?$less@I@std@@V?$allocator@U?$pair@$$CBIN@std@@@2@$0A@@std@@@std@@QAEXI@Z ; std::_Tree<std::_Tmap_traits<unsigned int,double,std::less<unsigned int>,std::allocator<std::pair<unsigned int const ,double> >,0> >::__autoclassinit
PUBLIC	??1?$map@INU?$less@I@std@@V?$allocator@U?$pair@$$CBIN@std@@@2@@std@@QAE@XZ ; std::map<unsigned int,double,std::less<unsigned int>,std::allocator<std::pair<unsigned int const ,double> > >::~map<unsigned int,double,std::less<unsigned int>,std::allocator<std::pair<unsigned int const ,double> > >
PUBLIC	?__autoclassinit@?$map@INU?$less@I@std@@V?$allocator@U?$pair@$$CBIN@std@@@2@@std@@QAEXI@Z ; std::map<unsigned int,double,std::less<unsigned int>,std::allocator<std::pair<unsigned int const ,double> > >::__autoclassinit
PUBLIC	?__autoclassinit@?$_Deque_val@U?$_Deque_simple_types@PAE@std@@@std@@QAEXI@Z ; std::_Deque_val<std::_Deque_simple_types<unsigned char *> >::__autoclassinit
PUBLIC	?__autoclassinit@?$_Deque_alloc@$0A@U?$_Deque_base_types@PAEV?$allocator@PAE@std@@@std@@@std@@QAEXI@Z ; std::_Deque_alloc<0,std::_Deque_base_types<unsigned char *,std::allocator<unsigned char *> > >::__autoclassinit
PUBLIC	?__autoclassinit@?$deque@PAEV?$allocator@PAE@std@@@std@@QAEXI@Z ; std::deque<unsigned char *,std::allocator<unsigned char *> >::__autoclassinit
PUBLIC	??1?$queue@PAEV?$deque@PAEV?$allocator@PAE@std@@@std@@@std@@QAE@XZ ; std::queue<unsigned char *,std::deque<unsigned char *,std::allocator<unsigned char *> > >::~queue<unsigned char *,std::deque<unsigned char *,std::allocator<unsigned char *> > >
PUBLIC	?__autoclassinit@?$queue@PAEV?$deque@PAEV?$allocator@PAE@std@@@std@@@std@@QAEXI@Z ; std::queue<unsigned char *,std::deque<unsigned char *,std::allocator<unsigned char *> > >::__autoclassinit
PUBLIC	?g_decDriver@@3V?$CStringT@DV?$StrTraitMFC_DLL@DV?$ChTraitsCRT@D@ATL@@@@@ATL@@A ; g_decDriver
PUBLIC	?g_strSaveDir@@3V?$CStringT@DV?$StrTraitMFC_DLL@DV?$ChTraitsCRT@D@ATL@@@@@ATL@@A ; g_strSaveDir
PUBLIC	?g_strTmpDir@@3V?$CStringT@DV?$StrTraitMFC_DLL@DV?$ChTraitsCRT@D@ATL@@@@@ATL@@A ; g_strTmpDir
PUBLIC	?g_ConfigPath@@3V?$CStringT@DV?$StrTraitMFC_DLL@DV?$ChTraitsCRT@D@ATL@@@@@ATL@@A ; g_ConfigPath
PUBLIC	?g_strIP@@3V?$CStringT@DV?$StrTraitMFC_DLL@DV?$ChTraitsCRT@D@ATL@@@@@ATL@@A ; g_strIP
PUBLIC	?g_strName@@3V?$CStringT@DV?$StrTraitMFC_DLL@DV?$ChTraitsCRT@D@ATL@@@@@ATL@@A ; g_strName
PUBLIC	?g_strID@@3V?$CStringT@DV?$StrTraitMFC_DLL@DV?$ChTraitsCRT@D@ATL@@@@@ATL@@A ; g_strID
PUBLIC	?g_strPatientInfo@@3V?$CStringT@DV?$StrTraitMFC_DLL@DV?$ChTraitsCRT@D@ATL@@@@@ATL@@A ; g_strPatientInfo
PUBLIC	?strAvg@@3V?$CStringT@DV?$StrTraitMFC_DLL@DV?$ChTraitsCRT@D@ATL@@@@@ATL@@A ; strAvg
PUBLIC	?strPeek@@3V?$CStringT@DV?$StrTraitMFC_DLL@DV?$ChTraitsCRT@D@ATL@@@@@ATL@@A ; strPeek
PUBLIC	?g_Video_list@@3V?$queue@PAEV?$deque@PAEV?$allocator@PAE@std@@@std@@@std@@A ; g_Video_list
PUBLIC	?g_Map_Sharpness@@3V?$map@INU?$less@I@std@@V?$allocator@U?$pair@$$CBIN@std@@@2@@std@@A ; g_Map_Sharpness
PUBLIC	?g_Operate_list@@3V?$queue@V?$basic_string@DU?$char_traits@D@std@@V?$allocator@D@2@@std@@V?$deque@V?$basic_string@DU?$char_traits@D@std@@V?$allocator@D@2@@std@@V?$allocator@V?$basic_string@DU?$char_traits@D@std@@V?$allocator@D@2@@std@@@2@@2@@std@@A ; g_Operate_list
?g_decDriver@@3V?$CStringT@DV?$StrTraitMFC_DLL@DV?$ChTraitsCRT@D@ATL@@@@@ATL@@A DD 01H DUP (?) ; g_decDriver
?g_strSaveDir@@3V?$CStringT@DV?$StrTraitMFC_DLL@DV?$ChTraitsCRT@D@ATL@@@@@ATL@@A DD 01H DUP (?) ; g_strSaveDir
?g_strTmpDir@@3V?$CStringT@DV?$StrTraitMFC_DLL@DV?$ChTraitsCRT@D@ATL@@@@@ATL@@A DD 01H DUP (?) ; g_strTmpDir
?g_ConfigPath@@3V?$CStringT@DV?$StrTraitMFC_DLL@DV?$ChTraitsCRT@D@ATL@@@@@ATL@@A DD 01H DUP (?) ; g_ConfigPath
?g_strIP@@3V?$CStringT@DV?$StrTraitMFC_DLL@DV?$ChTraitsCRT@D@ATL@@@@@ATL@@A DD 01H DUP (?) ; g_strIP
?g_strName@@3V?$CStringT@DV?$StrTraitMFC_DLL@DV?$ChTraitsCRT@D@ATL@@@@@ATL@@A DD 01H DUP (?) ; g_strName
?g_strID@@3V?$CStringT@DV?$StrTraitMFC_DLL@DV?$ChTraitsCRT@D@ATL@@@@@ATL@@A DD 01H DUP (?) ; g_strID
?g_strPatientInfo@@3V?$CStringT@DV?$StrTraitMFC_DLL@DV?$ChTraitsCRT@D@ATL@@@@@ATL@@A DD 01H DUP (?) ; g_strPatientInfo
?strAvg@@3V?$CStringT@DV?$StrTraitMFC_DLL@DV?$ChTraitsCRT@D@ATL@@@@@ATL@@A DD 01H DUP (?) ; strAvg
?strPeek@@3V?$CStringT@DV?$StrTraitMFC_DLL@DV?$ChTraitsCRT@D@ATL@@@@@ATL@@A DD 01H DUP (?) ; strPeek
?g_Video_list@@3V?$queue@PAEV?$deque@PAEV?$allocator@PAE@std@@@std@@@std@@A DB 014H DUP (?) ; g_Video_list
	ALIGN	8

?g_Map_Sharpness@@3V?$map@INU?$less@I@std@@V?$allocator@U?$pair@$$CBIN@std@@@2@@std@@A DQ 01H DUP (?) ; g_Map_Sharpness
?g_Operate_list@@3V?$queue@V?$basic_string@DU?$char_traits@D@std@@V?$allocator@D@2@@std@@V?$deque@V?$basic_string@DU?$char_traits@D@std@@V?$allocator@D@2@@std@@V?$allocator@V?$basic_string@DU?$char_traits@D@std@@V?$allocator@D@2@@std@@@2@@2@@std@@A DB 014H DUP (?) ; g_Operate_list
_BSS	ENDS
;	COMDAT xdata$x
xdata$x	SEGMENT
__ehfuncinfo$?ReadConfig@@YA_NXZ DD 019930522H
	DD	04H
	DD	FLAT:__unwindtable$?ReadConfig@@YA_NXZ
	DD	2 DUP(00H)
	DD	2 DUP(00H)
	DD	00H
	DD	01H
__unwindtable$?ReadConfig@@YA_NXZ DD 0ffffffffH
	DD	FLAT:__unwindfunclet$?ReadConfig@@YA_NXZ$0
	DD	00H
	DD	FLAT:__unwindfunclet$?ReadConfig@@YA_NXZ$1
	DD	01H
	DD	FLAT:__unwindfunclet$?ReadConfig@@YA_NXZ$2
	DD	02H
	DD	FLAT:__unwindfunclet$?ReadConfig@@YA_NXZ$3
xdata$x	ENDS
;	COMDAT xdata$x
xdata$x	SEGMENT
__ehfuncinfo$?SetConfig@@YAXV?$CStringT@DV?$StrTraitMFC_DLL@DV?$ChTraitsCRT@D@ATL@@@@@ATL@@N@Z DD 019930522H
	DD	06H
	DD	FLAT:__unwindtable$?SetConfig@@YAXV?$CStringT@DV?$StrTraitMFC_DLL@DV?$ChTraitsCRT@D@ATL@@@@@ATL@@N@Z
	DD	2 DUP(00H)
	DD	2 DUP(00H)
	DD	00H
	DD	01H
__unwindtable$?SetConfig@@YAXV?$CStringT@DV?$StrTraitMFC_DLL@DV?$ChTraitsCRT@D@ATL@@@@@ATL@@N@Z DD 0ffffffffH
	DD	FLAT:__unwindfunclet$?SetConfig@@YAXV?$CStringT@DV?$StrTraitMFC_DLL@DV?$ChTraitsCRT@D@ATL@@@@@ATL@@N@Z$0
	DD	00H
	DD	FLAT:__unwindfunclet$?SetConfig@@YAXV?$CStringT@DV?$StrTraitMFC_DLL@DV?$ChTraitsCRT@D@ATL@@@@@ATL@@N@Z$1
	DD	01H
	DD	FLAT:__unwindfunclet$?SetConfig@@YAXV?$CStringT@DV?$StrTraitMFC_DLL@DV?$ChTraitsCRT@D@ATL@@@@@ATL@@N@Z$2
	DD	02H
	DD	FLAT:__unwindfunclet$?SetConfig@@YAXV?$CStringT@DV?$StrTraitMFC_DLL@DV?$ChTraitsCRT@D@ATL@@@@@ATL@@N@Z$3
	DD	03H
	DD	FLAT:__unwindfunclet$?SetConfig@@YAXV?$CStringT@DV?$StrTraitMFC_DLL@DV?$ChTraitsCRT@D@ATL@@@@@ATL@@N@Z$4
	DD	02H
	DD	FLAT:__unwindfunclet$?SetConfig@@YAXV?$CStringT@DV?$StrTraitMFC_DLL@DV?$ChTraitsCRT@D@ATL@@@@@ATL@@N@Z$4
xdata$x	ENDS
;	COMDAT xdata$x
xdata$x	SEGMENT
__ehfuncinfo$?ReturnPath@@YA?AV?$CStringT@DV?$StrTraitMFC_DLL@DV?$ChTraitsCRT@D@ATL@@@@@ATL@@XZ DD 019930522H
	DD	02H
	DD	FLAT:__unwindtable$?ReturnPath@@YA?AV?$CStringT@DV?$StrTraitMFC_DLL@DV?$ChTraitsCRT@D@ATL@@@@@ATL@@XZ
	DD	2 DUP(00H)
	DD	2 DUP(00H)
	DD	00H
	DD	01H
__unwindtable$?ReturnPath@@YA?AV?$CStringT@DV?$StrTraitMFC_DLL@DV?$ChTraitsCRT@D@ATL@@@@@ATL@@XZ DD 0ffffffffH
	DD	FLAT:__unwindfunclet$?ReturnPath@@YA?AV?$CStringT@DV?$StrTraitMFC_DLL@DV?$ChTraitsCRT@D@ATL@@@@@ATL@@XZ$0
	DD	00H
	DD	FLAT:__unwindfunclet$?ReturnPath@@YA?AV?$CStringT@DV?$StrTraitMFC_DLL@DV?$ChTraitsCRT@D@ATL@@@@@ATL@@XZ$1
xdata$x	ENDS
;	COMDAT xdata$x
xdata$x	SEGMENT
__ehfuncinfo$??0?$_Deque_alloc@$0A@U?$_Deque_base_types@PAEV?$allocator@PAE@std@@@std@@@std@@QAE@ABV?$allocator@PAE@1@@Z DD 019930522H
	DD	01H
	DD	FLAT:__unwindtable$??0?$_Deque_alloc@$0A@U?$_Deque_base_types@PAEV?$allocator@PAE@std@@@std@@@std@@QAE@ABV?$allocator@PAE@1@@Z
	DD	2 DUP(00H)
	DD	2 DUP(00H)
	DD	00H
	DD	01H
__unwindtable$??0?$_Deque_alloc@$0A@U?$_Deque_base_types@PAEV?$allocator@PAE@std@@@std@@@std@@QAE@ABV?$allocator@PAE@1@@Z DD 0ffffffffH
	DD	FLAT:__unwindfunclet$??0?$_Deque_alloc@$0A@U?$_Deque_base_types@PAEV?$allocator@PAE@std@@@std@@@std@@QAE@ABV?$allocator@PAE@1@@Z$0
xdata$x	ENDS
;	COMDAT xdata$x
xdata$x	SEGMENT
__ehfuncinfo$??0?$_Deque_alloc@$0A@U?$_Deque_base_types@V?$basic_string@DU?$char_traits@D@std@@V?$allocator@D@2@@std@@V?$allocator@V?$basic_string@DU?$char_traits@D@std@@V?$allocator@D@2@@std@@@2@@std@@@std@@QAE@ABV?$allocator@V?$basic_string@DU?$char_traits@D@std@@V?$allocator@D@2@@std@@@1@@Z DD 019930522H
	DD	01H
	DD	FLAT:__unwindtable$??0?$_Deque_alloc@$0A@U?$_Deque_base_types@V?$basic_string@DU?$char_traits@D@std@@V?$allocator@D@2@@std@@V?$allocator@V?$basic_string@DU?$char_traits@D@std@@V?$allocator@D@2@@std@@@2@@std@@@std@@QAE@ABV?$allocator@V?$basic_string@DU?$char_traits@D@std@@V?$allocator@D@2@@std@@@1@@Z
	DD	2 DUP(00H)
	DD	2 DUP(00H)
	DD	00H
	DD	01H
__unwindtable$??0?$_Deque_alloc@$0A@U?$_Deque_base_types@V?$basic_string@DU?$char_traits@D@std@@V?$allocator@D@2@@std@@V?$allocator@V?$basic_string@DU?$char_traits@D@std@@V?$allocator@D@2@@std@@@2@@std@@@std@@QAE@ABV?$allocator@V?$basic_string@DU?$char_traits@D@std@@V?$allocator@D@2@@std@@@1@@Z DD 0ffffffffH
	DD	FLAT:__unwindfunclet$??0?$_Deque_alloc@$0A@U?$_Deque_base_types@V?$basic_string@DU?$char_traits@D@std@@V?$allocator@D@2@@std@@V?$allocator@V?$basic_string@DU?$char_traits@D@std@@V?$allocator@D@2@@std@@@2@@std@@@std@@QAE@ABV?$allocator@V?$basic_string@DU?$char_traits@D@std@@V?$allocator@D@2@@std@@@1@@Z$0
xdata$x	ENDS
;	COMDAT xdata$x
xdata$x	SEGMENT
__ehfuncinfo$?_Buyheadnode@?$_Tree_alloc@$0A@U?$_Tree_base_types@U?$pair@$$CBIN@std@@V?$allocator@U?$pair@$$CBIN@std@@@2@@std@@@std@@QAEPAU?$_Tree_node@U?$pair@$$CBIN@std@@PAX@2@XZ DD 019930522H
	DD	02H
	DD	FLAT:__unwindtable$?_Buyheadnode@?$_Tree_alloc@$0A@U?$_Tree_base_types@U?$pair@$$CBIN@std@@V?$allocator@U?$pair@$$CBIN@std@@@2@@std@@@std@@QAEPAU?$_Tree_node@U?$pair@$$CBIN@std@@PAX@2@XZ
	DD	01H
	DD	FLAT:__tryblocktable$?_Buyheadnode@?$_Tree_alloc@$0A@U?$_Tree_base_types@U?$pair@$$CBIN@std@@V?$allocator@U?$pair@$$CBIN@std@@@2@@std@@@std@@QAEPAU?$_Tree_node@U?$pair@$$CBIN@std@@PAX@2@XZ
	DD	2 DUP(00H)
	DD	00H
	DD	01H
__unwindtable$?_Buyheadnode@?$_Tree_alloc@$0A@U?$_Tree_base_types@U?$pair@$$CBIN@std@@V?$allocator@U?$pair@$$CBIN@std@@@2@@std@@@std@@QAEPAU?$_Tree_node@U?$pair@$$CBIN@std@@PAX@2@XZ DD 0ffffffffH
	DD	00H
	DD	0ffffffffH
	DD	00H
__tryblocktable$?_Buyheadnode@?$_Tree_alloc@$0A@U?$_Tree_base_types@U?$pair@$$CBIN@std@@V?$allocator@U?$pair@$$CBIN@std@@@2@@std@@@std@@QAEPAU?$_Tree_node@U?$pair@$$CBIN@std@@PAX@2@XZ DD 00H
	DD	00H
	DD	01H
	DD	01H
	DD	FLAT:__catchsym$?_Buyheadnode@?$_Tree_alloc@$0A@U?$_Tree_base_types@U?$pair@$$CBIN@std@@V?$allocator@U?$pair@$$CBIN@std@@@2@@std@@@std@@QAEPAU?$_Tree_node@U?$pair@$$CBIN@std@@PAX@2@XZ$2
__catchsym$?_Buyheadnode@?$_Tree_alloc@$0A@U?$_Tree_base_types@U?$pair@$$CBIN@std@@V?$allocator@U?$pair@$$CBIN@std@@@2@@std@@@std@@QAEPAU?$_Tree_node@U?$pair@$$CBIN@std@@PAX@2@XZ$2 DD 040H
	DD	00H
	DD	00H
	DD	FLAT:__catch$?_Buyheadnode@?$_Tree_alloc@$0A@U?$_Tree_base_types@U?$pair@$$CBIN@std@@V?$allocator@U?$pair@$$CBIN@std@@@2@@std@@@std@@QAEPAU?$_Tree_node@U?$pair@$$CBIN@std@@PAX@2@XZ$0
xdata$x	ENDS
;	COMDAT xdata$x
xdata$x	SEGMENT
__ehfuncinfo$?construct@?$allocator@V?$basic_string@DU?$char_traits@D@std@@V?$allocator@D@2@@std@@@std@@QAEXPAV?$basic_string@DU?$char_traits@D@std@@V?$allocator@D@2@@2@ABV32@@Z DD 019930522H
	DD	01H
	DD	FLAT:__unwindtable$?construct@?$allocator@V?$basic_string@DU?$char_traits@D@std@@V?$allocator@D@2@@std@@@std@@QAEXPAV?$basic_string@DU?$char_traits@D@std@@V?$allocator@D@2@@2@ABV32@@Z
	DD	2 DUP(00H)
	DD	2 DUP(00H)
	DD	00H
	DD	01H
__unwindtable$?construct@?$allocator@V?$basic_string@DU?$char_traits@D@std@@V?$allocator@D@2@@std@@@std@@QAEXPAV?$basic_string@DU?$char_traits@D@std@@V?$allocator@D@2@@2@ABV32@@Z DD 0ffffffffH
	DD	FLAT:__unwindfunclet$?construct@?$allocator@V?$basic_string@DU?$char_traits@D@std@@V?$allocator@D@2@@std@@@std@@QAEXPAV?$basic_string@DU?$char_traits@D@std@@V?$allocator@D@2@@2@ABV32@@Z$0
xdata$x	ENDS
;	COMDAT xdata$x
xdata$x	SEGMENT
__ehfuncinfo$??$construct@U_Container_proxy@std@@U12@@?$allocator@U_Container_proxy@std@@@std@@QAEXPAU_Container_proxy@1@$$QAU21@@Z DD 019930522H
	DD	01H
	DD	FLAT:__unwindtable$??$construct@U_Container_proxy@std@@U12@@?$allocator@U_Container_proxy@std@@@std@@QAEXPAU_Container_proxy@1@$$QAU21@@Z
	DD	2 DUP(00H)
	DD	2 DUP(00H)
	DD	00H
	DD	01H
__unwindtable$??$construct@U_Container_proxy@std@@U12@@?$allocator@U_Container_proxy@std@@@std@@QAEXPAU_Container_proxy@1@$$QAU21@@Z DD 0ffffffffH
	DD	FLAT:__unwindfunclet$??$construct@U_Container_proxy@std@@U12@@?$allocator@U_Container_proxy@std@@@std@@QAEXPAU_Container_proxy@1@$$QAU21@@Z$0
xdata$x	ENDS
;	COMDAT xdata$x
xdata$x	SEGMENT
__ehfuncinfo$??$construct@PAU?$_Tree_node@U?$pair@$$CBIN@std@@PAX@std@@AAPAU12@@?$allocator@U?$_Tree_node@U?$pair@$$CBIN@std@@PAX@std@@@std@@QAEXPAPAU?$_Tree_node@U?$pair@$$CBIN@std@@PAX@1@AAPAU21@@Z DD 019930522H
	DD	01H
	DD	FLAT:__unwindtable$??$construct@PAU?$_Tree_node@U?$pair@$$CBIN@std@@PAX@std@@AAPAU12@@?$allocator@U?$_Tree_node@U?$pair@$$CBIN@std@@PAX@std@@@std@@QAEXPAPAU?$_Tree_node@U?$pair@$$CBIN@std@@PAX@1@AAPAU21@@Z
	DD	2 DUP(00H)
	DD	2 DUP(00H)
	DD	00H
	DD	01H
__unwindtable$??$construct@PAU?$_Tree_node@U?$pair@$$CBIN@std@@PAX@std@@AAPAU12@@?$allocator@U?$_Tree_node@U?$pair@$$CBIN@std@@PAX@std@@@std@@QAEXPAPAU?$_Tree_node@U?$pair@$$CBIN@std@@PAX@1@AAPAU21@@Z DD 0ffffffffH
	DD	FLAT:__unwindfunclet$??$construct@PAU?$_Tree_node@U?$pair@$$CBIN@std@@PAX@std@@AAPAU12@@?$allocator@U?$_Tree_node@U?$pair@$$CBIN@std@@PAX@std@@@std@@QAEXPAPAU?$_Tree_node@U?$pair@$$CBIN@std@@PAX@1@AAPAU21@@Z$0
_g_decDriver$initializer$ DD FLAT:??__Eg_decDriver@@YAXXZ
_g_strSaveDir$initializer$ DD FLAT:??__Eg_strSaveDir@@YAXXZ
_g_strTmpDir$initializer$ DD FLAT:??__Eg_strTmpDir@@YAXXZ
_g_ConfigPath$initializer$ DD FLAT:??__Eg_ConfigPath@@YAXXZ
_g_strIP$initializer$ DD FLAT:??__Eg_strIP@@YAXXZ
_g_strName$initializer$ DD FLAT:??__Eg_strName@@YAXXZ
_g_strID$initializer$ DD FLAT:??__Eg_strID@@YAXXZ
_g_strPatientInfo$initializer$ DD FLAT:??__Eg_strPatientInfo@@YAXXZ
_strAvg$initializer$ DD FLAT:??__EstrAvg@@YAXXZ
_strPeek$initializer$ DD FLAT:??__EstrPeek@@YAXXZ
_g_Video_list$initializer$ DD FLAT:??__Eg_Video_list@@YAXXZ
_g_Map_Sharpness$initializer$ DD FLAT:??__Eg_Map_Sharpness@@YAXXZ
_g_Operate_list$initializer$ DD FLAT:??__Eg_Operate_list@@YAXXZ
; Function compile flags: /Odtp
; File e:\work_wm\hxijy_code\endoscopemfc2012_menu_changepara_youhua_savepic_usb_1114_twothread_svepic_save5\src\endoscopemfc\datatype.cpp
;	COMDAT ??__Eg_decDriver@@YAXXZ
text$yc	SEGMENT
??__Eg_decDriver@@YAXXZ PROC				; `dynamic initializer for 'g_decDriver'', COMDAT

; 65   : CString g_decDriver = _T( "" );			//u

  00000	55		 push	 ebp
  00001	8b ec		 mov	 ebp, esp
  00003	68 00 00 00 00	 push	 OFFSET $SG4294963869
  00008	b9 00 00 00 00	 mov	 ecx, OFFSET ?g_decDriver@@3V?$CStringT@DV?$StrTraitMFC_DLL@DV?$ChTraitsCRT@D@ATL@@@@@ATL@@A ; g_decDriver
  0000d	ff 15 00 00 00
	00		 call	 DWORD PTR __imp_??0?$CStringT@DV?$StrTraitMFC_DLL@DV?$ChTraitsCRT@D@ATL@@@@@ATL@@QAE@PBD@Z
  00013	68 00 00 00 00	 push	 OFFSET ??__Fg_decDriver@@YAXXZ ; `dynamic atexit destructor for 'g_decDriver''
  00018	e8 00 00 00 00	 call	 _atexit
  0001d	83 c4 04	 add	 esp, 4
  00020	5d		 pop	 ebp
  00021	c3		 ret	 0
??__Eg_decDriver@@YAXXZ ENDP				; `dynamic initializer for 'g_decDriver''
text$yc	ENDS
; Function compile flags: /Odtp
;	COMDAT ??__Fg_decDriver@@YAXXZ
text$yd	SEGMENT
??__Fg_decDriver@@YAXXZ PROC				; `dynamic atexit destructor for 'g_decDriver'', COMDAT
  00000	55		 push	 ebp
  00001	8b ec		 mov	 ebp, esp
  00003	b9 00 00 00 00	 mov	 ecx, OFFSET ?g_decDriver@@3V?$CStringT@DV?$StrTraitMFC_DLL@DV?$ChTraitsCRT@D@ATL@@@@@ATL@@A ; g_decDriver
  00008	ff 15 00 00 00
	00		 call	 DWORD PTR __imp_??1?$CStringT@DV?$StrTraitMFC_DLL@DV?$ChTraitsCRT@D@ATL@@@@@ATL@@QAE@XZ
  0000e	5d		 pop	 ebp
  0000f	c3		 ret	 0
??__Fg_decDriver@@YAXXZ ENDP				; `dynamic atexit destructor for 'g_decDriver''
text$yd	ENDS
; Function compile flags: /Odtp
; File e:\work_wm\hxijy_code\endoscopemfc2012_menu_changepara_youhua_savepic_usb_1114_twothread_svepic_save5\src\endoscopemfc\datatype.cpp
;	COMDAT ??__Eg_strSaveDir@@YAXXZ
text$yc	SEGMENT
??__Eg_strSaveDir@@YAXXZ PROC				; `dynamic initializer for 'g_strSaveDir'', COMDAT

; 67   : CString g_strSaveDir = _T("DATA\\");//

  00000	55		 push	 ebp
  00001	8b ec		 mov	 ebp, esp
  00003	68 00 00 00 00	 push	 OFFSET $SG4294963868
  00008	b9 00 00 00 00	 mov	 ecx, OFFSET ?g_strSaveDir@@3V?$CStringT@DV?$StrTraitMFC_DLL@DV?$ChTraitsCRT@D@ATL@@@@@ATL@@A ; g_strSaveDir
  0000d	ff 15 00 00 00
	00		 call	 DWORD PTR __imp_??0?$CStringT@DV?$StrTraitMFC_DLL@DV?$ChTraitsCRT@D@ATL@@@@@ATL@@QAE@PBD@Z
  00013	68 00 00 00 00	 push	 OFFSET ??__Fg_strSaveDir@@YAXXZ ; `dynamic atexit destructor for 'g_strSaveDir''
  00018	e8 00 00 00 00	 call	 _atexit
  0001d	83 c4 04	 add	 esp, 4
  00020	5d		 pop	 ebp
  00021	c3		 ret	 0
??__Eg_strSaveDir@@YAXXZ ENDP				; `dynamic initializer for 'g_strSaveDir''
text$yc	ENDS
; Function compile flags: /Odtp
;	COMDAT ??__Fg_strSaveDir@@YAXXZ
text$yd	SEGMENT
??__Fg_strSaveDir@@YAXXZ PROC				; `dynamic atexit destructor for 'g_strSaveDir'', COMDAT
  00000	55		 push	 ebp
  00001	8b ec		 mov	 ebp, esp
  00003	b9 00 00 00 00	 mov	 ecx, OFFSET ?g_strSaveDir@@3V?$CStringT@DV?$StrTraitMFC_DLL@DV?$ChTraitsCRT@D@ATL@@@@@ATL@@A ; g_strSaveDir
  00008	ff 15 00 00 00
	00		 call	 DWORD PTR __imp_??1?$CStringT@DV?$StrTraitMFC_DLL@DV?$ChTraitsCRT@D@ATL@@@@@ATL@@QAE@XZ
  0000e	5d		 pop	 ebp
  0000f	c3		 ret	 0
??__Fg_strSaveDir@@YAXXZ ENDP				; `dynamic atexit destructor for 'g_strSaveDir''
text$yd	ENDS
; Function compile flags: /Odtp
; File e:\work_wm\hxijy_code\endoscopemfc2012_menu_changepara_youhua_savepic_usb_1114_twothread_svepic_save5\src\endoscopemfc\datatype.cpp
;	COMDAT ??__Eg_strTmpDir@@YAXXZ
text$yc	SEGMENT
??__Eg_strTmpDir@@YAXXZ PROC				; `dynamic initializer for 'g_strTmpDir'', COMDAT

; 68   : CString g_strTmpDir = _T("D:\\Temp\\");	//

  00000	55		 push	 ebp
  00001	8b ec		 mov	 ebp, esp
  00003	68 00 00 00 00	 push	 OFFSET $SG4294963867
  00008	b9 00 00 00 00	 mov	 ecx, OFFSET ?g_strTmpDir@@3V?$CStringT@DV?$StrTraitMFC_DLL@DV?$ChTraitsCRT@D@ATL@@@@@ATL@@A ; g_strTmpDir
  0000d	ff 15 00 00 00
	00		 call	 DWORD PTR __imp_??0?$CStringT@DV?$StrTraitMFC_DLL@DV?$ChTraitsCRT@D@ATL@@@@@ATL@@QAE@PBD@Z
  00013	68 00 00 00 00	 push	 OFFSET ??__Fg_strTmpDir@@YAXXZ ; `dynamic atexit destructor for 'g_strTmpDir''
  00018	e8 00 00 00 00	 call	 _atexit
  0001d	83 c4 04	 add	 esp, 4
  00020	5d		 pop	 ebp
  00021	c3		 ret	 0
??__Eg_strTmpDir@@YAXXZ ENDP				; `dynamic initializer for 'g_strTmpDir''
text$yc	ENDS
; Function compile flags: /Odtp
;	COMDAT ??__Fg_strTmpDir@@YAXXZ
text$yd	SEGMENT
??__Fg_strTmpDir@@YAXXZ PROC				; `dynamic atexit destructor for 'g_strTmpDir'', COMDAT
  00000	55		 push	 ebp
  00001	8b ec		 mov	 ebp, esp
  00003	b9 00 00 00 00	 mov	 ecx, OFFSET ?g_strTmpDir@@3V?$CStringT@DV?$StrTraitMFC_DLL@DV?$ChTraitsCRT@D@ATL@@@@@ATL@@A ; g_strTmpDir
  00008	ff 15 00 00 00
	00		 call	 DWORD PTR __imp_??1?$CStringT@DV?$StrTraitMFC_DLL@DV?$ChTraitsCRT@D@ATL@@@@@ATL@@QAE@XZ
  0000e	5d		 pop	 ebp
  0000f	c3		 ret	 0
??__Fg_strTmpDir@@YAXXZ ENDP				; `dynamic atexit destructor for 'g_strTmpDir''
text$yd	ENDS
; Function compile flags: /Odtp
; File e:\work_wm\hxijy_code\endoscopemfc2012_menu_changepara_youhua_savepic_usb_1114_twothread_svepic_save5\src\endoscopemfc\datatype.cpp
;	COMDAT ??__Eg_ConfigPath@@YAXXZ
text$yc	SEGMENT
??__Eg_ConfigPath@@YAXXZ PROC				; `dynamic initializer for 'g_ConfigPath'', COMDAT

; 69   : CString g_ConfigPath = _T( "" );		//

  00000	55		 push	 ebp
  00001	8b ec		 mov	 ebp, esp
  00003	68 00 00 00 00	 push	 OFFSET $SG4294963866
  00008	b9 00 00 00 00	 mov	 ecx, OFFSET ?g_ConfigPath@@3V?$CStringT@DV?$StrTraitMFC_DLL@DV?$ChTraitsCRT@D@ATL@@@@@ATL@@A ; g_ConfigPath
  0000d	ff 15 00 00 00
	00		 call	 DWORD PTR __imp_??0?$CStringT@DV?$StrTraitMFC_DLL@DV?$ChTraitsCRT@D@ATL@@@@@ATL@@QAE@PBD@Z
  00013	68 00 00 00 00	 push	 OFFSET ??__Fg_ConfigPath@@YAXXZ ; `dynamic atexit destructor for 'g_ConfigPath''
  00018	e8 00 00 00 00	 call	 _atexit
  0001d	83 c4 04	 add	 esp, 4
  00020	5d		 pop	 ebp
  00021	c3		 ret	 0
??__Eg_ConfigPath@@YAXXZ ENDP				; `dynamic initializer for 'g_ConfigPath''
text$yc	ENDS
; Function compile flags: /Odtp
;	COMDAT ??__Fg_ConfigPath@@YAXXZ
text$yd	SEGMENT
??__Fg_ConfigPath@@YAXXZ PROC				; `dynamic atexit destructor for 'g_ConfigPath'', COMDAT
  00000	55		 push	 ebp
  00001	8b ec		 mov	 ebp, esp
  00003	b9 00 00 00 00	 mov	 ecx, OFFSET ?g_ConfigPath@@3V?$CStringT@DV?$StrTraitMFC_DLL@DV?$ChTraitsCRT@D@ATL@@@@@ATL@@A ; g_ConfigPath
  00008	ff 15 00 00 00
	00		 call	 DWORD PTR __imp_??1?$CStringT@DV?$StrTraitMFC_DLL@DV?$ChTraitsCRT@D@ATL@@@@@ATL@@QAE@XZ
  0000e	5d		 pop	 ebp
  0000f	c3		 ret	 0
??__Fg_ConfigPath@@YAXXZ ENDP				; `dynamic atexit destructor for 'g_ConfigPath''
text$yd	ENDS
; Function compile flags: /Odtp
; File e:\work_wm\hxijy_code\endoscopemfc2012_menu_changepara_youhua_savepic_usb_1114_twothread_svepic_save5\src\endoscopemfc\datatype.cpp
;	COMDAT ??__Eg_strIP@@YAXXZ
text$yc	SEGMENT
??__Eg_strIP@@YAXXZ PROC				; `dynamic initializer for 'g_strIP'', COMDAT

; 70   : CString g_strIP = _T("192.168.1.145");	//ip

  00000	55		 push	 ebp
  00001	8b ec		 mov	 ebp, esp
  00003	68 00 00 00 00	 push	 OFFSET $SG4294963865
  00008	b9 00 00 00 00	 mov	 ecx, OFFSET ?g_strIP@@3V?$CStringT@DV?$StrTraitMFC_DLL@DV?$ChTraitsCRT@D@ATL@@@@@ATL@@A ; g_strIP
  0000d	ff 15 00 00 00
	00		 call	 DWORD PTR __imp_??0?$CStringT@DV?$StrTraitMFC_DLL@DV?$ChTraitsCRT@D@ATL@@@@@ATL@@QAE@PBD@Z
  00013	68 00 00 00 00	 push	 OFFSET ??__Fg_strIP@@YAXXZ ; `dynamic atexit destructor for 'g_strIP''
  00018	e8 00 00 00 00	 call	 _atexit
  0001d	83 c4 04	 add	 esp, 4
  00020	5d		 pop	 ebp
  00021	c3		 ret	 0
??__Eg_strIP@@YAXXZ ENDP				; `dynamic initializer for 'g_strIP''
text$yc	ENDS
; Function compile flags: /Odtp
;	COMDAT ??__Fg_strIP@@YAXXZ
text$yd	SEGMENT
??__Fg_strIP@@YAXXZ PROC				; `dynamic atexit destructor for 'g_strIP'', COMDAT
  00000	55		 push	 ebp
  00001	8b ec		 mov	 ebp, esp
  00003	b9 00 00 00 00	 mov	 ecx, OFFSET ?g_strIP@@3V?$CStringT@DV?$StrTraitMFC_DLL@DV?$ChTraitsCRT@D@ATL@@@@@ATL@@A ; g_strIP
  00008	ff 15 00 00 00
	00		 call	 DWORD PTR __imp_??1?$CStringT@DV?$StrTraitMFC_DLL@DV?$ChTraitsCRT@D@ATL@@@@@ATL@@QAE@XZ
  0000e	5d		 pop	 ebp
  0000f	c3		 ret	 0
??__Fg_strIP@@YAXXZ ENDP				; `dynamic atexit destructor for 'g_strIP''
text$yd	ENDS
; Function compile flags: /Odtp
; File e:\work_wm\hxijy_code\endoscopemfc2012_menu_changepara_youhua_savepic_usb_1114_twothread_svepic_save5\src\endoscopemfc\datatype.cpp
;	COMDAT ??__Eg_strName@@YAXXZ
text$yc	SEGMENT
??__Eg_strName@@YAXXZ PROC				; `dynamic initializer for 'g_strName'', COMDAT

; 71   : CString g_strName = _T( "" );	//

  00000	55		 push	 ebp
  00001	8b ec		 mov	 ebp, esp
  00003	68 00 00 00 00	 push	 OFFSET $SG4294963864
  00008	b9 00 00 00 00	 mov	 ecx, OFFSET ?g_strName@@3V?$CStringT@DV?$StrTraitMFC_DLL@DV?$ChTraitsCRT@D@ATL@@@@@ATL@@A ; g_strName
  0000d	ff 15 00 00 00
	00		 call	 DWORD PTR __imp_??0?$CStringT@DV?$StrTraitMFC_DLL@DV?$ChTraitsCRT@D@ATL@@@@@ATL@@QAE@PBD@Z
  00013	68 00 00 00 00	 push	 OFFSET ??__Fg_strName@@YAXXZ ; `dynamic atexit destructor for 'g_strName''
  00018	e8 00 00 00 00	 call	 _atexit
  0001d	83 c4 04	 add	 esp, 4
  00020	5d		 pop	 ebp
  00021	c3		 ret	 0
??__Eg_strName@@YAXXZ ENDP				; `dynamic initializer for 'g_strName''
text$yc	ENDS
; Function compile flags: /Odtp
;	COMDAT ??__Fg_strName@@YAXXZ
text$yd	SEGMENT
??__Fg_strName@@YAXXZ PROC				; `dynamic atexit destructor for 'g_strName'', COMDAT
  00000	55		 push	 ebp
  00001	8b ec		 mov	 ebp, esp
  00003	b9 00 00 00 00	 mov	 ecx, OFFSET ?g_strName@@3V?$CStringT@DV?$StrTraitMFC_DLL@DV?$ChTraitsCRT@D@ATL@@@@@ATL@@A ; g_strName
  00008	ff 15 00 00 00
	00		 call	 DWORD PTR __imp_??1?$CStringT@DV?$StrTraitMFC_DLL@DV?$ChTraitsCRT@D@ATL@@@@@ATL@@QAE@XZ
  0000e	5d		 pop	 ebp
  0000f	c3		 ret	 0
??__Fg_strName@@YAXXZ ENDP				; `dynamic atexit destructor for 'g_strName''
text$yd	ENDS
; Function compile flags: /Odtp
; File e:\work_wm\hxijy_code\endoscopemfc2012_menu_changepara_youhua_savepic_usb_1114_twothread_svepic_save5\src\endoscopemfc\datatype.cpp
;	COMDAT ??__Eg_strID@@YAXXZ
text$yc	SEGMENT
??__Eg_strID@@YAXXZ PROC				; `dynamic initializer for 'g_strID'', COMDAT

; 72   : CString g_strID =_T( "" );		//ID

  00000	55		 push	 ebp
  00001	8b ec		 mov	 ebp, esp
  00003	68 00 00 00 00	 push	 OFFSET $SG4294963863
  00008	b9 00 00 00 00	 mov	 ecx, OFFSET ?g_strID@@3V?$CStringT@DV?$StrTraitMFC_DLL@DV?$ChTraitsCRT@D@ATL@@@@@ATL@@A ; g_strID
  0000d	ff 15 00 00 00
	00		 call	 DWORD PTR __imp_??0?$CStringT@DV?$StrTraitMFC_DLL@DV?$ChTraitsCRT@D@ATL@@@@@ATL@@QAE@PBD@Z
  00013	68 00 00 00 00	 push	 OFFSET ??__Fg_strID@@YAXXZ ; `dynamic atexit destructor for 'g_strID''
  00018	e8 00 00 00 00	 call	 _atexit
  0001d	83 c4 04	 add	 esp, 4
  00020	5d		 pop	 ebp
  00021	c3		 ret	 0
??__Eg_strID@@YAXXZ ENDP				; `dynamic initializer for 'g_strID''
text$yc	ENDS
; Function compile flags: /Odtp
;	COMDAT ??__Fg_strID@@YAXXZ
text$yd	SEGMENT
??__Fg_strID@@YAXXZ PROC				; `dynamic atexit destructor for 'g_strID'', COMDAT
  00000	55		 push	 ebp
  00001	8b ec		 mov	 ebp, esp
  00003	b9 00 00 00 00	 mov	 ecx, OFFSET ?g_strID@@3V?$CStringT@DV?$StrTraitMFC_DLL@DV?$ChTraitsCRT@D@ATL@@@@@ATL@@A ; g_strID
  00008	ff 15 00 00 00
	00		 call	 DWORD PTR __imp_??1?$CStringT@DV?$StrTraitMFC_DLL@DV?$ChTraitsCRT@D@ATL@@@@@ATL@@QAE@XZ
  0000e	5d		 pop	 ebp
  0000f	c3		 ret	 0
??__Fg_strID@@YAXXZ ENDP				; `dynamic atexit destructor for 'g_strID''
text$yd	ENDS
; Function compile flags: /Odtp
; File e:\work_wm\hxijy_code\endoscopemfc2012_menu_changepara_youhua_savepic_usb_1114_twothread_svepic_save5\src\endoscopemfc\datatype.cpp
;	COMDAT ??__Eg_strPatientInfo@@YAXXZ
text$yc	SEGMENT
??__Eg_strPatientInfo@@YAXXZ PROC			; `dynamic initializer for 'g_strPatientInfo'', COMDAT

; 73   : CString g_strPatientInfo=_T("");

  00000	55		 push	 ebp
  00001	8b ec		 mov	 ebp, esp
  00003	68 00 00 00 00	 push	 OFFSET $SG4294963862
  00008	b9 00 00 00 00	 mov	 ecx, OFFSET ?g_strPatientInfo@@3V?$CStringT@DV?$StrTraitMFC_DLL@DV?$ChTraitsCRT@D@ATL@@@@@ATL@@A ; g_strPatientInfo
  0000d	ff 15 00 00 00
	00		 call	 DWORD PTR __imp_??0?$CStringT@DV?$StrTraitMFC_DLL@DV?$ChTraitsCRT@D@ATL@@@@@ATL@@QAE@PBD@Z
  00013	68 00 00 00 00	 push	 OFFSET ??__Fg_strPatientInfo@@YAXXZ ; `dynamic atexit destructor for 'g_strPatientInfo''
  00018	e8 00 00 00 00	 call	 _atexit
  0001d	83 c4 04	 add	 esp, 4
  00020	5d		 pop	 ebp
  00021	c3		 ret	 0
??__Eg_strPatientInfo@@YAXXZ ENDP			; `dynamic initializer for 'g_strPatientInfo''
text$yc	ENDS
; Function compile flags: /Odtp
;	COMDAT ??__Fg_strPatientInfo@@YAXXZ
text$yd	SEGMENT
??__Fg_strPatientInfo@@YAXXZ PROC			; `dynamic atexit destructor for 'g_strPatientInfo'', COMDAT
  00000	55		 push	 ebp
  00001	8b ec		 mov	 ebp, esp
  00003	b9 00 00 00 00	 mov	 ecx, OFFSET ?g_strPatientInfo@@3V?$CStringT@DV?$StrTraitMFC_DLL@DV?$ChTraitsCRT@D@ATL@@@@@ATL@@A ; g_strPatientInfo
  00008	ff 15 00 00 00
	00		 call	 DWORD PTR __imp_??1?$CStringT@DV?$StrTraitMFC_DLL@DV?$ChTraitsCRT@D@ATL@@@@@ATL@@QAE@XZ
  0000e	5d		 pop	 ebp
  0000f	c3		 ret	 0
??__Fg_strPatientInfo@@YAXXZ ENDP			; `dynamic atexit destructor for 'g_strPatientInfo''
text$yd	ENDS
; Function compile flags: /Odtp
; File e:\work_wm\hxijy_code\endoscopemfc2012_menu_changepara_youhua_savepic_usb_1114_twothread_svepic_save5\src\endoscopemfc\datatype.cpp
;	COMDAT ??__EstrAvg@@YAXXZ
text$yc	SEGMENT
??__EstrAvg@@YAXXZ PROC					; `dynamic initializer for 'strAvg'', COMDAT

; 75   : CString strAvg = _T("");		//

  00000	55		 push	 ebp
  00001	8b ec		 mov	 ebp, esp
  00003	68 00 00 00 00	 push	 OFFSET $SG4294963861
  00008	b9 00 00 00 00	 mov	 ecx, OFFSET ?strAvg@@3V?$CStringT@DV?$StrTraitMFC_DLL@DV?$ChTraitsCRT@D@ATL@@@@@ATL@@A ; strAvg
  0000d	ff 15 00 00 00
	00		 call	 DWORD PTR __imp_??0?$CStringT@DV?$StrTraitMFC_DLL@DV?$ChTraitsCRT@D@ATL@@@@@ATL@@QAE@PBD@Z
  00013	68 00 00 00 00	 push	 OFFSET ??__FstrAvg@@YAXXZ ; `dynamic atexit destructor for 'strAvg''
  00018	e8 00 00 00 00	 call	 _atexit
  0001d	83 c4 04	 add	 esp, 4
  00020	5d		 pop	 ebp
  00021	c3		 ret	 0
??__EstrAvg@@YAXXZ ENDP					; `dynamic initializer for 'strAvg''
text$yc	ENDS
; Function compile flags: /Odtp
;	COMDAT ??__FstrAvg@@YAXXZ
text$yd	SEGMENT
??__FstrAvg@@YAXXZ PROC					; `dynamic atexit destructor for 'strAvg'', COMDAT
  00000	55		 push	 ebp
  00001	8b ec		 mov	 ebp, esp
  00003	b9 00 00 00 00	 mov	 ecx, OFFSET ?strAvg@@3V?$CStringT@DV?$StrTraitMFC_DLL@DV?$ChTraitsCRT@D@ATL@@@@@ATL@@A ; strAvg
  00008	ff 15 00 00 00
	00		 call	 DWORD PTR __imp_??1?$CStringT@DV?$StrTraitMFC_DLL@DV?$ChTraitsCRT@D@ATL@@@@@ATL@@QAE@XZ
  0000e	5d		 pop	 ebp
  0000f	c3		 ret	 0
??__FstrAvg@@YAXXZ ENDP					; `dynamic atexit destructor for 'strAvg''
text$yd	ENDS
; Function compile flags: /Odtp
; File e:\work_wm\hxijy_code\endoscopemfc2012_menu_changepara_youhua_savepic_usb_1114_twothread_svepic_save5\src\endoscopemfc\datatype.cpp
;	COMDAT ??__EstrPeek@@YAXXZ
text$yc	SEGMENT
??__EstrPeek@@YAXXZ PROC				; `dynamic initializer for 'strPeek'', COMDAT

; 76   : CString strPeek = _T("");		//

  00000	55		 push	 ebp
  00001	8b ec		 mov	 ebp, esp
  00003	68 00 00 00 00	 push	 OFFSET $SG4294963860
  00008	b9 00 00 00 00	 mov	 ecx, OFFSET ?strPeek@@3V?$CStringT@DV?$StrTraitMFC_DLL@DV?$ChTraitsCRT@D@ATL@@@@@ATL@@A ; strPeek
  0000d	ff 15 00 00 00
	00		 call	 DWORD PTR __imp_??0?$CStringT@DV?$StrTraitMFC_DLL@DV?$ChTraitsCRT@D@ATL@@@@@ATL@@QAE@PBD@Z
  00013	68 00 00 00 00	 push	 OFFSET ??__FstrPeek@@YAXXZ ; `dynamic atexit destructor for 'strPeek''
  00018	e8 00 00 00 00	 call	 _atexit
  0001d	83 c4 04	 add	 esp, 4
  00020	5d		 pop	 ebp
  00021	c3		 ret	 0
??__EstrPeek@@YAXXZ ENDP				; `dynamic initializer for 'strPeek''
text$yc	ENDS
; Function compile flags: /Odtp
;	COMDAT ??__FstrPeek@@YAXXZ
text$yd	SEGMENT
??__FstrPeek@@YAXXZ PROC				; `dynamic atexit destructor for 'strPeek'', COMDAT
  00000	55		 push	 ebp
  00001	8b ec		 mov	 ebp, esp
  00003	b9 00 00 00 00	 mov	 ecx, OFFSET ?strPeek@@3V?$CStringT@DV?$StrTraitMFC_DLL@DV?$ChTraitsCRT@D@ATL@@@@@ATL@@A ; strPeek
  00008	ff 15 00 00 00
	00		 call	 DWORD PTR __imp_??1?$CStringT@DV?$StrTraitMFC_DLL@DV?$ChTraitsCRT@D@ATL@@@@@ATL@@QAE@XZ
  0000e	5d		 pop	 ebp
  0000f	c3		 ret	 0
??__FstrPeek@@YAXXZ ENDP				; `dynamic atexit destructor for 'strPeek''
text$yd	ENDS
; Function compile flags: /Odtp
; File e:\work_wm\hxijy_code\endoscopemfc2012_menu_changepara_youhua_savepic_usb_1114_twothread_svepic_save5\src\endoscopemfc\datatype.cpp
;	COMDAT ??__Eg_Video_list@@YAXXZ
text$yc	SEGMENT
??__Eg_Video_list@@YAXXZ PROC				; `dynamic initializer for 'g_Video_list'', COMDAT

; 78   : queue<BYTE *> g_Video_list;	//

  00000	55		 push	 ebp
  00001	8b ec		 mov	 ebp, esp
  00003	6a 01		 push	 1
  00005	b9 00 00 00 00	 mov	 ecx, OFFSET ?g_Video_list@@3V?$queue@PAEV?$deque@PAEV?$allocator@PAE@std@@@std@@@std@@A ; g_Video_list
  0000a	e8 00 00 00 00	 call	 ?__autoclassinit@?$queue@PAEV?$deque@PAEV?$allocator@PAE@std@@@std@@@std@@QAEXI@Z
  0000f	b9 00 00 00 00	 mov	 ecx, OFFSET ?g_Video_list@@3V?$queue@PAEV?$deque@PAEV?$allocator@PAE@std@@@std@@@std@@A ; g_Video_list
  00014	e8 00 00 00 00	 call	 ??0?$queue@PAEV?$deque@PAEV?$allocator@PAE@std@@@std@@@std@@QAE@XZ ; std::queue<unsigned char *,std::deque<unsigned char *,std::allocator<unsigned char *> > >::queue<unsigned char *,std::deque<unsigned char *,std::allocator<unsigned char *> > >
  00019	68 00 00 00 00	 push	 OFFSET ??__Fg_Video_list@@YAXXZ ; `dynamic atexit destructor for 'g_Video_list''
  0001e	e8 00 00 00 00	 call	 _atexit
  00023	83 c4 04	 add	 esp, 4
  00026	5d		 pop	 ebp
  00027	c3		 ret	 0
??__Eg_Video_list@@YAXXZ ENDP				; `dynamic initializer for 'g_Video_list''
text$yc	ENDS
; Function compile flags: /Odtp
;	COMDAT ??__Fg_Video_list@@YAXXZ
text$yd	SEGMENT
??__Fg_Video_list@@YAXXZ PROC				; `dynamic atexit destructor for 'g_Video_list'', COMDAT
  00000	55		 push	 ebp
  00001	8b ec		 mov	 ebp, esp
  00003	b9 00 00 00 00	 mov	 ecx, OFFSET ?g_Video_list@@3V?$queue@PAEV?$deque@PAEV?$allocator@PAE@std@@@std@@@std@@A ; g_Video_list
  00008	e8 00 00 00 00	 call	 ??1?$queue@PAEV?$deque@PAEV?$allocator@PAE@std@@@std@@@std@@QAE@XZ
  0000d	5d		 pop	 ebp
  0000e	c3		 ret	 0
??__Fg_Video_list@@YAXXZ ENDP				; `dynamic atexit destructor for 'g_Video_list''
text$yd	ENDS
; Function compile flags: /Odtp
;	COMDAT ?__autoclassinit@?$queue@PAEV?$deque@PAEV?$allocator@PAE@std@@@std@@@std@@QAEXI@Z
_TEXT	SEGMENT
_this$ = -4						; size = 4
_$initVBases$ = 8					; size = 4
?__autoclassinit@?$queue@PAEV?$deque@PAEV?$allocator@PAE@std@@@std@@@std@@QAEXI@Z PROC ; std::queue<unsigned char *,std::deque<unsigned char *,std::allocator<unsigned char *> > >::__autoclassinit, COMDAT
; _this$ = ecx
  00000	55		 push	 ebp
  00001	8b ec		 mov	 ebp, esp
  00003	51		 push	 ecx
  00004	89 4d fc	 mov	 DWORD PTR _this$[ebp], ecx
  00007	6a 01		 push	 1
  00009	8b 4d fc	 mov	 ecx, DWORD PTR _this$[ebp]
  0000c	e8 00 00 00 00	 call	 ?__autoclassinit@?$deque@PAEV?$allocator@PAE@std@@@std@@QAEXI@Z
  00011	8b e5		 mov	 esp, ebp
  00013	5d		 pop	 ebp
  00014	c2 04 00	 ret	 4
?__autoclassinit@?$queue@PAEV?$deque@PAEV?$allocator@PAE@std@@@std@@@std@@QAEXI@Z ENDP ; std::queue<unsigned char *,std::deque<unsigned char *,std::allocator<unsigned char *> > >::__autoclassinit
_TEXT	ENDS
; Function compile flags: /Odtp
;	COMDAT ??1?$queue@PAEV?$deque@PAEV?$allocator@PAE@std@@@std@@@std@@QAE@XZ
_TEXT	SEGMENT
_this$ = -4						; size = 4
??1?$queue@PAEV?$deque@PAEV?$allocator@PAE@std@@@std@@@std@@QAE@XZ PROC ; std::queue<unsigned char *,std::deque<unsigned char *,std::allocator<unsigned char *> > >::~queue<unsigned char *,std::deque<unsigned char *,std::allocator<unsigned char *> > >, COMDAT
; _this$ = ecx
  00000	55		 push	 ebp
  00001	8b ec		 mov	 ebp, esp
  00003	51		 push	 ecx
  00004	89 4d fc	 mov	 DWORD PTR _this$[ebp], ecx
  00007	8b 4d fc	 mov	 ecx, DWORD PTR _this$[ebp]
  0000a	e8 00 00 00 00	 call	 ??1?$deque@PAEV?$allocator@PAE@std@@@std@@QAE@XZ ; std::deque<unsigned char *,std::allocator<unsigned char *> >::~deque<unsigned char *,std::allocator<unsigned char *> >
  0000f	8b e5		 mov	 esp, ebp
  00011	5d		 pop	 ebp
  00012	c3		 ret	 0
??1?$queue@PAEV?$deque@PAEV?$allocator@PAE@std@@@std@@@std@@QAE@XZ ENDP ; std::queue<unsigned char *,std::deque<unsigned char *,std::allocator<unsigned char *> > >::~queue<unsigned char *,std::deque<unsigned char *,std::allocator<unsigned char *> > >
_TEXT	ENDS
; Function compile flags: /Odtp
;	COMDAT ?__autoclassinit@?$deque@PAEV?$allocator@PAE@std@@@std@@QAEXI@Z
_TEXT	SEGMENT
_this$ = -4						; size = 4
_$initVBases$ = 8					; size = 4
?__autoclassinit@?$deque@PAEV?$allocator@PAE@std@@@std@@QAEXI@Z PROC ; std::deque<unsigned char *,std::allocator<unsigned char *> >::__autoclassinit, COMDAT
; _this$ = ecx
  00000	55		 push	 ebp
  00001	8b ec		 mov	 ebp, esp
  00003	51		 push	 ecx
  00004	89 4d fc	 mov	 DWORD PTR _this$[ebp], ecx
  00007	6a 00		 push	 0
  00009	8b 4d fc	 mov	 ecx, DWORD PTR _this$[ebp]
  0000c	e8 00 00 00 00	 call	 ?__autoclassinit@?$_Deque_alloc@$0A@U?$_Deque_base_types@PAEV?$allocator@PAE@std@@@std@@@std@@QAEXI@Z
  00011	8b e5		 mov	 esp, ebp
  00013	5d		 pop	 ebp
  00014	c2 04 00	 ret	 4
?__autoclassinit@?$deque@PAEV?$allocator@PAE@std@@@std@@QAEXI@Z ENDP ; std::deque<unsigned char *,std::allocator<unsigned char *> >::__autoclassinit
_TEXT	ENDS
; Function compile flags: /Odtp
;	COMDAT ?__autoclassinit@?$_Deque_alloc@$0A@U?$_Deque_base_types@PAEV?$allocator@PAE@std@@@std@@@std@@QAEXI@Z
_TEXT	SEGMENT
_this$ = -4						; size = 4
_$initVBases$ = 8					; size = 4
?__autoclassinit@?$_Deque_alloc@$0A@U?$_Deque_base_types@PAEV?$allocator@PAE@std@@@std@@@std@@QAEXI@Z PROC ; std::_Deque_alloc<0,std::_Deque_base_types<unsigned char *,std::allocator<unsigned char *> > >::__autoclassinit, COMDAT
; _this$ = ecx
  00000	55		 push	 ebp
  00001	8b ec		 mov	 ebp, esp
  00003	51		 push	 ecx
  00004	89 4d fc	 mov	 DWORD PTR _this$[ebp], ecx
  00007	6a 00		 push	 0
  00009	8b 4d fc	 mov	 ecx, DWORD PTR _this$[ebp]
  0000c	e8 00 00 00 00	 call	 ?__autoclassinit@?$_Deque_val@U?$_Deque_simple_types@PAE@std@@@std@@QAEXI@Z
  00011	8b e5		 mov	 esp, ebp
  00013	5d		 pop	 ebp
  00014	c2 04 00	 ret	 4
?__autoclassinit@?$_Deque_alloc@$0A@U?$_Deque_base_types@PAEV?$allocator@PAE@std@@@std@@@std@@QAEXI@Z ENDP ; std::_Deque_alloc<0,std::_Deque_base_types<unsigned char *,std::allocator<unsigned char *> > >::__autoclassinit
_TEXT	ENDS
; Function compile flags: /Odtp
;	COMDAT ?__autoclassinit@?$_Deque_val@U?$_Deque_simple_types@PAE@std@@@std@@QAEXI@Z
_TEXT	SEGMENT
_this$ = -4						; size = 4
_$initVBases$ = 8					; size = 4
?__autoclassinit@?$_Deque_val@U?$_Deque_simple_types@PAE@std@@@std@@QAEXI@Z PROC ; std::_Deque_val<std::_Deque_simple_types<unsigned char *> >::__autoclassinit, COMDAT
; _this$ = ecx
  00000	55		 push	 ebp
  00001	8b ec		 mov	 ebp, esp
  00003	51		 push	 ecx
  00004	89 4d fc	 mov	 DWORD PTR _this$[ebp], ecx
  00007	8b 45 fc	 mov	 eax, DWORD PTR _this$[ebp]
  0000a	c7 40 04 00 00
	00 00		 mov	 DWORD PTR [eax+4], 0
  00011	8b e5		 mov	 esp, ebp
  00013	5d		 pop	 ebp
  00014	c2 04 00	 ret	 4
?__autoclassinit@?$_Deque_val@U?$_Deque_simple_types@PAE@std@@@std@@QAEXI@Z ENDP ; std::_Deque_val<std::_Deque_simple_types<unsigned char *> >::__autoclassinit
_TEXT	ENDS
; Function compile flags: /Odtp
; File e:\work_wm\hxijy_code\endoscopemfc2012_menu_changepara_youhua_savepic_usb_1114_twothread_svepic_save5\src\endoscopemfc\datatype.cpp
;	COMDAT ??__Eg_Map_Sharpness@@YAXXZ
text$yc	SEGMENT
??__Eg_Map_Sharpness@@YAXXZ PROC			; `dynamic initializer for 'g_Map_Sharpness'', COMDAT

; 80   : map<unsigned int, double> g_Map_Sharpness;//

  00000	55		 push	 ebp
  00001	8b ec		 mov	 ebp, esp
  00003	6a 01		 push	 1
  00005	b9 00 00 00 00	 mov	 ecx, OFFSET ?g_Map_Sharpness@@3V?$map@INU?$less@I@std@@V?$allocator@U?$pair@$$CBIN@std@@@2@@std@@A ; g_Map_Sharpness
  0000a	e8 00 00 00 00	 call	 ?__autoclassinit@?$map@INU?$less@I@std@@V?$allocator@U?$pair@$$CBIN@std@@@2@@std@@QAEXI@Z
  0000f	b9 00 00 00 00	 mov	 ecx, OFFSET ?g_Map_Sharpness@@3V?$map@INU?$less@I@std@@V?$allocator@U?$pair@$$CBIN@std@@@2@@std@@A ; g_Map_Sharpness
  00014	e8 00 00 00 00	 call	 ??0?$map@INU?$less@I@std@@V?$allocator@U?$pair@$$CBIN@std@@@2@@std@@QAE@XZ ; std::map<unsigned int,double,std::less<unsigned int>,std::allocator<std::pair<unsigned int const ,double> > >::map<unsigned int,double,std::less<unsigned int>,std::allocator<std::pair<unsigned int const ,double> > >
  00019	68 00 00 00 00	 push	 OFFSET ??__Fg_Map_Sharpness@@YAXXZ ; `dynamic atexit destructor for 'g_Map_Sharpness''
  0001e	e8 00 00 00 00	 call	 _atexit
  00023	83 c4 04	 add	 esp, 4
  00026	5d		 pop	 ebp
  00027	c3		 ret	 0
??__Eg_Map_Sharpness@@YAXXZ ENDP			; `dynamic initializer for 'g_Map_Sharpness''
text$yc	ENDS
; Function compile flags: /Odtp
;	COMDAT ??__Fg_Map_Sharpness@@YAXXZ
text$yd	SEGMENT
??__Fg_Map_Sharpness@@YAXXZ PROC			; `dynamic atexit destructor for 'g_Map_Sharpness'', COMDAT
  00000	55		 push	 ebp
  00001	8b ec		 mov	 ebp, esp
  00003	b9 00 00 00 00	 mov	 ecx, OFFSET ?g_Map_Sharpness@@3V?$map@INU?$less@I@std@@V?$allocator@U?$pair@$$CBIN@std@@@2@@std@@A ; g_Map_Sharpness
  00008	e8 00 00 00 00	 call	 ??1?$map@INU?$less@I@std@@V?$allocator@U?$pair@$$CBIN@std@@@2@@std@@QAE@XZ
  0000d	5d		 pop	 ebp
  0000e	c3		 ret	 0
??__Fg_Map_Sharpness@@YAXXZ ENDP			; `dynamic atexit destructor for 'g_Map_Sharpness''
text$yd	ENDS
; Function compile flags: /Odtp
;	COMDAT ?__autoclassinit@?$map@INU?$less@I@std@@V?$allocator@U?$pair@$$CBIN@std@@@2@@std@@QAEXI@Z
_TEXT	SEGMENT
_this$ = -4						; size = 4
_$initVBases$ = 8					; size = 4
?__autoclassinit@?$map@INU?$less@I@std@@V?$allocator@U?$pair@$$CBIN@std@@@2@@std@@QAEXI@Z PROC ; std::map<unsigned int,double,std::less<unsigned int>,std::allocator<std::pair<unsigned int const ,double> > >::__autoclassinit, COMDAT
; _this$ = ecx
  00000	55		 push	 ebp
  00001	8b ec		 mov	 ebp, esp
  00003	51		 push	 ecx
  00004	89 4d fc	 mov	 DWORD PTR _this$[ebp], ecx
  00007	6a 00		 push	 0
  00009	8b 4d fc	 mov	 ecx, DWORD PTR _this$[ebp]
  0000c	e8 00 00 00 00	 call	 ?__autoclassinit@?$_Tree@V?$_Tmap_traits@INU?$less@I@std@@V?$allocator@U?$pair@$$CBIN@std@@@2@$0A@@std@@@std@@QAEXI@Z
  00011	8b e5		 mov	 esp, ebp
  00013	5d		 pop	 ebp
  00014	c2 04 00	 ret	 4
?__autoclassinit@?$map@INU?$less@I@std@@V?$allocator@U?$pair@$$CBIN@std@@@2@@std@@QAEXI@Z ENDP ; std::map<unsigned int,double,std::less<unsigned int>,std::allocator<std::pair<unsigned int const ,double> > >::__autoclassinit
_TEXT	ENDS
; Function compile flags: /Odtp
;	COMDAT ??1?$map@INU?$less@I@std@@V?$allocator@U?$pair@$$CBIN@std@@@2@@std@@QAE@XZ
_TEXT	SEGMENT
_this$ = -4						; size = 4
??1?$map@INU?$less@I@std@@V?$allocator@U?$pair@$$CBIN@std@@@2@@std@@QAE@XZ PROC ; std::map<unsigned int,double,std::less<unsigned int>,std::allocator<std::pair<unsigned int const ,double> > >::~map<unsigned int,double,std::less<unsigned int>,std::allocator<std::pair<unsigned int const ,double> > >, COMDAT
; _this$ = ecx
  00000	55		 push	 ebp
  00001	8b ec		 mov	 ebp, esp
  00003	51		 push	 ecx
  00004	89 4d fc	 mov	 DWORD PTR _this$[ebp], ecx
  00007	8b 4d fc	 mov	 ecx, DWORD PTR _this$[ebp]
  0000a	e8 00 00 00 00	 call	 ??1?$_Tree@V?$_Tmap_traits@INU?$less@I@std@@V?$allocator@U?$pair@$$CBIN@std@@@2@$0A@@std@@@std@@QAE@XZ ; std::_Tree<std::_Tmap_traits<unsigned int,double,std::less<unsigned int>,std::allocator<std::pair<unsigned int const ,double> >,0> >::~_Tree<std::_Tmap_traits<unsigned int,double,std::less<unsigned int>,std::allocator<std::pair<unsigned int const ,double> >,0> >
  0000f	8b e5		 mov	 esp, ebp
  00011	5d		 pop	 ebp
  00012	c3		 ret	 0
??1?$map@INU?$less@I@std@@V?$allocator@U?$pair@$$CBIN@std@@@2@@std@@QAE@XZ ENDP ; std::map<unsigned int,double,std::less<unsigned int>,std::allocator<std::pair<unsigned int const ,double> > >::~map<unsigned int,double,std::less<unsigned int>,std::allocator<std::pair<unsigned int const ,double> > >
_TEXT	ENDS
; Function compile flags: /Odtp
;	COMDAT ?__autoclassinit@?$_Tree@V?$_Tmap_traits@INU?$less@I@std@@V?$allocator@U?$pair@$$CBIN@std@@@2@$0A@@std@@@std@@QAEXI@Z
_TEXT	SEGMENT
_this$ = -4						; size = 4
_$initVBases$ = 8					; size = 4
?__autoclassinit@?$_Tree@V?$_Tmap_traits@INU?$less@I@std@@V?$allocator@U?$pair@$$CBIN@std@@@2@$0A@@std@@@std@@QAEXI@Z PROC ; std::_Tree<std::_Tmap_traits<unsigned int,double,std::less<unsigned int>,std::allocator<std::pair<unsigned int const ,double> >,0> >::__autoclassinit, COMDAT
; _this$ = ecx
  00000	55		 push	 ebp
  00001	8b ec		 mov	 ebp, esp
  00003	51		 push	 ecx
  00004	89 4d fc	 mov	 DWORD PTR _this$[ebp], ecx
  00007	6a 00		 push	 0
  00009	8b 4d fc	 mov	 ecx, DWORD PTR _this$[ebp]
  0000c	e8 00 00 00 00	 call	 ?__autoclassinit@?$_Tree_comp@$0A@V?$_Tmap_traits@INU?$less@I@std@@V?$allocator@U?$pair@$$CBIN@std@@@2@$0A@@std@@@std@@QAEXI@Z
  00011	8b e5		 mov	 esp, ebp
  00013	5d		 pop	 ebp
  00014	c2 04 00	 ret	 4
?__autoclassinit@?$_Tree@V?$_Tmap_traits@INU?$less@I@std@@V?$allocator@U?$pair@$$CBIN@std@@@2@$0A@@std@@@std@@QAEXI@Z ENDP ; std::_Tree<std::_Tmap_traits<unsigned int,double,std::less<unsigned int>,std::allocator<std::pair<unsigned int const ,double> >,0> >::__autoclassinit
_TEXT	ENDS
; Function compile flags: /Odtp
;	COMDAT ?__autoclassinit@?$_Tree_comp@$0A@V?$_Tmap_traits@INU?$less@I@std@@V?$allocator@U?$pair@$$CBIN@std@@@2@$0A@@std@@@std@@QAEXI@Z
_TEXT	SEGMENT
_this$ = -4						; size = 4
_$initVBases$ = 8					; size = 4
?__autoclassinit@?$_Tree_comp@$0A@V?$_Tmap_traits@INU?$less@I@std@@V?$allocator@U?$pair@$$CBIN@std@@@2@$0A@@std@@@std@@QAEXI@Z PROC ; std::_Tree_comp<0,std::_Tmap_traits<unsigned int,double,std::less<unsigned int>,std::allocator<std::pair<unsigned int const ,double> >,0> >::__autoclassinit, COMDAT
; _this$ = ecx
  00000	55		 push	 ebp
  00001	8b ec		 mov	 ebp, esp
  00003	51		 push	 ecx
  00004	89 4d fc	 mov	 DWORD PTR _this$[ebp], ecx
  00007	6a 00		 push	 0
  00009	8b 4d fc	 mov	 ecx, DWORD PTR _this$[ebp]
  0000c	e8 00 00 00 00	 call	 ?__autoclassinit@?$_Tree_buy@U?$pair@$$CBIN@std@@V?$allocator@U?$pair@$$CBIN@std@@@2@@std@@QAEXI@Z
  00011	8b e5		 mov	 esp, ebp
  00013	5d		 pop	 ebp
  00014	c2 04 00	 ret	 4
?__autoclassinit@?$_Tree_comp@$0A@V?$_Tmap_traits@INU?$less@I@std@@V?$allocator@U?$pair@$$CBIN@std@@@2@$0A@@std@@@std@@QAEXI@Z ENDP ; std::_Tree_comp<0,std::_Tmap_traits<unsigned int,double,std::less<unsigned int>,std::allocator<std::pair<unsigned int const ,double> >,0> >::__autoclassinit
_TEXT	ENDS
; Function compile flags: /Odtp
;	COMDAT ?__autoclassinit@?$_Tree_buy@U?$pair@$$CBIN@std@@V?$allocator@U?$pair@$$CBIN@std@@@2@@std@@QAEXI@Z
_TEXT	SEGMENT
_this$ = -4						; size = 4
_$initVBases$ = 8					; size = 4
?__autoclassinit@?$_Tree_buy@U?$pair@$$CBIN@std@@V?$allocator@U?$pair@$$CBIN@std@@@2@@std@@QAEXI@Z PROC ; std::_Tree_buy<std::pair<unsigned int const ,double>,std::allocator<std::pair<unsigned int const ,double> > >::__autoclassinit, COMDAT
; _this$ = ecx
  00000	55		 push	 ebp
  00001	8b ec		 mov	 ebp, esp
  00003	51		 push	 ecx
  00004	89 4d fc	 mov	 DWORD PTR _this$[ebp], ecx
  00007	6a 00		 push	 0
  00009	8b 4d fc	 mov	 ecx, DWORD PTR _this$[ebp]
  0000c	e8 00 00 00 00	 call	 ?__autoclassinit@?$_Tree_alloc@$0A@U?$_Tree_base_types@U?$pair@$$CBIN@std@@V?$allocator@U?$pair@$$CBIN@std@@@2@@std@@@std@@QAEXI@Z
  00011	8b e5		 mov	 esp, ebp
  00013	5d		 pop	 ebp
  00014	c2 04 00	 ret	 4
?__autoclassinit@?$_Tree_buy@U?$pair@$$CBIN@std@@V?$allocator@U?$pair@$$CBIN@std@@@2@@std@@QAEXI@Z ENDP ; std::_Tree_buy<std::pair<unsigned int const ,double>,std::allocator<std::pair<unsigned int const ,double> > >::__autoclassinit
_TEXT	ENDS
; Function compile flags: /Odtp
;	COMDAT ?__autoclassinit@?$_Tree_alloc@$0A@U?$_Tree_base_types@U?$pair@$$CBIN@std@@V?$allocator@U?$pair@$$CBIN@std@@@2@@std@@@std@@QAEXI@Z
_TEXT	SEGMENT
_this$ = -4						; size = 4
_$initVBases$ = 8					; size = 4
?__autoclassinit@?$_Tree_alloc@$0A@U?$_Tree_base_types@U?$pair@$$CBIN@std@@V?$allocator@U?$pair@$$CBIN@std@@@2@@std@@@std@@QAEXI@Z PROC ; std::_Tree_alloc<0,std::_Tree_base_types<std::pair<unsigned int const ,double>,std::allocator<std::pair<unsigned int const ,double> > > >::__autoclassinit, COMDAT
; _this$ = ecx
  00000	55		 push	 ebp
  00001	8b ec		 mov	 ebp, esp
  00003	51		 push	 ecx
  00004	89 4d fc	 mov	 DWORD PTR _this$[ebp], ecx
  00007	6a 00		 push	 0
  00009	8b 4d fc	 mov	 ecx, DWORD PTR _this$[ebp]
  0000c	e8 00 00 00 00	 call	 ?__autoclassinit@?$_Tree_val@U?$_Tree_simple_types@U?$pair@$$CBIN@std@@@std@@@std@@QAEXI@Z
  00011	8b e5		 mov	 esp, ebp
  00013	5d		 pop	 ebp
  00014	c2 04 00	 ret	 4
?__autoclassinit@?$_Tree_alloc@$0A@U?$_Tree_base_types@U?$pair@$$CBIN@std@@V?$allocator@U?$pair@$$CBIN@std@@@2@@std@@@std@@QAEXI@Z ENDP ; std::_Tree_alloc<0,std::_Tree_base_types<std::pair<unsigned int const ,double>,std::allocator<std::pair<unsigned int const ,double> > > >::__autoclassinit
_TEXT	ENDS
; Function compile flags: /Odtp
;	COMDAT ?__autoclassinit@?$_Tree_val@U?$_Tree_simple_types@U?$pair@$$CBIN@std@@@std@@@std@@QAEXI@Z
_TEXT	SEGMENT
_this$ = -4						; size = 4
_$initVBases$ = 8					; size = 4
?__autoclassinit@?$_Tree_val@U?$_Tree_simple_types@U?$pair@$$CBIN@std@@@std@@@std@@QAEXI@Z PROC ; std::_Tree_val<std::_Tree_simple_types<std::pair<unsigned int const ,double> > >::__autoclassinit, COMDAT
; _this$ = ecx
  00000	55		 push	 ebp
  00001	8b ec		 mov	 ebp, esp
  00003	51		 push	 ecx
  00004	89 4d fc	 mov	 DWORD PTR _this$[ebp], ecx
  00007	8b 45 fc	 mov	 eax, DWORD PTR _this$[ebp]
  0000a	c7 00 00 00 00
	00		 mov	 DWORD PTR [eax], 0
  00010	8b e5		 mov	 esp, ebp
  00012	5d		 pop	 ebp
  00013	c2 04 00	 ret	 4
?__autoclassinit@?$_Tree_val@U?$_Tree_simple_types@U?$pair@$$CBIN@std@@@std@@@std@@QAEXI@Z ENDP ; std::_Tree_val<std::_Tree_simple_types<std::pair<unsigned int const ,double> > >::__autoclassinit
_TEXT	ENDS
; Function compile flags: /Odtp
; File e:\work_wm\hxijy_code\endoscopemfc2012_menu_changepara_youhua_savepic_usb_1114_twothread_svepic_save5\src\endoscopemfc\datatype.cpp
;	COMDAT ??__Eg_Operate_list@@YAXXZ
text$yc	SEGMENT
??__Eg_Operate_list@@YAXXZ PROC				; `dynamic initializer for 'g_Operate_list'', COMDAT

; 81   : queue<string> g_Operate_list;			 //

  00000	55		 push	 ebp
  00001	8b ec		 mov	 ebp, esp
  00003	6a 01		 push	 1
  00005	b9 00 00 00 00	 mov	 ecx, OFFSET ?g_Operate_list@@3V?$queue@V?$basic_string@DU?$char_traits@D@std@@V?$allocator@D@2@@std@@V?$deque@V?$basic_string@DU?$char_traits@D@std@@V?$allocator@D@2@@std@@V?$allocator@V?$basic_string@DU?$char_traits@D@std@@V?$allocator@D@2@@std@@@2@@2@@std@@A ; g_Operate_list
  0000a	e8 00 00 00 00	 call	 ?__autoclassinit@?$queue@V?$basic_string@DU?$char_traits@D@std@@V?$allocator@D@2@@std@@V?$deque@V?$basic_string@DU?$char_traits@D@std@@V?$allocator@D@2@@std@@V?$allocator@V?$basic_string@DU?$char_traits@D@std@@V?$allocator@D@2@@std@@@2@@2@@std@@QAEXI@Z
  0000f	b9 00 00 00 00	 mov	 ecx, OFFSET ?g_Operate_list@@3V?$queue@V?$basic_string@DU?$char_traits@D@std@@V?$allocator@D@2@@std@@V?$deque@V?$basic_string@DU?$char_traits@D@std@@V?$allocator@D@2@@std@@V?$allocator@V?$basic_string@DU?$char_traits@D@std@@V?$allocator@D@2@@std@@@2@@2@@std@@A ; g_Operate_list
  00014	e8 00 00 00 00	 call	 ??0?$queue@V?$basic_string@DU?$char_traits@D@std@@V?$allocator@D@2@@std@@V?$deque@V?$basic_string@DU?$char_traits@D@std@@V?$allocator@D@2@@std@@V?$allocator@V?$basic_string@DU?$char_traits@D@std@@V?$allocator@D@2@@std@@@2@@2@@std@@QAE@XZ ; std::queue<std::basic_string<char,std::char_traits<char>,std::allocator<char> >,std::deque<std::basic_string<char,std::char_traits<char>,std::allocator<char> >,std::allocator<std::basic_string<char,std::char_traits<char>,std::allocator<char> > > > >::queue<std::basic_string<char,std::char_traits<char>,std::allocator<char> >,std::deque<std::basic_string<char,std::char_traits<char>,std::allocator<char> >,std::allocator<std::basic_string<char,std::char_traits<char>,std::allocator<char> > > > >
  00019	68 00 00 00 00	 push	 OFFSET ??__Fg_Operate_list@@YAXXZ ; `dynamic atexit destructor for 'g_Operate_list''
  0001e	e8 00 00 00 00	 call	 _atexit
  00023	83 c4 04	 add	 esp, 4
  00026	5d		 pop	 ebp
  00027	c3		 ret	 0
??__Eg_Operate_list@@YAXXZ ENDP				; `dynamic initializer for 'g_Operate_list''
text$yc	ENDS
; Function compile flags: /Odtp
;	COMDAT ??__Fg_Operate_list@@YAXXZ
text$yd	SEGMENT
??__Fg_Operate_list@@YAXXZ PROC				; `dynamic atexit destructor for 'g_Operate_list'', COMDAT
  00000	55		 push	 ebp
  00001	8b ec		 mov	 ebp, esp
  00003	b9 00 00 00 00	 mov	 ecx, OFFSET ?g_Operate_list@@3V?$queue@V?$basic_string@DU?$char_traits@D@std@@V?$allocator@D@2@@std@@V?$deque@V?$basic_string@DU?$char_traits@D@std@@V?$allocator@D@2@@std@@V?$allocator@V?$basic_string@DU?$char_traits@D@std@@V?$allocator@D@2@@std@@@2@@2@@std@@A ; g_Operate_list
  00008	e8 00 00 00 00	 call	 ??1?$queue@V?$basic_string@DU?$char_traits@D@std@@V?$allocator@D@2@@std@@V?$deque@V?$basic_string@DU?$char_traits@D@std@@V?$allocator@D@2@@std@@V?$allocator@V?$basic_string@DU?$char_traits@D@std@@V?$allocator@D@2@@std@@@2@@2@@std@@QAE@XZ
  0000d	5d		 pop	 ebp
  0000e	c3		 ret	 0
??__Fg_Operate_list@@YAXXZ ENDP				; `dynamic atexit destructor for 'g_Operate_list''
text$yd	ENDS
; Function compile flags: /Odtp
;	COMDAT ?__autoclassinit@?$queue@V?$basic_string@DU?$char_traits@D@std@@V?$allocator@D@2@@std@@V?$deque@V?$basic_string@DU?$char_traits@D@std@@V?$allocator@D@2@@std@@V?$allocator@V?$basic_string@DU?$char_traits@D@std@@V?$allocator@D@2@@std@@@2@@2@@std@@QAEXI@Z
_TEXT	SEGMENT
_this$ = -4						; size = 4
_$initVBases$ = 8					; size = 4
?__autoclassinit@?$queue@V?$basic_string@DU?$char_traits@D@std@@V?$allocator@D@2@@std@@V?$deque@V?$basic_string@DU?$char_traits@D@std@@V?$allocator@D@2@@std@@V?$allocator@V?$basic_string@DU?$char_traits@D@std@@V?$allocator@D@2@@std@@@2@@2@@std@@QAEXI@Z PROC ; std::queue<std::basic_string<char,std::char_traits<char>,std::allocator<char> >,std::deque<std::basic_string<char,std::char_traits<char>,std::allocator<char> >,std::allocator<std::basic_string<char,std::char_traits<char>,std::allocator<char> > > > >::__autoclassinit, COMDAT
; _this$ = ecx
  00000	55		 push	 ebp
  00001	8b ec		 mov	 ebp, esp
  00003	51		 push	 ecx
  00004	89 4d fc	 mov	 DWORD PTR _this$[ebp], ecx
  00007	6a 01		 push	 1
  00009	8b 4d fc	 mov	 ecx, DWORD PTR _this$[ebp]
  0000c	e8 00 00 00 00	 call	 ?__autoclassinit@?$deque@V?$basic_string@DU?$char_traits@D@std@@V?$allocator@D@2@@std@@V?$allocator@V?$basic_string@DU?$char_traits@D@std@@V?$allocator@D@2@@std@@@2@@std@@QAEXI@Z
  00011	8b e5		 mov	 esp, ebp
  00013	5d		 pop	 ebp
  00014	c2 04 00	 ret	 4
?__autoclassinit@?$queue@V?$basic_string@DU?$char_traits@D@std@@V?$allocator@D@2@@std@@V?$deque@V?$basic_string@DU?$char_traits@D@std@@V?$allocator@D@2@@std@@V?$allocator@V?$basic_string@DU?$char_traits@D@std@@V?$allocator@D@2@@std@@@2@@2@@std@@QAEXI@Z ENDP ; std::queue<std::basic_string<char,std::char_traits<char>,std::allocator<char> >,std::deque<std::basic_string<char,std::char_traits<char>,std::allocator<char> >,std::allocator<std::basic_string<char,std::char_traits<char>,std::allocator<char> > > > >::__autoclassinit
_TEXT	ENDS
; Function compile flags: /Odtp
;	COMDAT ??1?$queue@V?$basic_string@DU?$char_traits@D@std@@V?$allocator@D@2@@std@@V?$deque@V?$basic_string@DU?$char_traits@D@std@@V?$allocator@D@2@@std@@V?$allocator@V?$basic_string@DU?$char_traits@D@std@@V?$allocator@D@2@@std@@@2@@2@@std@@QAE@XZ
_TEXT	SEGMENT
_this$ = -4						; size = 4
??1?$queue@V?$basic_string@DU?$char_traits@D@std@@V?$allocator@D@2@@std@@V?$deque@V?$basic_string@DU?$char_traits@D@std@@V?$allocator@D@2@@std@@V?$allocator@V?$basic_string@DU?$char_traits@D@std@@V?$allocator@D@2@@std@@@2@@2@@std@@QAE@XZ PROC ; std::queue<std::basic_string<char,std::char_traits<char>,std::allocator<char> >,std::deque<std::basic_string<char,std::char_traits<char>,std::allocator<char> >,std::allocator<std::basic_string<char,std::char_traits<char>,std::allocator<char> > > > >::~queue<std::basic_string<char,std::char_traits<char>,std::allocator<char> >,std::deque<std::basic_string<char,std::char_traits<char>,std::allocator<char> >,std::allocator<std::basic_string<char,std::char_traits<char>,std::allocator<char> > > > >, COMDAT
; _this$ = ecx
  00000	55		 push	 ebp
  00001	8b ec		 mov	 ebp, esp
  00003	51		 push	 ecx
  00004	89 4d fc	 mov	 DWORD PTR _this$[ebp], ecx
  00007	8b 4d fc	 mov	 ecx, DWORD PTR _this$[ebp]
  0000a	e8 00 00 00 00	 call	 ??1?$deque@V?$basic_string@DU?$char_traits@D@std@@V?$allocator@D@2@@std@@V?$allocator@V?$basic_string@DU?$char_traits@D@std@@V?$allocator@D@2@@std@@@2@@std@@QAE@XZ ; std::deque<std::basic_string<char,std::char_traits<char>,std::allocator<char> >,std::allocator<std::basic_string<char,std::char_traits<char>,std::allocator<char> > > >::~deque<std::basic_string<char,std::char_traits<char>,std::allocator<char> >,std::allocator<std::basic_string<char,std::char_traits<char>,std::allocator<char> > > >
  0000f	8b e5		 mov	 esp, ebp
  00011	5d		 pop	 ebp
  00012	c3		 ret	 0
??1?$queue@V?$basic_string@DU?$char_traits@D@std@@V?$allocator@D@2@@std@@V?$deque@V?$basic_string@DU?$char_traits@D@std@@V?$allocator@D@2@@std@@V?$allocator@V?$basic_string@DU?$char_traits@D@std@@V?$allocator@D@2@@std@@@2@@2@@std@@QAE@XZ ENDP ; std::queue<std::basic_string<char,std::char_traits<char>,std::allocator<char> >,std::deque<std::basic_string<char,std::char_traits<char>,std::allocator<char> >,std::allocator<std::basic_string<char,std::char_traits<char>,std::allocator<char> > > > >::~queue<std::basic_string<char,std::char_traits<char>,std::allocator<char> >,std::deque<std::basic_string<char,std::char_traits<char>,std::allocator<char> >,std::allocator<std::basic_string<char,std::char_traits<char>,std::allocator<char> > > > >
_TEXT	ENDS
; Function compile flags: /Odtp
;	COMDAT ?__autoclassinit@?$deque@V?$basic_string@DU?$char_traits@D@std@@V?$allocator@D@2@@std@@V?$allocator@V?$basic_string@DU?$char_traits@D@std@@V?$allocator@D@2@@std@@@2@@std@@QAEXI@Z
_TEXT	SEGMENT
_this$ = -4						; size = 4
_$initVBases$ = 8					; size = 4
?__autoclassinit@?$deque@V?$basic_string@DU?$char_traits@D@std@@V?$allocator@D@2@@std@@V?$allocator@V?$basic_string@DU?$char_traits@D@std@@V?$allocator@D@2@@std@@@2@@std@@QAEXI@Z PROC ; std::deque<std::basic_string<char,std::char_traits<char>,std::allocator<char> >,std::allocator<std::basic_string<char,std::char_traits<char>,std::allocator<char> > > >::__autoclassinit, COMDAT
; _this$ = ecx
  00000	55		 push	 ebp
  00001	8b ec		 mov	 ebp, esp
  00003	51		 push	 ecx
  00004	89 4d fc	 mov	 DWORD PTR _this$[ebp], ecx
  00007	6a 00		 push	 0
  00009	8b 4d fc	 mov	 ecx, DWORD PTR _this$[ebp]
  0000c	e8 00 00 00 00	 call	 ?__autoclassinit@?$_Deque_alloc@$0A@U?$_Deque_base_types@V?$basic_string@DU?$char_traits@D@std@@V?$allocator@D@2@@std@@V?$allocator@V?$basic_string@DU?$char_traits@D@std@@V?$allocator@D@2@@std@@@2@@std@@@std@@QAEXI@Z
  00011	8b e5		 mov	 esp, ebp
  00013	5d		 pop	 ebp
  00014	c2 04 00	 ret	 4
?__autoclassinit@?$deque@V?$basic_string@DU?$char_traits@D@std@@V?$allocator@D@2@@std@@V?$allocator@V?$basic_string@DU?$char_traits@D@std@@V?$allocator@D@2@@std@@@2@@std@@QAEXI@Z ENDP ; std::deque<std::basic_string<char,std::char_traits<char>,std::allocator<char> >,std::allocator<std::basic_string<char,std::char_traits<char>,std::allocator<char> > > >::__autoclassinit
_TEXT	ENDS
; Function compile flags: /Odtp
;	COMDAT ?__autoclassinit@?$_Deque_alloc@$0A@U?$_Deque_base_types@V?$basic_string@DU?$char_traits@D@std@@V?$allocator@D@2@@std@@V?$allocator@V?$basic_string@DU?$char_traits@D@std@@V?$allocator@D@2@@std@@@2@@std@@@std@@QAEXI@Z
_TEXT	SEGMENT
_this$ = -4						; size = 4
_$initVBases$ = 8					; size = 4
?__autoclassinit@?$_Deque_alloc@$0A@U?$_Deque_base_types@V?$basic_string@DU?$char_traits@D@std@@V?$allocator@D@2@@std@@V?$allocator@V?$basic_string@DU?$char_traits@D@std@@V?$allocator@D@2@@std@@@2@@std@@@std@@QAEXI@Z PROC ; std::_Deque_alloc<0,std::_Deque_base_types<std::basic_string<char,std::char_traits<char>,std::allocator<char> >,std::allocator<std::basic_string<char,std::char_traits<char>,std::allocator<char> > > > >::__autoclassinit, COMDAT
; _this$ = ecx
  00000	55		 push	 ebp
  00001	8b ec		 mov	 ebp, esp
  00003	51		 push	 ecx
  00004	89 4d fc	 mov	 DWORD PTR _this$[ebp], ecx
  00007	6a 00		 push	 0
  00009	8b 4d fc	 mov	 ecx, DWORD PTR _this$[ebp]
  0000c	e8 00 00 00 00	 call	 ?__autoclassinit@?$_Deque_val@U?$_Deque_simple_types@V?$basic_string@DU?$char_traits@D@std@@V?$allocator@D@2@@std@@@std@@@std@@QAEXI@Z
  00011	8b e5		 mov	 esp, ebp
  00013	5d		 pop	 ebp
  00014	c2 04 00	 ret	 4
?__autoclassinit@?$_Deque_alloc@$0A@U?$_Deque_base_types@V?$basic_string@DU?$char_traits@D@std@@V?$allocator@D@2@@std@@V?$allocator@V?$basic_string@DU?$char_traits@D@std@@V?$allocator@D@2@@std@@@2@@std@@@std@@QAEXI@Z ENDP ; std::_Deque_alloc<0,std::_Deque_base_types<std::basic_string<char,std::char_traits<char>,std::allocator<char> >,std::allocator<std::basic_string<char,std::char_traits<char>,std::allocator<char> > > > >::__autoclassinit
_TEXT	ENDS
; Function compile flags: /Odtp
;	COMDAT ?__autoclassinit@?$_Deque_val@U?$_Deque_simple_types@V?$basic_string@DU?$char_traits@D@std@@V?$allocator@D@2@@std@@@std@@@std@@QAEXI@Z
_TEXT	SEGMENT
_this$ = -4						; size = 4
_$initVBases$ = 8					; size = 4
?__autoclassinit@?$_Deque_val@U?$_Deque_simple_types@V?$basic_string@DU?$char_traits@D@std@@V?$allocator@D@2@@std@@@std@@@std@@QAEXI@Z PROC ; std::_Deque_val<std::_Deque_simple_types<std::basic_string<char,std::char_traits<char>,std::allocator<char> > > >::__autoclassinit, COMDAT
; _this$ = ecx
  00000	55		 push	 ebp
  00001	8b ec		 mov	 ebp, esp
  00003	51		 push	 ecx
  00004	89 4d fc	 mov	 DWORD PTR _this$[ebp], ecx
  00007	8b 45 fc	 mov	 eax, DWORD PTR _this$[ebp]
  0000a	c7 40 04 00 00
	00 00		 mov	 DWORD PTR [eax+4], 0
  00011	8b e5		 mov	 esp, ebp
  00013	5d		 pop	 ebp
  00014	c2 04 00	 ret	 4
?__autoclassinit@?$_Deque_val@U?$_Deque_simple_types@V?$basic_string@DU?$char_traits@D@std@@V?$allocator@D@2@@std@@@std@@@std@@QAEXI@Z ENDP ; std::_Deque_val<std::_Deque_simple_types<std::basic_string<char,std::char_traits<char>,std::allocator<char> > > >::__autoclassinit
_TEXT	ENDS
; Function compile flags: /Odtp
; File e:\work_wm\hxijy_code\endoscopemfc2012_menu_changepara_youhua_savepic_usb_1114_twothread_svepic_save5\src\endoscopemfc\datatype.cpp
;	COMDAT ?ReadConfig@@YA_NXZ
_TEXT	SEGMENT
tv65 = -80						; size = 4
$T2 = -76						; size = 4
tv69 = -72						; size = 4
$T3 = -68						; size = 4
$T4 = -64						; size = 4
tv554 = -60						; size = 4
tv556 = -56						; size = 4
tv552 = -52						; size = 4
tv636 = -48						; size = 4
tv656 = -44						; size = 4
tv642 = -40						; size = 4
tv662 = -36						; size = 4
tv650 = -32						; size = 4
$T5 = -26						; size = 1
$T6 = -25						; size = 1
_strValue1$ = -24					; size = 4
_strValue$ = -20					; size = 4
__$ArrayPad$ = -16					; size = 4
__$EHRec$ = -12						; size = 12
?ReadConfig@@YA_NXZ PROC				; ReadConfig, COMDAT

; 86   : {

  00000	55		 push	 ebp
  00001	8b ec		 mov	 ebp, esp
  00003	6a ff		 push	 -1
  00005	68 00 00 00 00	 push	 __ehhandler$?ReadConfig@@YA_NXZ
  0000a	64 a1 00 00 00
	00		 mov	 eax, DWORD PTR fs:0
  00010	50		 push	 eax
  00011	83 ec 44	 sub	 esp, 68			; 00000044H
  00014	a1 00 00 00 00	 mov	 eax, DWORD PTR ___security_cookie
  00019	33 c5		 xor	 eax, ebp
  0001b	89 45 f0	 mov	 DWORD PTR __$ArrayPad$[ebp], eax
  0001e	50		 push	 eax
  0001f	8d 45 f4	 lea	 eax, DWORD PTR __$EHRec$[ebp]
  00022	64 a3 00 00 00
	00		 mov	 DWORD PTR fs:0, eax

; 87   : 	CString strValue = _T(""),strValue1 = _T("");

  00028	68 00 00 00 00	 push	 OFFSET $SG4294963859
  0002d	8d 4d ec	 lea	 ecx, DWORD PTR _strValue$[ebp]
  00030	ff 15 00 00 00
	00		 call	 DWORD PTR __imp_??0?$CStringT@DV?$StrTraitMFC_DLL@DV?$ChTraitsCRT@D@ATL@@@@@ATL@@QAE@PBD@Z
  00036	c7 45 fc 00 00
	00 00		 mov	 DWORD PTR __$EHRec$[ebp+8], 0
  0003d	68 00 00 00 00	 push	 OFFSET $SG4294963858
  00042	8d 4d e8	 lea	 ecx, DWORD PTR _strValue1$[ebp]
  00045	ff 15 00 00 00
	00		 call	 DWORD PTR __imp_??0?$CStringT@DV?$StrTraitMFC_DLL@DV?$ChTraitsCRT@D@ATL@@@@@ATL@@QAE@PBD@Z
  0004b	c6 45 fc 01	 mov	 BYTE PTR __$EHRec$[ebp+8], 1

; 88   : 	g_ConfigPath = ReturnPath() + _T("\\config.ini");

  0004f	8d 45 bc	 lea	 eax, DWORD PTR $T3[ebp]
  00052	50		 push	 eax
  00053	e8 00 00 00 00	 call	 ?ReturnPath@@YA?AV?$CStringT@DV?$StrTraitMFC_DLL@DV?$ChTraitsCRT@D@ATL@@@@@ATL@@XZ ; ReturnPath
  00058	83 c4 04	 add	 esp, 4
  0005b	89 45 b8	 mov	 DWORD PTR tv69[ebp], eax
  0005e	8b 4d b8	 mov	 ecx, DWORD PTR tv69[ebp]
  00061	89 4d cc	 mov	 DWORD PTR tv552[ebp], ecx
  00064	c6 45 fc 02	 mov	 BYTE PTR __$EHRec$[ebp+8], 2
  00068	68 00 00 00 00	 push	 OFFSET $SG4294963857
  0006d	8b 55 cc	 mov	 edx, DWORD PTR tv552[ebp]
  00070	52		 push	 edx
  00071	8d 45 b4	 lea	 eax, DWORD PTR $T2[ebp]
  00074	50		 push	 eax
  00075	e8 00 00 00 00	 call	 ??HATL@@YA?AV?$CStringT@DV?$StrTraitMFC_DLL@DV?$ChTraitsCRT@D@ATL@@@@@0@ABV10@PBD@Z ; ATL::operator+
  0007a	83 c4 0c	 add	 esp, 12			; 0000000cH
  0007d	89 45 b0	 mov	 DWORD PTR tv65[ebp], eax
  00080	8b 4d b0	 mov	 ecx, DWORD PTR tv65[ebp]
  00083	89 4d c4	 mov	 DWORD PTR tv554[ebp], ecx
  00086	c6 45 fc 03	 mov	 BYTE PTR __$EHRec$[ebp+8], 3
  0008a	8b 55 c4	 mov	 edx, DWORD PTR tv554[ebp]
  0008d	52		 push	 edx
  0008e	b9 00 00 00 00	 mov	 ecx, OFFSET ?g_ConfigPath@@3V?$CStringT@DV?$StrTraitMFC_DLL@DV?$ChTraitsCRT@D@ATL@@@@@ATL@@A ; g_ConfigPath
  00093	ff 15 00 00 00
	00		 call	 DWORD PTR __imp_??4?$CStringT@DV?$StrTraitMFC_DLL@DV?$ChTraitsCRT@D@ATL@@@@@ATL@@QAEAAV01@ABV01@@Z
  00099	c6 45 fc 02	 mov	 BYTE PTR __$EHRec$[ebp+8], 2
  0009d	8d 4d b4	 lea	 ecx, DWORD PTR $T2[ebp]
  000a0	ff 15 00 00 00
	00		 call	 DWORD PTR __imp_??1?$CStringT@DV?$StrTraitMFC_DLL@DV?$ChTraitsCRT@D@ATL@@@@@ATL@@QAE@XZ
  000a6	c6 45 fc 01	 mov	 BYTE PTR __$EHRec$[ebp+8], 1
  000aa	8d 4d bc	 lea	 ecx, DWORD PTR $T3[ebp]
  000ad	ff 15 00 00 00
	00		 call	 DWORD PTR __imp_??1?$CStringT@DV?$StrTraitMFC_DLL@DV?$ChTraitsCRT@D@ATL@@@@@ATL@@QAE@XZ

; 89   : 
; 90   : 	GetPrivateProfileString(_T("PARAMETER"), _T("PATH"), _T("D:\\\\"), g_strSaveDir.GetBuffer(512), 512, g_ConfigPath);

  000b3	b9 00 00 00 00	 mov	 ecx, OFFSET ?g_ConfigPath@@3V?$CStringT@DV?$StrTraitMFC_DLL@DV?$ChTraitsCRT@D@ATL@@@@@ATL@@A ; g_ConfigPath
  000b8	ff 15 00 00 00
	00		 call	 DWORD PTR __imp_??B?$CSimpleStringT@D$00@ATL@@QBEPBDXZ
  000be	50		 push	 eax
  000bf	68 00 02 00 00	 push	 512			; 00000200H
  000c4	68 00 02 00 00	 push	 512			; 00000200H
  000c9	b9 00 00 00 00	 mov	 ecx, OFFSET ?g_strSaveDir@@3V?$CStringT@DV?$StrTraitMFC_DLL@DV?$ChTraitsCRT@D@ATL@@@@@ATL@@A ; g_strSaveDir
  000ce	ff 15 00 00 00
	00		 call	 DWORD PTR __imp_?GetBuffer@?$CSimpleStringT@D$00@ATL@@QAEPADH@Z
  000d4	50		 push	 eax
  000d5	68 00 00 00 00	 push	 OFFSET $SG4294963856
  000da	68 00 00 00 00	 push	 OFFSET $SG4294963855
  000df	68 00 00 00 00	 push	 OFFSET $SG4294963854
  000e4	ff 15 00 00 00
	00		 call	 DWORD PTR __imp__GetPrivateProfileStringA@24

; 91   : 	g_strSaveDir.Trim();

  000ea	b9 00 00 00 00	 mov	 ecx, OFFSET ?g_strSaveDir@@3V?$CStringT@DV?$StrTraitMFC_DLL@DV?$ChTraitsCRT@D@ATL@@@@@ATL@@A ; g_strSaveDir
  000ef	ff 15 00 00 00
	00		 call	 DWORD PTR __imp_?Trim@?$CStringT@DV?$StrTraitMFC_DLL@DV?$ChTraitsCRT@D@ATL@@@@@ATL@@QAEAAV12@XZ

; 92   : 	if (g_strSaveDir.Right(1) != "\\")

  000f5	6a 01		 push	 1
  000f7	8d 45 c0	 lea	 eax, DWORD PTR $T4[ebp]
  000fa	50		 push	 eax
  000fb	b9 00 00 00 00	 mov	 ecx, OFFSET ?g_strSaveDir@@3V?$CStringT@DV?$StrTraitMFC_DLL@DV?$ChTraitsCRT@D@ATL@@@@@ATL@@A ; g_strSaveDir
  00100	ff 15 00 00 00
	00		 call	 DWORD PTR __imp_?Right@?$CStringT@DV?$StrTraitMFC_DLL@DV?$ChTraitsCRT@D@ATL@@@@@ATL@@QBE?AV12@H@Z
  00106	89 45 c8	 mov	 DWORD PTR tv556[ebp], eax
  00109	68 00 00 00 00	 push	 OFFSET $SG4294963853
  0010e	8b 4d c8	 mov	 ecx, DWORD PTR tv556[ebp]
  00111	51		 push	 ecx
  00112	e8 00 00 00 00	 call	 ??9ATL@@YA_NABV?$CStringT@DV?$StrTraitMFC_DLL@DV?$ChTraitsCRT@D@ATL@@@@@0@PBD@Z ; ATL::operator!=
  00117	83 c4 08	 add	 esp, 8
  0011a	88 45 e6	 mov	 BYTE PTR $T5[ebp], al
  0011d	8d 4d c0	 lea	 ecx, DWORD PTR $T4[ebp]
  00120	ff 15 00 00 00
	00		 call	 DWORD PTR __imp_??1?$CStringT@DV?$StrTraitMFC_DLL@DV?$ChTraitsCRT@D@ATL@@@@@ATL@@QAE@XZ
  00126	0f b6 55 e6	 movzx	 edx, BYTE PTR $T5[ebp]
  0012a	85 d2		 test	 edx, edx
  0012c	74 10		 je	 SHORT $LN1@ReadConfig

; 93   : 		g_strSaveDir.Append(_T("\\"));

  0012e	68 00 00 00 00	 push	 OFFSET $SG4294963852
  00133	b9 00 00 00 00	 mov	 ecx, OFFSET ?g_strSaveDir@@3V?$CStringT@DV?$StrTraitMFC_DLL@DV?$ChTraitsCRT@D@ATL@@@@@ATL@@A ; g_strSaveDir
  00138	ff 15 00 00 00
	00		 call	 DWORD PTR __imp_?Append@?$CSimpleStringT@D$00@ATL@@QAEXPBD@Z
$LN1@ReadConfig:

; 94   : 	//g_nSharpness = GetPrivateProfileInt(_T("PARAMETER"), _T("SHARPNESS"), 1, g_ConfigPath);
; 95   : 	g_nBrightness = GetPrivateProfileInt(_T("PARAMETER"), _T("BRIGHTNESS"), 1, g_ConfigPath);

  0013e	b9 00 00 00 00	 mov	 ecx, OFFSET ?g_ConfigPath@@3V?$CStringT@DV?$StrTraitMFC_DLL@DV?$ChTraitsCRT@D@ATL@@@@@ATL@@A ; g_ConfigPath
  00143	ff 15 00 00 00
	00		 call	 DWORD PTR __imp_??B?$CSimpleStringT@D$00@ATL@@QBEPBDXZ
  00149	50		 push	 eax
  0014a	6a 01		 push	 1
  0014c	68 00 00 00 00	 push	 OFFSET $SG4294963851
  00151	68 00 00 00 00	 push	 OFFSET $SG4294963850
  00156	ff 15 00 00 00
	00		 call	 DWORD PTR __imp__GetPrivateProfileIntA@16
  0015c	a3 00 00 00 00	 mov	 DWORD PTR ?g_nBrightness@@3HA, eax ; g_nBrightness

; 96   : 	g_nContrast = GetPrivateProfileInt(_T("PARAMETER"), _T("CONTRAST"), 1, g_ConfigPath);

  00161	b9 00 00 00 00	 mov	 ecx, OFFSET ?g_ConfigPath@@3V?$CStringT@DV?$StrTraitMFC_DLL@DV?$ChTraitsCRT@D@ATL@@@@@ATL@@A ; g_ConfigPath
  00166	ff 15 00 00 00
	00		 call	 DWORD PTR __imp_??B?$CSimpleStringT@D$00@ATL@@QBEPBDXZ
  0016c	50		 push	 eax
  0016d	6a 01		 push	 1
  0016f	68 00 00 00 00	 push	 OFFSET $SG4294963849
  00174	68 00 00 00 00	 push	 OFFSET $SG4294963848
  00179	ff 15 00 00 00
	00		 call	 DWORD PTR __imp__GetPrivateProfileIntA@16
  0017f	a3 00 00 00 00	 mov	 DWORD PTR ?g_nContrast@@3HA, eax ; g_nContrast

; 97   : 	g_nSaturation = GetPrivateProfileInt(_T("PARAMETER"), _T("SATURATION"), 1, g_ConfigPath);

  00184	b9 00 00 00 00	 mov	 ecx, OFFSET ?g_ConfigPath@@3V?$CStringT@DV?$StrTraitMFC_DLL@DV?$ChTraitsCRT@D@ATL@@@@@ATL@@A ; g_ConfigPath
  00189	ff 15 00 00 00
	00		 call	 DWORD PTR __imp_??B?$CSimpleStringT@D$00@ATL@@QBEPBDXZ
  0018f	50		 push	 eax
  00190	6a 01		 push	 1
  00192	68 00 00 00 00	 push	 OFFSET $SG4294963847
  00197	68 00 00 00 00	 push	 OFFSET $SG4294963846
  0019c	ff 15 00 00 00
	00		 call	 DWORD PTR __imp__GetPrivateProfileIntA@16
  001a2	a3 00 00 00 00	 mov	 DWORD PTR ?g_nSaturation@@3HA, eax ; g_nSaturation

; 98   : 	g_nExposure = GetPrivateProfileInt(_T("PARAMETER"), _T("EXPOSURE"), 1, g_ConfigPath);

  001a7	b9 00 00 00 00	 mov	 ecx, OFFSET ?g_ConfigPath@@3V?$CStringT@DV?$StrTraitMFC_DLL@DV?$ChTraitsCRT@D@ATL@@@@@ATL@@A ; g_ConfigPath
  001ac	ff 15 00 00 00
	00		 call	 DWORD PTR __imp_??B?$CSimpleStringT@D$00@ATL@@QBEPBDXZ
  001b2	50		 push	 eax
  001b3	6a 01		 push	 1
  001b5	68 00 00 00 00	 push	 OFFSET $SG4294963845
  001ba	68 00 00 00 00	 push	 OFFSET $SG4294963844
  001bf	ff 15 00 00 00
	00		 call	 DWORD PTR __imp__GetPrivateProfileIntA@16
  001c5	a3 00 00 00 00	 mov	 DWORD PTR ?g_nExposure@@3HA, eax ; g_nExposure

; 99   : 	g_nGain = GetPrivateProfileInt(_T("PARAMETER"), _T("GAIN"), 1, g_ConfigPath);

  001ca	b9 00 00 00 00	 mov	 ecx, OFFSET ?g_ConfigPath@@3V?$CStringT@DV?$StrTraitMFC_DLL@DV?$ChTraitsCRT@D@ATL@@@@@ATL@@A ; g_ConfigPath
  001cf	ff 15 00 00 00
	00		 call	 DWORD PTR __imp_??B?$CSimpleStringT@D$00@ATL@@QBEPBDXZ
  001d5	50		 push	 eax
  001d6	6a 01		 push	 1
  001d8	68 00 00 00 00	 push	 OFFSET $SG4294963843
  001dd	68 00 00 00 00	 push	 OFFSET $SG4294963842
  001e2	ff 15 00 00 00
	00		 call	 DWORD PTR __imp__GetPrivateProfileIntA@16
  001e8	a3 00 00 00 00	 mov	 DWORD PTR ?g_nGain@@3HA, eax ; g_nGain

; 100  : 	g_nMetering = GetPrivateProfileInt(_T("PARAMETER"), _T("ADJBRIGHT"), 1, g_ConfigPath);

  001ed	b9 00 00 00 00	 mov	 ecx, OFFSET ?g_ConfigPath@@3V?$CStringT@DV?$StrTraitMFC_DLL@DV?$ChTraitsCRT@D@ATL@@@@@ATL@@A ; g_ConfigPath
  001f2	ff 15 00 00 00
	00		 call	 DWORD PTR __imp_??B?$CSimpleStringT@D$00@ATL@@QBEPBDXZ
  001f8	50		 push	 eax
  001f9	6a 01		 push	 1
  001fb	68 00 00 00 00	 push	 OFFSET $SG4294963841
  00200	68 00 00 00 00	 push	 OFFSET $SG4294963840
  00205	ff 15 00 00 00
	00		 call	 DWORD PTR __imp__GetPrivateProfileIntA@16
  0020b	a3 00 00 00 00	 mov	 DWORD PTR ?g_nMetering@@3HA, eax ; g_nMetering

; 101  : 	g_bWhiteBalance = GetPrivateProfileInt(_T("PARAMETER"), _T("WHITEBALANCE"), 1, g_ConfigPath);

  00210	b9 00 00 00 00	 mov	 ecx, OFFSET ?g_ConfigPath@@3V?$CStringT@DV?$StrTraitMFC_DLL@DV?$ChTraitsCRT@D@ATL@@@@@ATL@@A ; g_ConfigPath
  00215	ff 15 00 00 00
	00		 call	 DWORD PTR __imp_??B?$CSimpleStringT@D$00@ATL@@QBEPBDXZ
  0021b	50		 push	 eax
  0021c	6a 01		 push	 1
  0021e	68 00 00 00 00	 push	 OFFSET $SG4294963839
  00223	68 00 00 00 00	 push	 OFFSET $SG4294963838
  00228	ff 15 00 00 00
	00		 call	 DWORD PTR __imp__GetPrivateProfileIntA@16
  0022e	a3 00 00 00 00	 mov	 DWORD PTR ?g_bWhiteBalance@@3HA, eax ; g_bWhiteBalance

; 102  : 	g_nWhitebalance = GetPrivateProfileInt(_T("PARAMETER"), _T("WHITEBALANCEVAL"), 1, g_ConfigPath);

  00233	b9 00 00 00 00	 mov	 ecx, OFFSET ?g_ConfigPath@@3V?$CStringT@DV?$StrTraitMFC_DLL@DV?$ChTraitsCRT@D@ATL@@@@@ATL@@A ; g_ConfigPath
  00238	ff 15 00 00 00
	00		 call	 DWORD PTR __imp_??B?$CSimpleStringT@D$00@ATL@@QBEPBDXZ
  0023e	50		 push	 eax
  0023f	6a 01		 push	 1
  00241	68 00 00 00 00	 push	 OFFSET $SG4294963837
  00246	68 00 00 00 00	 push	 OFFSET $SG4294963836
  0024b	ff 15 00 00 00
	00		 call	 DWORD PTR __imp__GetPrivateProfileIntA@16
  00251	a3 00 00 00 00	 mov	 DWORD PTR ?g_nWhitebalance@@3HA, eax ; g_nWhitebalance

; 103  : 	g_nBlue = GetPrivateProfileInt(_T("PARAMETER"), _T("HUE_B"), 1, g_ConfigPath);

  00256	b9 00 00 00 00	 mov	 ecx, OFFSET ?g_ConfigPath@@3V?$CStringT@DV?$StrTraitMFC_DLL@DV?$ChTraitsCRT@D@ATL@@@@@ATL@@A ; g_ConfigPath
  0025b	ff 15 00 00 00
	00		 call	 DWORD PTR __imp_??B?$CSimpleStringT@D$00@ATL@@QBEPBDXZ
  00261	50		 push	 eax
  00262	6a 01		 push	 1
  00264	68 00 00 00 00	 push	 OFFSET $SG4294963835
  00269	68 00 00 00 00	 push	 OFFSET $SG4294963834
  0026e	ff 15 00 00 00
	00		 call	 DWORD PTR __imp__GetPrivateProfileIntA@16
  00274	a3 00 00 00 00	 mov	 DWORD PTR ?g_nBlue@@3HA, eax ; g_nBlue

; 104  : 	g_nRed = GetPrivateProfileInt(_T("PARAMETER"), _T("HUE_R"), 1, g_ConfigPath);

  00279	b9 00 00 00 00	 mov	 ecx, OFFSET ?g_ConfigPath@@3V?$CStringT@DV?$StrTraitMFC_DLL@DV?$ChTraitsCRT@D@ATL@@@@@ATL@@A ; g_ConfigPath
  0027e	ff 15 00 00 00
	00		 call	 DWORD PTR __imp_??B?$CSimpleStringT@D$00@ATL@@QBEPBDXZ
  00284	50		 push	 eax
  00285	6a 01		 push	 1
  00287	68 00 00 00 00	 push	 OFFSET $SG4294963833
  0028c	68 00 00 00 00	 push	 OFFSET $SG4294963832
  00291	ff 15 00 00 00
	00		 call	 DWORD PTR __imp__GetPrivateProfileIntA@16
  00297	a3 00 00 00 00	 mov	 DWORD PTR ?g_nRed@@3HA, eax ; g_nRed

; 105  : 	//g_bIsAutoLightOpen = GetPrivateProfileInt(_T("PARAMETER"), _T("AUTOLIGHT"), 1, g_ConfigPath);
; 106  : 	g_nShowShape = GetPrivateProfileInt(_T("PARAMETER"), _T("CONTUOR"), 0, g_ConfigPath); 

  0029c	b9 00 00 00 00	 mov	 ecx, OFFSET ?g_ConfigPath@@3V?$CStringT@DV?$StrTraitMFC_DLL@DV?$ChTraitsCRT@D@ATL@@@@@ATL@@A ; g_ConfigPath
  002a1	ff 15 00 00 00
	00		 call	 DWORD PTR __imp_??B?$CSimpleStringT@D$00@ATL@@QBEPBDXZ
  002a7	50		 push	 eax
  002a8	6a 00		 push	 0
  002aa	68 00 00 00 00	 push	 OFFSET $SG4294963831
  002af	68 00 00 00 00	 push	 OFFSET $SG4294963830
  002b4	ff 15 00 00 00
	00		 call	 DWORD PTR __imp__GetPrivateProfileIntA@16
  002ba	a3 00 00 00 00	 mov	 DWORD PTR ?g_nShowShape@@3HA, eax ; g_nShowShape

; 107  : 	g_bExposure = GetPrivateProfileInt(_T("PARAMETER"), _T("AUTOEXPOSURE"), 0, g_ConfigPath);

  002bf	b9 00 00 00 00	 mov	 ecx, OFFSET ?g_ConfigPath@@3V?$CStringT@DV?$StrTraitMFC_DLL@DV?$ChTraitsCRT@D@ATL@@@@@ATL@@A ; g_ConfigPath
  002c4	ff 15 00 00 00
	00		 call	 DWORD PTR __imp_??B?$CSimpleStringT@D$00@ATL@@QBEPBDXZ
  002ca	50		 push	 eax
  002cb	6a 00		 push	 0
  002cd	68 00 00 00 00	 push	 OFFSET $SG4294963829
  002d2	68 00 00 00 00	 push	 OFFSET $SG4294963828
  002d7	ff 15 00 00 00
	00		 call	 DWORD PTR __imp__GetPrivateProfileIntA@16
  002dd	a3 00 00 00 00	 mov	 DWORD PTR ?g_bExposure@@3HA, eax ; g_bExposure

; 108  : 	g_thred=GetPrivateProfileInt(_T("PARAMETER"), _T("THRETH"), 0, g_ConfigPath);

  002e2	b9 00 00 00 00	 mov	 ecx, OFFSET ?g_ConfigPath@@3V?$CStringT@DV?$StrTraitMFC_DLL@DV?$ChTraitsCRT@D@ATL@@@@@ATL@@A ; g_ConfigPath
  002e7	ff 15 00 00 00
	00		 call	 DWORD PTR __imp_??B?$CSimpleStringT@D$00@ATL@@QBEPBDXZ
  002ed	50		 push	 eax
  002ee	6a 00		 push	 0
  002f0	68 00 00 00 00	 push	 OFFSET $SG4294963827
  002f5	68 00 00 00 00	 push	 OFFSET $SG4294963826
  002fa	ff 15 00 00 00
	00		 call	 DWORD PTR __imp__GetPrivateProfileIntA@16
  00300	a3 00 00 00 00	 mov	 DWORD PTR ?g_thred@@3HA, eax ; g_thred

; 109  : 	g_fGainR = GetPrivateProfileInt(_T("PARAMETER"), _T("GAIN_R"), 0, g_ConfigPath);

  00305	b9 00 00 00 00	 mov	 ecx, OFFSET ?g_ConfigPath@@3V?$CStringT@DV?$StrTraitMFC_DLL@DV?$ChTraitsCRT@D@ATL@@@@@ATL@@A ; g_ConfigPath
  0030a	ff 15 00 00 00
	00		 call	 DWORD PTR __imp_??B?$CSimpleStringT@D$00@ATL@@QBEPBDXZ
  00310	50		 push	 eax
  00311	6a 00		 push	 0
  00313	68 00 00 00 00	 push	 OFFSET $SG4294963825
  00318	68 00 00 00 00	 push	 OFFSET $SG4294963824
  0031d	ff 15 00 00 00
	00		 call	 DWORD PTR __imp__GetPrivateProfileIntA@16
  00323	89 45 d0	 mov	 DWORD PTR tv636[ebp], eax
  00326	f2 0f 2a 45 d0	 cvtsi2sd xmm0, DWORD PTR tv636[ebp]
  0032b	8b 45 d0	 mov	 eax, DWORD PTR tv636[ebp]
  0032e	c1 e8 1f	 shr	 eax, 31			; 0000001fH
  00331	f2 0f 58 04 c5
	00 00 00 00	 addsd	 xmm0, QWORD PTR __xmm@41f00000000000000000000000000000[eax*8]
  0033a	f2 0f 11 05 00
	00 00 00	 movsd	 QWORD PTR ?g_fGainR@@3NA, xmm0

; 110  : 	g_fGainB = GetPrivateProfileInt(_T("PARAMETER"), _T("GAIN_B"), 0, g_ConfigPath);

  00342	b9 00 00 00 00	 mov	 ecx, OFFSET ?g_ConfigPath@@3V?$CStringT@DV?$StrTraitMFC_DLL@DV?$ChTraitsCRT@D@ATL@@@@@ATL@@A ; g_ConfigPath
  00347	ff 15 00 00 00
	00		 call	 DWORD PTR __imp_??B?$CSimpleStringT@D$00@ATL@@QBEPBDXZ
  0034d	50		 push	 eax
  0034e	6a 00		 push	 0
  00350	68 00 00 00 00	 push	 OFFSET $SG4294963823
  00355	68 00 00 00 00	 push	 OFFSET $SG4294963822
  0035a	ff 15 00 00 00
	00		 call	 DWORD PTR __imp__GetPrivateProfileIntA@16
  00360	89 45 d8	 mov	 DWORD PTR tv642[ebp], eax
  00363	f2 0f 2a 45 d8	 cvtsi2sd xmm0, DWORD PTR tv642[ebp]
  00368	8b 4d d8	 mov	 ecx, DWORD PTR tv642[ebp]
  0036b	c1 e9 1f	 shr	 ecx, 31			; 0000001fH
  0036e	f2 0f 58 04 cd
	00 00 00 00	 addsd	 xmm0, QWORD PTR __xmm@41f00000000000000000000000000000[ecx*8]
  00377	f2 0f 11 05 00
	00 00 00	 movsd	 QWORD PTR ?g_fGainB@@3NA, xmm0

; 111  : 	g_iMenu = GetPrivateProfileInt(_T("PARAMETER"), _T("MENU"), 3, g_ConfigPath);

  0037f	b9 00 00 00 00	 mov	 ecx, OFFSET ?g_ConfigPath@@3V?$CStringT@DV?$StrTraitMFC_DLL@DV?$ChTraitsCRT@D@ATL@@@@@ATL@@A ; g_ConfigPath
  00384	ff 15 00 00 00
	00		 call	 DWORD PTR __imp_??B?$CSimpleStringT@D$00@ATL@@QBEPBDXZ
  0038a	50		 push	 eax
  0038b	6a 03		 push	 3
  0038d	68 00 00 00 00	 push	 OFFSET $SG4294963821
  00392	68 00 00 00 00	 push	 OFFSET $SG4294963820
  00397	ff 15 00 00 00
	00		 call	 DWORD PTR __imp__GetPrivateProfileIntA@16
  0039d	a3 00 00 00 00	 mov	 DWORD PTR ?g_iMenu@@3HA, eax ; g_iMenu

; 112  : 	g_lamdar=GetPrivateProfileInt(_T("PARAMETER"), _T("LAMDAR"), 0, g_ConfigPath);

  003a2	b9 00 00 00 00	 mov	 ecx, OFFSET ?g_ConfigPath@@3V?$CStringT@DV?$StrTraitMFC_DLL@DV?$ChTraitsCRT@D@ATL@@@@@ATL@@A ; g_ConfigPath
  003a7	ff 15 00 00 00
	00		 call	 DWORD PTR __imp_??B?$CSimpleStringT@D$00@ATL@@QBEPBDXZ
  003ad	50		 push	 eax
  003ae	6a 00		 push	 0
  003b0	68 00 00 00 00	 push	 OFFSET $SG4294963819
  003b5	68 00 00 00 00	 push	 OFFSET $SG4294963818
  003ba	ff 15 00 00 00
	00		 call	 DWORD PTR __imp__GetPrivateProfileIntA@16
  003c0	89 45 e0	 mov	 DWORD PTR tv650[ebp], eax
  003c3	f2 0f 2a 45 e0	 cvtsi2sd xmm0, DWORD PTR tv650[ebp]
  003c8	8b 55 e0	 mov	 edx, DWORD PTR tv650[ebp]
  003cb	c1 ea 1f	 shr	 edx, 31			; 0000001fH
  003ce	f2 0f 58 04 d5
	00 00 00 00	 addsd	 xmm0, QWORD PTR __xmm@41f00000000000000000000000000000[edx*8]
  003d7	f2 0f 11 05 00
	00 00 00	 movsd	 QWORD PTR ?g_lamdar@@3NA, xmm0

; 113  : 	g_lamdag=GetPrivateProfileInt(_T("PARAMETER"), _T("LAMDAG"), 0, g_ConfigPath);

  003df	b9 00 00 00 00	 mov	 ecx, OFFSET ?g_ConfigPath@@3V?$CStringT@DV?$StrTraitMFC_DLL@DV?$ChTraitsCRT@D@ATL@@@@@ATL@@A ; g_ConfigPath
  003e4	ff 15 00 00 00
	00		 call	 DWORD PTR __imp_??B?$CSimpleStringT@D$00@ATL@@QBEPBDXZ
  003ea	50		 push	 eax
  003eb	6a 00		 push	 0
  003ed	68 00 00 00 00	 push	 OFFSET $SG4294963817
  003f2	68 00 00 00 00	 push	 OFFSET $SG4294963816
  003f7	ff 15 00 00 00
	00		 call	 DWORD PTR __imp__GetPrivateProfileIntA@16
  003fd	89 45 d4	 mov	 DWORD PTR tv656[ebp], eax
  00400	f2 0f 2a 45 d4	 cvtsi2sd xmm0, DWORD PTR tv656[ebp]
  00405	8b 45 d4	 mov	 eax, DWORD PTR tv656[ebp]
  00408	c1 e8 1f	 shr	 eax, 31			; 0000001fH
  0040b	f2 0f 58 04 c5
	00 00 00 00	 addsd	 xmm0, QWORD PTR __xmm@41f00000000000000000000000000000[eax*8]
  00414	f2 0f 11 05 00
	00 00 00	 movsd	 QWORD PTR ?g_lamdag@@3NA, xmm0

; 114  : 	g_lamdab=GetPrivateProfileInt(_T("PARAMETER"), _T("LAMDAB"), 0, g_ConfigPath);

  0041c	b9 00 00 00 00	 mov	 ecx, OFFSET ?g_ConfigPath@@3V?$CStringT@DV?$StrTraitMFC_DLL@DV?$ChTraitsCRT@D@ATL@@@@@ATL@@A ; g_ConfigPath
  00421	ff 15 00 00 00
	00		 call	 DWORD PTR __imp_??B?$CSimpleStringT@D$00@ATL@@QBEPBDXZ
  00427	50		 push	 eax
  00428	6a 00		 push	 0
  0042a	68 00 00 00 00	 push	 OFFSET $SG4294963815
  0042f	68 00 00 00 00	 push	 OFFSET $SG4294963814
  00434	ff 15 00 00 00
	00		 call	 DWORD PTR __imp__GetPrivateProfileIntA@16
  0043a	89 45 dc	 mov	 DWORD PTR tv662[ebp], eax
  0043d	f2 0f 2a 45 dc	 cvtsi2sd xmm0, DWORD PTR tv662[ebp]
  00442	8b 4d dc	 mov	 ecx, DWORD PTR tv662[ebp]
  00445	c1 e9 1f	 shr	 ecx, 31			; 0000001fH
  00448	f2 0f 58 04 cd
	00 00 00 00	 addsd	 xmm0, QWORD PTR __xmm@41f00000000000000000000000000000[ecx*8]
  00451	f2 0f 11 05 00
	00 00 00	 movsd	 QWORD PTR ?g_lamdab@@3NA, xmm0

; 115  : 	g_nChangePixel = GetPrivateProfileInt(_T("PARAMETER"), _T("CHANGEPIXEL"), 3, g_ConfigPath);

  00459	b9 00 00 00 00	 mov	 ecx, OFFSET ?g_ConfigPath@@3V?$CStringT@DV?$StrTraitMFC_DLL@DV?$ChTraitsCRT@D@ATL@@@@@ATL@@A ; g_ConfigPath
  0045e	ff 15 00 00 00
	00		 call	 DWORD PTR __imp_??B?$CSimpleStringT@D$00@ATL@@QBEPBDXZ
  00464	50		 push	 eax
  00465	6a 03		 push	 3
  00467	68 00 00 00 00	 push	 OFFSET $SG4294963813
  0046c	68 00 00 00 00	 push	 OFFSET $SG4294963812
  00471	ff 15 00 00 00
	00		 call	 DWORD PTR __imp__GetPrivateProfileIntA@16
  00477	a3 00 00 00 00	 mov	 DWORD PTR ?g_nChangePixel@@3HA, eax ; g_nChangePixel

; 116  : 	g_nThresh= GetPrivateProfileInt(_T("PARAMETER"), _T("THRETH2"), 255, g_ConfigPath);

  0047c	b9 00 00 00 00	 mov	 ecx, OFFSET ?g_ConfigPath@@3V?$CStringT@DV?$StrTraitMFC_DLL@DV?$ChTraitsCRT@D@ATL@@@@@ATL@@A ; g_ConfigPath
  00481	ff 15 00 00 00
	00		 call	 DWORD PTR __imp_??B?$CSimpleStringT@D$00@ATL@@QBEPBDXZ
  00487	50		 push	 eax
  00488	68 ff 00 00 00	 push	 255			; 000000ffH
  0048d	68 00 00 00 00	 push	 OFFSET $SG4294963811
  00492	68 00 00 00 00	 push	 OFFSET $SG4294963810
  00497	ff 15 00 00 00
	00		 call	 DWORD PTR __imp__GetPrivateProfileIntA@16
  0049d	a3 00 00 00 00	 mov	 DWORD PTR ?g_nThresh@@3HA, eax ; g_nThresh

; 117  : 	g_nChange255 = GetPrivateProfileInt(_T("PARAMETER"), _T("CHANGE255"), 0, g_ConfigPath);

  004a2	b9 00 00 00 00	 mov	 ecx, OFFSET ?g_ConfigPath@@3V?$CStringT@DV?$StrTraitMFC_DLL@DV?$ChTraitsCRT@D@ATL@@@@@ATL@@A ; g_ConfigPath
  004a7	ff 15 00 00 00
	00		 call	 DWORD PTR __imp_??B?$CSimpleStringT@D$00@ATL@@QBEPBDXZ
  004ad	50		 push	 eax
  004ae	6a 00		 push	 0
  004b0	68 00 00 00 00	 push	 OFFSET $SG4294963809
  004b5	68 00 00 00 00	 push	 OFFSET $SG4294963808
  004ba	ff 15 00 00 00
	00		 call	 DWORD PTR __imp__GetPrivateProfileIntA@16
  004c0	a3 00 00 00 00	 mov	 DWORD PTR ?g_nChange255@@3HA, eax ; g_nChange255

; 118  : 	g_nThreshNew= GetPrivateProfileInt(_T("PARAMETER"), _T("THRETHNEW"), 255, g_ConfigPath);

  004c5	b9 00 00 00 00	 mov	 ecx, OFFSET ?g_ConfigPath@@3V?$CStringT@DV?$StrTraitMFC_DLL@DV?$ChTraitsCRT@D@ATL@@@@@ATL@@A ; g_ConfigPath
  004ca	ff 15 00 00 00
	00		 call	 DWORD PTR __imp_??B?$CSimpleStringT@D$00@ATL@@QBEPBDXZ
  004d0	50		 push	 eax
  004d1	68 ff 00 00 00	 push	 255			; 000000ffH
  004d6	68 00 00 00 00	 push	 OFFSET $SG4294963807
  004db	68 00 00 00 00	 push	 OFFSET $SG4294963806
  004e0	ff 15 00 00 00
	00		 call	 DWORD PTR __imp__GetPrivateProfileIntA@16
  004e6	a3 00 00 00 00	 mov	 DWORD PTR ?g_nThreshNew@@3HA, eax ; g_nThreshNew

; 119  : 
; 120  : 	g_nVCOM = GetPrivateProfileInt(_T("COM"), _T("VCOMNUM"), 0, g_ConfigPath);

  004eb	b9 00 00 00 00	 mov	 ecx, OFFSET ?g_ConfigPath@@3V?$CStringT@DV?$StrTraitMFC_DLL@DV?$ChTraitsCRT@D@ATL@@@@@ATL@@A ; g_ConfigPath
  004f0	ff 15 00 00 00
	00		 call	 DWORD PTR __imp_??B?$CSimpleStringT@D$00@ATL@@QBEPBDXZ
  004f6	50		 push	 eax
  004f7	6a 00		 push	 0
  004f9	68 00 00 00 00	 push	 OFFSET $SG4294963805
  004fe	68 00 00 00 00	 push	 OFFSET $SG4294963804
  00503	ff 15 00 00 00
	00		 call	 DWORD PTR __imp__GetPrivateProfileIntA@16
  00509	a3 00 00 00 00	 mov	 DWORD PTR ?g_nVCOM@@3HA, eax ; g_nVCOM

; 121  : 	g_nLCOM = GetPrivateProfileInt(_T("COM"), _T("LCOMNUM"), 0, g_ConfigPath);

  0050e	b9 00 00 00 00	 mov	 ecx, OFFSET ?g_ConfigPath@@3V?$CStringT@DV?$StrTraitMFC_DLL@DV?$ChTraitsCRT@D@ATL@@@@@ATL@@A ; g_ConfigPath
  00513	ff 15 00 00 00
	00		 call	 DWORD PTR __imp_??B?$CSimpleStringT@D$00@ATL@@QBEPBDXZ
  00519	50		 push	 eax
  0051a	6a 00		 push	 0
  0051c	68 00 00 00 00	 push	 OFFSET $SG4294963803
  00521	68 00 00 00 00	 push	 OFFSET $SG4294963802
  00526	ff 15 00 00 00
	00		 call	 DWORD PTR __imp__GetPrivateProfileIntA@16
  0052c	a3 00 00 00 00	 mov	 DWORD PTR ?g_nLCOM@@3HA, eax ; g_nLCOM

; 122  : 	g_nCCOM=GetPrivateProfileInt(_T("COM"), _T("CCOMNUM"), 2, g_ConfigPath);

  00531	b9 00 00 00 00	 mov	 ecx, OFFSET ?g_ConfigPath@@3V?$CStringT@DV?$StrTraitMFC_DLL@DV?$ChTraitsCRT@D@ATL@@@@@ATL@@A ; g_ConfigPath
  00536	ff 15 00 00 00
	00		 call	 DWORD PTR __imp_??B?$CSimpleStringT@D$00@ATL@@QBEPBDXZ
  0053c	50		 push	 eax
  0053d	6a 02		 push	 2
  0053f	68 00 00 00 00	 push	 OFFSET $SG4294963801
  00544	68 00 00 00 00	 push	 OFFSET $SG4294963800
  00549	ff 15 00 00 00
	00		 call	 DWORD PTR __imp__GetPrivateProfileIntA@16
  0054f	a3 00 00 00 00	 mov	 DWORD PTR ?g_nCCOM@@3HA, eax ; g_nCCOM

; 123  : 
; 124  : 	g_bConnect = GetPrivateProfileInt(_T("SOCKET"), _T("ISCONNECT"), 0, g_ConfigPath);

  00554	b9 00 00 00 00	 mov	 ecx, OFFSET ?g_ConfigPath@@3V?$CStringT@DV?$StrTraitMFC_DLL@DV?$ChTraitsCRT@D@ATL@@@@@ATL@@A ; g_ConfigPath
  00559	ff 15 00 00 00
	00		 call	 DWORD PTR __imp_??B?$CSimpleStringT@D$00@ATL@@QBEPBDXZ
  0055f	50		 push	 eax
  00560	6a 00		 push	 0
  00562	68 00 00 00 00	 push	 OFFSET $SG4294963799
  00567	68 00 00 00 00	 push	 OFFSET $SG4294963798
  0056c	ff 15 00 00 00
	00		 call	 DWORD PTR __imp__GetPrivateProfileIntA@16
  00572	a3 00 00 00 00	 mov	 DWORD PTR ?g_bConnect@@3HA, eax ; g_bConnect

; 125  : 	GetPrivateProfileString(_T("SOCKET"), _T("SERVERIP"), _T("192.168.1.248"), g_strIP.GetBuffer(32), 32, g_ConfigPath);

  00577	b9 00 00 00 00	 mov	 ecx, OFFSET ?g_ConfigPath@@3V?$CStringT@DV?$StrTraitMFC_DLL@DV?$ChTraitsCRT@D@ATL@@@@@ATL@@A ; g_ConfigPath
  0057c	ff 15 00 00 00
	00		 call	 DWORD PTR __imp_??B?$CSimpleStringT@D$00@ATL@@QBEPBDXZ
  00582	50		 push	 eax
  00583	6a 20		 push	 32			; 00000020H
  00585	6a 20		 push	 32			; 00000020H
  00587	b9 00 00 00 00	 mov	 ecx, OFFSET ?g_strIP@@3V?$CStringT@DV?$StrTraitMFC_DLL@DV?$ChTraitsCRT@D@ATL@@@@@ATL@@A ; g_strIP
  0058c	ff 15 00 00 00
	00		 call	 DWORD PTR __imp_?GetBuffer@?$CSimpleStringT@D$00@ATL@@QAEPADH@Z
  00592	50		 push	 eax
  00593	68 00 00 00 00	 push	 OFFSET $SG4294963797
  00598	68 00 00 00 00	 push	 OFFSET $SG4294963796
  0059d	68 00 00 00 00	 push	 OFFSET $SG4294963795
  005a2	ff 15 00 00 00
	00		 call	 DWORD PTR __imp__GetPrivateProfileStringA@24

; 126  : 	g_nPort = GetPrivateProfileInt(_T("SOCKET"), _T("SERVERPORT"), 8887, g_ConfigPath);

  005a8	b9 00 00 00 00	 mov	 ecx, OFFSET ?g_ConfigPath@@3V?$CStringT@DV?$StrTraitMFC_DLL@DV?$ChTraitsCRT@D@ATL@@@@@ATL@@A ; g_ConfigPath
  005ad	ff 15 00 00 00
	00		 call	 DWORD PTR __imp_??B?$CSimpleStringT@D$00@ATL@@QBEPBDXZ
  005b3	50		 push	 eax
  005b4	68 b7 22 00 00	 push	 8887			; 000022b7H
  005b9	68 00 00 00 00	 push	 OFFSET $SG4294963794
  005be	68 00 00 00 00	 push	 OFFSET $SG4294963793
  005c3	ff 15 00 00 00
	00		 call	 DWORD PTR __imp__GetPrivateProfileIntA@16
  005c9	a3 00 00 00 00	 mov	 DWORD PTR ?g_nPort@@3HA, eax ; g_nPort

; 127  : 
; 128  : 	return TRUE;  // return TRUE unless you set the focus to a control

  005ce	c6 45 e7 01	 mov	 BYTE PTR $T6[ebp], 1
  005d2	c6 45 fc 00	 mov	 BYTE PTR __$EHRec$[ebp+8], 0
  005d6	8d 4d e8	 lea	 ecx, DWORD PTR _strValue1$[ebp]
  005d9	ff 15 00 00 00
	00		 call	 DWORD PTR __imp_??1?$CStringT@DV?$StrTraitMFC_DLL@DV?$ChTraitsCRT@D@ATL@@@@@ATL@@QAE@XZ
  005df	c7 45 fc ff ff
	ff ff		 mov	 DWORD PTR __$EHRec$[ebp+8], -1
  005e6	8d 4d ec	 lea	 ecx, DWORD PTR _strValue$[ebp]
  005e9	ff 15 00 00 00
	00		 call	 DWORD PTR __imp_??1?$CStringT@DV?$StrTraitMFC_DLL@DV?$ChTraitsCRT@D@ATL@@@@@ATL@@QAE@XZ
  005ef	8a 45 e7	 mov	 al, BYTE PTR $T6[ebp]

; 129  : }

  005f2	8b 4d f4	 mov	 ecx, DWORD PTR __$EHRec$[ebp]
  005f5	64 89 0d 00 00
	00 00		 mov	 DWORD PTR fs:0, ecx
  005fc	59		 pop	 ecx
  005fd	8b 4d f0	 mov	 ecx, DWORD PTR __$ArrayPad$[ebp]
  00600	33 cd		 xor	 ecx, ebp
  00602	e8 00 00 00 00	 call	 @__security_check_cookie@4
  00607	8b e5		 mov	 esp, ebp
  00609	5d		 pop	 ebp
  0060a	c3		 ret	 0
_TEXT	ENDS
;	COMDAT text$x
text$x	SEGMENT
__unwindfunclet$?ReadConfig@@YA_NXZ$0:
  00000	8d 4d ec	 lea	 ecx, DWORD PTR _strValue$[ebp]
  00003	ff 25 00 00 00
	00		 jmp	 DWORD PTR __imp_??1?$CStringT@DV?$StrTraitMFC_DLL@DV?$ChTraitsCRT@D@ATL@@@@@ATL@@QAE@XZ
__unwindfunclet$?ReadConfig@@YA_NXZ$1:
  00009	8d 4d e8	 lea	 ecx, DWORD PTR _strValue1$[ebp]
  0000c	ff 25 00 00 00
	00		 jmp	 DWORD PTR __imp_??1?$CStringT@DV?$StrTraitMFC_DLL@DV?$ChTraitsCRT@D@ATL@@@@@ATL@@QAE@XZ
__unwindfunclet$?ReadConfig@@YA_NXZ$2:
  00012	8d 4d bc	 lea	 ecx, DWORD PTR $T3[ebp]
  00015	ff 25 00 00 00
	00		 jmp	 DWORD PTR __imp_??1?$CStringT@DV?$StrTraitMFC_DLL@DV?$ChTraitsCRT@D@ATL@@@@@ATL@@QAE@XZ
__unwindfunclet$?ReadConfig@@YA_NXZ$3:
  0001b	8d 4d b4	 lea	 ecx, DWORD PTR $T2[ebp]
  0001e	ff 25 00 00 00
	00		 jmp	 DWORD PTR __imp_??1?$CStringT@DV?$StrTraitMFC_DLL@DV?$ChTraitsCRT@D@ATL@@@@@ATL@@QAE@XZ
__ehhandler$?ReadConfig@@YA_NXZ:
  00024	8b 54 24 08	 mov	 edx, DWORD PTR [esp+8]
  00028	8d 42 0c	 lea	 eax, DWORD PTR [edx+12]
  0002b	8b 4a b8	 mov	 ecx, DWORD PTR [edx-72]
  0002e	33 c8		 xor	 ecx, eax
  00030	e8 00 00 00 00	 call	 @__security_check_cookie@4
  00035	8b 4a fc	 mov	 ecx, DWORD PTR [edx-4]
  00038	33 c8		 xor	 ecx, eax
  0003a	e8 00 00 00 00	 call	 @__security_check_cookie@4
  0003f	b8 00 00 00 00	 mov	 eax, OFFSET __ehfuncinfo$?ReadConfig@@YA_NXZ
  00044	e9 00 00 00 00	 jmp	 ___CxxFrameHandler3
text$x	ENDS
?ReadConfig@@YA_NXZ ENDP				; ReadConfig
; Function compile flags: /Odtp
; File e:\work_wm\hxijy_code\endoscopemfc2012_menu_changepara_youhua_savepic_usb_1114_twothread_svepic_save5\src\endoscopemfc\datatype.cpp
;	COMDAT ?SetConfig@@YAXV?$CStringT@DV?$StrTraitMFC_DLL@DV?$ChTraitsCRT@D@ATL@@@@@ATL@@N@Z
_TEXT	SEGMENT
$T2 = -188						; size = 132
tv155 = -56						; size = 4
tv94 = -52						; size = 4
_sql$ = -48						; size = 24
_cstrTmp$ = -24						; size = 4
_temp$ = -20						; size = 4
__$ArrayPad$ = -16					; size = 4
__$EHRec$ = -12						; size = 12
_keyname$ = 8						; size = 4
_para$ = 12						; size = 8
?SetConfig@@YAXV?$CStringT@DV?$StrTraitMFC_DLL@DV?$ChTraitsCRT@D@ATL@@@@@ATL@@N@Z PROC ; SetConfig, COMDAT

; 132  : {

  00000	55		 push	 ebp
  00001	8b ec		 mov	 ebp, esp
  00003	6a ff		 push	 -1
  00005	68 00 00 00 00	 push	 __ehhandler$?SetConfig@@YAXV?$CStringT@DV?$StrTraitMFC_DLL@DV?$ChTraitsCRT@D@ATL@@@@@ATL@@N@Z
  0000a	64 a1 00 00 00
	00		 mov	 eax, DWORD PTR fs:0
  00010	50		 push	 eax
  00011	81 ec b0 00 00
	00		 sub	 esp, 176		; 000000b0H
  00017	a1 00 00 00 00	 mov	 eax, DWORD PTR ___security_cookie
  0001c	33 c5		 xor	 eax, ebp
  0001e	89 45 f0	 mov	 DWORD PTR __$ArrayPad$[ebp], eax
  00021	50		 push	 eax
  00022	8d 45 f4	 lea	 eax, DWORD PTR __$EHRec$[ebp]
  00025	64 a3 00 00 00
	00		 mov	 DWORD PTR fs:0, eax
  0002b	c7 45 fc 00 00
	00 00		 mov	 DWORD PTR __$EHRec$[ebp+8], 0

; 133  : 	CString temp;

  00032	8d 4d ec	 lea	 ecx, DWORD PTR _temp$[ebp]
  00035	ff 15 00 00 00
	00		 call	 DWORD PTR __imp_??0?$CStringT@DV?$StrTraitMFC_DLL@DV?$ChTraitsCRT@D@ATL@@@@@ATL@@QAE@XZ
  0003b	c6 45 fc 01	 mov	 BYTE PTR __$EHRec$[ebp+8], 1

; 134  : 	temp.Format(_T("%lf"), para);

  0003f	83 ec 08	 sub	 esp, 8
  00042	f2 0f 10 45 0c	 movsd	 xmm0, QWORD PTR _para$[ebp]
  00047	f2 0f 11 04 24	 movsd	 QWORD PTR [esp], xmm0
  0004c	68 00 00 00 00	 push	 OFFSET $SG4294963792
  00051	8d 45 ec	 lea	 eax, DWORD PTR _temp$[ebp]
  00054	50		 push	 eax
  00055	ff 15 00 00 00
	00		 call	 DWORD PTR __imp_?Format@?$CStringT@DV?$StrTraitMFC_DLL@DV?$ChTraitsCRT@D@ATL@@@@@ATL@@QAAXPBDZZ
  0005b	83 c4 10	 add	 esp, 16			; 00000010H

; 135  : 	WritePrivateProfileString(_T("PARAMETER"), keyname, temp, g_ConfigPath);

  0005e	b9 00 00 00 00	 mov	 ecx, OFFSET ?g_ConfigPath@@3V?$CStringT@DV?$StrTraitMFC_DLL@DV?$ChTraitsCRT@D@ATL@@@@@ATL@@A ; g_ConfigPath
  00063	ff 15 00 00 00
	00		 call	 DWORD PTR __imp_??B?$CSimpleStringT@D$00@ATL@@QBEPBDXZ
  00069	50		 push	 eax
  0006a	8d 4d ec	 lea	 ecx, DWORD PTR _temp$[ebp]
  0006d	ff 15 00 00 00
	00		 call	 DWORD PTR __imp_??B?$CSimpleStringT@D$00@ATL@@QBEPBDXZ
  00073	50		 push	 eax
  00074	8d 4d 08	 lea	 ecx, DWORD PTR _keyname$[ebp]
  00077	ff 15 00 00 00
	00		 call	 DWORD PTR __imp_??B?$CSimpleStringT@D$00@ATL@@QBEPBDXZ
  0007d	50		 push	 eax
  0007e	68 00 00 00 00	 push	 OFFSET $SG4294963791
  00083	ff 15 00 00 00
	00		 call	 DWORD PTR __imp__WritePrivateProfileStringA@16

; 136  : 
; 137  :  	CString cstrTmp;

  00089	8d 4d e8	 lea	 ecx, DWORD PTR _cstrTmp$[ebp]
  0008c	ff 15 00 00 00
	00		 call	 DWORD PTR __imp_??0?$CStringT@DV?$StrTraitMFC_DLL@DV?$ChTraitsCRT@D@ATL@@@@@ATL@@QAE@XZ
  00092	c6 45 fc 02	 mov	 BYTE PTR __$EHRec$[ebp+8], 2

; 138  :  	cstrTmp.Format( _T("insert into RecData (, ) Values('%s', '%lf')"), keyname, para);

  00096	83 ec 08	 sub	 esp, 8
  00099	f2 0f 10 45 0c	 movsd	 xmm0, QWORD PTR _para$[ebp]
  0009e	f2 0f 11 04 24	 movsd	 QWORD PTR [esp], xmm0
  000a3	8b 4d 08	 mov	 ecx, DWORD PTR _keyname$[ebp]
  000a6	51		 push	 ecx
  000a7	68 00 00 00 00	 push	 OFFSET $SG4294963790
  000ac	8d 55 e8	 lea	 edx, DWORD PTR _cstrTmp$[ebp]
  000af	52		 push	 edx
  000b0	ff 15 00 00 00
	00		 call	 DWORD PTR __imp_?Format@?$CStringT@DV?$StrTraitMFC_DLL@DV?$ChTraitsCRT@D@ATL@@@@@ATL@@QAAXPBDZZ
  000b6	83 c4 14	 add	 esp, 20			; 00000014H

; 139  : 	//USES_CONVERSION; 
; 140  :  	string sql=(CT2A)cstrTmp.GetString(); 

  000b9	8d 4d e8	 lea	 ecx, DWORD PTR _cstrTmp$[ebp]
  000bc	ff 15 00 00 00
	00		 call	 DWORD PTR __imp_?GetString@?$CSimpleStringT@D$00@ATL@@QBEPBDXZ
  000c2	50		 push	 eax
  000c3	8d 8d 44 ff ff
	ff		 lea	 ecx, DWORD PTR $T2[ebp]
  000c9	e8 00 00 00 00	 call	 ??0?$CA2AEX@$0IA@@ATL@@QAE@PBD@Z ; ATL::CA2AEX<128>::CA2AEX<128>
  000ce	89 45 cc	 mov	 DWORD PTR tv94[ebp], eax
  000d1	8b 45 cc	 mov	 eax, DWORD PTR tv94[ebp]
  000d4	89 45 c8	 mov	 DWORD PTR tv155[ebp], eax
  000d7	c6 45 fc 03	 mov	 BYTE PTR __$EHRec$[ebp+8], 3
  000db	8b 4d c8	 mov	 ecx, DWORD PTR tv155[ebp]
  000de	e8 00 00 00 00	 call	 ??B?$CA2AEX@$0IA@@ATL@@QBEPADXZ ; ATL::CA2AEX<128>::operator char *
  000e3	50		 push	 eax
  000e4	8d 4d d0	 lea	 ecx, DWORD PTR _sql$[ebp]
  000e7	e8 00 00 00 00	 call	 ??0?$basic_string@DU?$char_traits@D@std@@V?$allocator@D@2@@std@@QAE@PBD@Z ; std::basic_string<char,std::char_traits<char>,std::allocator<char> >::basic_string<char,std::char_traits<char>,std::allocator<char> >
  000ec	c6 45 fc 05	 mov	 BYTE PTR __$EHRec$[ebp+8], 5
  000f0	8d 8d 44 ff ff
	ff		 lea	 ecx, DWORD PTR $T2[ebp]
  000f6	e8 00 00 00 00	 call	 ??1?$CA2AEX@$0IA@@ATL@@QAE@XZ ; ATL::CA2AEX<128>::~CA2AEX<128>

; 141  : 	g_Operate_list.push( sql );

  000fb	8d 4d d0	 lea	 ecx, DWORD PTR _sql$[ebp]
  000fe	51		 push	 ecx
  000ff	b9 00 00 00 00	 mov	 ecx, OFFSET ?g_Operate_list@@3V?$queue@V?$basic_string@DU?$char_traits@D@std@@V?$allocator@D@2@@std@@V?$deque@V?$basic_string@DU?$char_traits@D@std@@V?$allocator@D@2@@std@@V?$allocator@V?$basic_string@DU?$char_traits@D@std@@V?$allocator@D@2@@std@@@2@@2@@std@@A ; g_Operate_list
  00104	e8 00 00 00 00	 call	 ?push@?$queue@V?$basic_string@DU?$char_traits@D@std@@V?$allocator@D@2@@std@@V?$deque@V?$basic_string@DU?$char_traits@D@std@@V?$allocator@D@2@@std@@V?$allocator@V?$basic_string@DU?$char_traits@D@std@@V?$allocator@D@2@@std@@@2@@2@@std@@QAEXABV?$basic_string@DU?$char_traits@D@std@@V?$allocator@D@2@@2@@Z ; std::queue<std::basic_string<char,std::char_traits<char>,std::allocator<char> >,std::deque<std::basic_string<char,std::char_traits<char>,std::allocator<char> >,std::allocator<std::basic_string<char,std::char_traits<char>,std::allocator<char> > > > >::push

; 142  : 
; 143  : // 	bool ret = SQLiteHelper::GetInstance().InsertData(sql);  
; 144  : // 	if (!ret)  
; 145  : // 	{  
; 146  : // 		string strTmp = SQLiteHelper::GetInstance().GetLastError();  
; 147  : // 		g_Operate_list.pop();
; 148  : // 		AfxMessageBox( _T("SaveError!") );
; 149  : // 		return;  
; 150  : // 	} 
; 151  : }

  00109	c6 45 fc 02	 mov	 BYTE PTR __$EHRec$[ebp+8], 2
  0010d	8d 4d d0	 lea	 ecx, DWORD PTR _sql$[ebp]
  00110	e8 00 00 00 00	 call	 ??1?$basic_string@DU?$char_traits@D@std@@V?$allocator@D@2@@std@@QAE@XZ ; std::basic_string<char,std::char_traits<char>,std::allocator<char> >::~basic_string<char,std::char_traits<char>,std::allocator<char> >
  00115	c6 45 fc 01	 mov	 BYTE PTR __$EHRec$[ebp+8], 1
  00119	8d 4d e8	 lea	 ecx, DWORD PTR _cstrTmp$[ebp]
  0011c	ff 15 00 00 00
	00		 call	 DWORD PTR __imp_??1?$CStringT@DV?$StrTraitMFC_DLL@DV?$ChTraitsCRT@D@ATL@@@@@ATL@@QAE@XZ
  00122	c6 45 fc 00	 mov	 BYTE PTR __$EHRec$[ebp+8], 0
  00126	8d 4d ec	 lea	 ecx, DWORD PTR _temp$[ebp]
  00129	ff 15 00 00 00
	00		 call	 DWORD PTR __imp_??1?$CStringT@DV?$StrTraitMFC_DLL@DV?$ChTraitsCRT@D@ATL@@@@@ATL@@QAE@XZ
  0012f	c7 45 fc ff ff
	ff ff		 mov	 DWORD PTR __$EHRec$[ebp+8], -1
  00136	8d 4d 08	 lea	 ecx, DWORD PTR _keyname$[ebp]
  00139	ff 15 00 00 00
	00		 call	 DWORD PTR __imp_??1?$CStringT@DV?$StrTraitMFC_DLL@DV?$ChTraitsCRT@D@ATL@@@@@ATL@@QAE@XZ
  0013f	8b 4d f4	 mov	 ecx, DWORD PTR __$EHRec$[ebp]
  00142	64 89 0d 00 00
	00 00		 mov	 DWORD PTR fs:0, ecx
  00149	59		 pop	 ecx
  0014a	8b 4d f0	 mov	 ecx, DWORD PTR __$ArrayPad$[ebp]
  0014d	33 cd		 xor	 ecx, ebp
  0014f	e8 00 00 00 00	 call	 @__security_check_cookie@4
  00154	8b e5		 mov	 esp, ebp
  00156	5d		 pop	 ebp
  00157	c3		 ret	 0
_TEXT	ENDS
;	COMDAT text$x
text$x	SEGMENT
__unwindfunclet$?SetConfig@@YAXV?$CStringT@DV?$StrTraitMFC_DLL@DV?$ChTraitsCRT@D@ATL@@@@@ATL@@N@Z$0:
  00000	8d 4d 08	 lea	 ecx, DWORD PTR _keyname$[ebp]
  00003	ff 25 00 00 00
	00		 jmp	 DWORD PTR __imp_??1?$CStringT@DV?$StrTraitMFC_DLL@DV?$ChTraitsCRT@D@ATL@@@@@ATL@@QAE@XZ
__unwindfunclet$?SetConfig@@YAXV?$CStringT@DV?$StrTraitMFC_DLL@DV?$ChTraitsCRT@D@ATL@@@@@ATL@@N@Z$1:
  00009	8d 4d ec	 lea	 ecx, DWORD PTR _temp$[ebp]
  0000c	ff 25 00 00 00
	00		 jmp	 DWORD PTR __imp_??1?$CStringT@DV?$StrTraitMFC_DLL@DV?$ChTraitsCRT@D@ATL@@@@@ATL@@QAE@XZ
__unwindfunclet$?SetConfig@@YAXV?$CStringT@DV?$StrTraitMFC_DLL@DV?$ChTraitsCRT@D@ATL@@@@@ATL@@N@Z$2:
  00012	8d 4d e8	 lea	 ecx, DWORD PTR _cstrTmp$[ebp]
  00015	ff 25 00 00 00
	00		 jmp	 DWORD PTR __imp_??1?$CStringT@DV?$StrTraitMFC_DLL@DV?$ChTraitsCRT@D@ATL@@@@@ATL@@QAE@XZ
__unwindfunclet$?SetConfig@@YAXV?$CStringT@DV?$StrTraitMFC_DLL@DV?$ChTraitsCRT@D@ATL@@@@@ATL@@N@Z$3:
  0001b	8d 8d 44 ff ff
	ff		 lea	 ecx, DWORD PTR $T2[ebp]
  00021	e9 00 00 00 00	 jmp	 ??1?$CA2AEX@$0IA@@ATL@@QAE@XZ ; ATL::CA2AEX<128>::~CA2AEX<128>
__unwindfunclet$?SetConfig@@YAXV?$CStringT@DV?$StrTraitMFC_DLL@DV?$ChTraitsCRT@D@ATL@@@@@ATL@@N@Z$4:
  00026	8d 4d d0	 lea	 ecx, DWORD PTR _sql$[ebp]
  00029	e9 00 00 00 00	 jmp	 ??1?$basic_string@DU?$char_traits@D@std@@V?$allocator@D@2@@std@@QAE@XZ ; std::basic_string<char,std::char_traits<char>,std::allocator<char> >::~basic_string<char,std::char_traits<char>,std::allocator<char> >
__ehhandler$?SetConfig@@YAXV?$CStringT@DV?$StrTraitMFC_DLL@DV?$ChTraitsCRT@D@ATL@@@@@ATL@@N@Z:
  0002e	8b 54 24 08	 mov	 edx, DWORD PTR [esp+8]
  00032	8d 42 0c	 lea	 eax, DWORD PTR [edx+12]
  00035	8b 8a 4c ff ff
	ff		 mov	 ecx, DWORD PTR [edx-180]
  0003b	33 c8		 xor	 ecx, eax
  0003d	e8 00 00 00 00	 call	 @__security_check_cookie@4
  00042	8b 4a fc	 mov	 ecx, DWORD PTR [edx-4]
  00045	33 c8		 xor	 ecx, eax
  00047	e8 00 00 00 00	 call	 @__security_check_cookie@4
  0004c	b8 00 00 00 00	 mov	 eax, OFFSET __ehfuncinfo$?SetConfig@@YAXV?$CStringT@DV?$StrTraitMFC_DLL@DV?$ChTraitsCRT@D@ATL@@@@@ATL@@N@Z
  00051	e9 00 00 00 00	 jmp	 ___CxxFrameHandler3
text$x	ENDS
?SetConfig@@YAXV?$CStringT@DV?$StrTraitMFC_DLL@DV?$ChTraitsCRT@D@ATL@@@@@ATL@@N@Z ENDP ; SetConfig
; Function compile flags: /Odtp
; File e:\work_wm\hxijy_code\endoscopemfc2012_menu_changepara_youhua_savepic_usb_1114_twothread_svepic_save5\src\endoscopemfc\datatype.cpp
;	COMDAT ?ReturnPath@@YA?AV?$CStringT@DV?$StrTraitMFC_DLL@DV?$ChTraitsCRT@D@ATL@@@@@ATL@@XZ
_TEXT	SEGMENT
$T2 = -40						; size = 4
tv65 = -36						; size = 4
tv132 = -32						; size = 4
_nPos$ = -28						; size = 4
$T3 = -24						; size = 4
_sPath$ = -20						; size = 4
__$ArrayPad$ = -16					; size = 4
__$EHRec$ = -12						; size = 12
___$ReturnUdt$ = 8					; size = 4
?ReturnPath@@YA?AV?$CStringT@DV?$StrTraitMFC_DLL@DV?$ChTraitsCRT@D@ATL@@@@@ATL@@XZ PROC ; ReturnPath, COMDAT

; 154  : {

  00000	55		 push	 ebp
  00001	8b ec		 mov	 ebp, esp
  00003	6a ff		 push	 -1
  00005	68 00 00 00 00	 push	 __ehhandler$?ReturnPath@@YA?AV?$CStringT@DV?$StrTraitMFC_DLL@DV?$ChTraitsCRT@D@ATL@@@@@ATL@@XZ
  0000a	64 a1 00 00 00
	00		 mov	 eax, DWORD PTR fs:0
  00010	50		 push	 eax
  00011	83 ec 1c	 sub	 esp, 28			; 0000001cH
  00014	a1 00 00 00 00	 mov	 eax, DWORD PTR ___security_cookie
  00019	33 c5		 xor	 eax, ebp
  0001b	89 45 f0	 mov	 DWORD PTR __$ArrayPad$[ebp], eax
  0001e	50		 push	 eax
  0001f	8d 45 f4	 lea	 eax, DWORD PTR __$EHRec$[ebp]
  00022	64 a3 00 00 00
	00		 mov	 DWORD PTR fs:0, eax
  00028	c7 45 e8 00 00
	00 00		 mov	 DWORD PTR $T3[ebp], 0

; 155  : 	CString sPath;

  0002f	8d 4d ec	 lea	 ecx, DWORD PTR _sPath$[ebp]
  00032	ff 15 00 00 00
	00		 call	 DWORD PTR __imp_??0?$CStringT@DV?$StrTraitMFC_DLL@DV?$ChTraitsCRT@D@ATL@@@@@ATL@@QAE@XZ
  00038	c7 45 fc 00 00
	00 00		 mov	 DWORD PTR __$EHRec$[ebp+8], 0

; 156  : 	GetModuleFileName(NULL, sPath.GetBufferSetLength(MAX_PATH + 1), MAX_PATH);

  0003f	68 04 01 00 00	 push	 260			; 00000104H
  00044	68 05 01 00 00	 push	 261			; 00000105H
  00049	8d 4d ec	 lea	 ecx, DWORD PTR _sPath$[ebp]
  0004c	ff 15 00 00 00
	00		 call	 DWORD PTR __imp_?GetBufferSetLength@?$CSimpleStringT@D$00@ATL@@QAEPADH@Z
  00052	50		 push	 eax
  00053	6a 00		 push	 0
  00055	ff 15 00 00 00
	00		 call	 DWORD PTR __imp__GetModuleFileNameA@12

; 157  : 	sPath.ReleaseBuffer();

  0005b	6a ff		 push	 -1
  0005d	8d 4d ec	 lea	 ecx, DWORD PTR _sPath$[ebp]
  00060	ff 15 00 00 00
	00		 call	 DWORD PTR __imp_?ReleaseBuffer@?$CSimpleStringT@D$00@ATL@@QAEXH@Z

; 158  : 
; 159  : 	int nPos;
; 160  : 	nPos = sPath.ReverseFind('\\');

  00066	6a 5c		 push	 92			; 0000005cH
  00068	8d 4d ec	 lea	 ecx, DWORD PTR _sPath$[ebp]
  0006b	ff 15 00 00 00
	00		 call	 DWORD PTR __imp_?ReverseFind@?$CStringT@DV?$StrTraitMFC_DLL@DV?$ChTraitsCRT@D@ATL@@@@@ATL@@QBEHD@Z
  00071	89 45 e4	 mov	 DWORD PTR _nPos$[ebp], eax

; 161  : 	sPath = sPath.Left(nPos);

  00074	8b 45 e4	 mov	 eax, DWORD PTR _nPos$[ebp]
  00077	50		 push	 eax
  00078	8d 4d d8	 lea	 ecx, DWORD PTR $T2[ebp]
  0007b	51		 push	 ecx
  0007c	8d 4d ec	 lea	 ecx, DWORD PTR _sPath$[ebp]
  0007f	ff 15 00 00 00
	00		 call	 DWORD PTR __imp_?Left@?$CStringT@DV?$StrTraitMFC_DLL@DV?$ChTraitsCRT@D@ATL@@@@@ATL@@QBE?AV12@H@Z
  00085	89 45 dc	 mov	 DWORD PTR tv65[ebp], eax
  00088	8b 55 dc	 mov	 edx, DWORD PTR tv65[ebp]
  0008b	89 55 e0	 mov	 DWORD PTR tv132[ebp], edx
  0008e	c6 45 fc 01	 mov	 BYTE PTR __$EHRec$[ebp+8], 1
  00092	8b 45 e0	 mov	 eax, DWORD PTR tv132[ebp]
  00095	50		 push	 eax
  00096	8d 4d ec	 lea	 ecx, DWORD PTR _sPath$[ebp]
  00099	ff 15 00 00 00
	00		 call	 DWORD PTR __imp_??4?$CStringT@DV?$StrTraitMFC_DLL@DV?$ChTraitsCRT@D@ATL@@@@@ATL@@QAEAAV01@ABV01@@Z
  0009f	c6 45 fc 00	 mov	 BYTE PTR __$EHRec$[ebp+8], 0
  000a3	8d 4d d8	 lea	 ecx, DWORD PTR $T2[ebp]
  000a6	ff 15 00 00 00
	00		 call	 DWORD PTR __imp_??1?$CStringT@DV?$StrTraitMFC_DLL@DV?$ChTraitsCRT@D@ATL@@@@@ATL@@QAE@XZ

; 162  : 	return sPath;

  000ac	8d 4d ec	 lea	 ecx, DWORD PTR _sPath$[ebp]
  000af	51		 push	 ecx
  000b0	8b 4d 08	 mov	 ecx, DWORD PTR ___$ReturnUdt$[ebp]
  000b3	ff 15 00 00 00
	00		 call	 DWORD PTR __imp_??0?$CStringT@DV?$StrTraitMFC_DLL@DV?$ChTraitsCRT@D@ATL@@@@@ATL@@QAE@ABV01@@Z
  000b9	8b 55 e8	 mov	 edx, DWORD PTR $T3[ebp]
  000bc	83 ca 01	 or	 edx, 1
  000bf	89 55 e8	 mov	 DWORD PTR $T3[ebp], edx
  000c2	c7 45 fc ff ff
	ff ff		 mov	 DWORD PTR __$EHRec$[ebp+8], -1
  000c9	8d 4d ec	 lea	 ecx, DWORD PTR _sPath$[ebp]
  000cc	ff 15 00 00 00
	00		 call	 DWORD PTR __imp_??1?$CStringT@DV?$StrTraitMFC_DLL@DV?$ChTraitsCRT@D@ATL@@@@@ATL@@QAE@XZ
  000d2	8b 45 08	 mov	 eax, DWORD PTR ___$ReturnUdt$[ebp]

; 163  : }

  000d5	8b 4d f4	 mov	 ecx, DWORD PTR __$EHRec$[ebp]
  000d8	64 89 0d 00 00
	00 00		 mov	 DWORD PTR fs:0, ecx
  000df	59		 pop	 ecx
  000e0	8b 4d f0	 mov	 ecx, DWORD PTR __$ArrayPad$[ebp]
  000e3	33 cd		 xor	 ecx, ebp
  000e5	e8 00 00 00 00	 call	 @__security_check_cookie@4
  000ea	8b e5		 mov	 esp, ebp
  000ec	5d		 pop	 ebp
  000ed	c3		 ret	 0
_TEXT	ENDS
;	COMDAT text$x
text$x	SEGMENT
__unwindfunclet$?ReturnPath@@YA?AV?$CStringT@DV?$StrTraitMFC_DLL@DV?$ChTraitsCRT@D@ATL@@@@@ATL@@XZ$0:
  00000	8d 4d ec	 lea	 ecx, DWORD PTR _sPath$[ebp]
  00003	ff 25 00 00 00
	00		 jmp	 DWORD PTR __imp_??1?$CStringT@DV?$StrTraitMFC_DLL@DV?$ChTraitsCRT@D@ATL@@@@@ATL@@QAE@XZ
__unwindfunclet$?ReturnPath@@YA?AV?$CStringT@DV?$StrTraitMFC_DLL@DV?$ChTraitsCRT@D@ATL@@@@@ATL@@XZ$1:
  00009	8d 4d d8	 lea	 ecx, DWORD PTR $T2[ebp]
  0000c	ff 25 00 00 00
	00		 jmp	 DWORD PTR __imp_??1?$CStringT@DV?$StrTraitMFC_DLL@DV?$ChTraitsCRT@D@ATL@@@@@ATL@@QAE@XZ
__ehhandler$?ReturnPath@@YA?AV?$CStringT@DV?$StrTraitMFC_DLL@DV?$ChTraitsCRT@D@ATL@@@@@ATL@@XZ:
  00012	8b 54 24 08	 mov	 edx, DWORD PTR [esp+8]
  00016	8d 42 0c	 lea	 eax, DWORD PTR [edx+12]
  00019	8b 4a e0	 mov	 ecx, DWORD PTR [edx-32]
  0001c	33 c8		 xor	 ecx, eax
  0001e	e8 00 00 00 00	 call	 @__security_check_cookie@4
  00023	8b 4a fc	 mov	 ecx, DWORD PTR [edx-4]
  00026	33 c8		 xor	 ecx, eax
  00028	e8 00 00 00 00	 call	 @__security_check_cookie@4
  0002d	b8 00 00 00 00	 mov	 eax, OFFSET __ehfuncinfo$?ReturnPath@@YA?AV?$CStringT@DV?$StrTraitMFC_DLL@DV?$ChTraitsCRT@D@ATL@@@@@ATL@@XZ
  00032	e9 00 00 00 00	 jmp	 ___CxxFrameHandler3
text$x	ENDS
?ReturnPath@@YA?AV?$CStringT@DV?$StrTraitMFC_DLL@DV?$ChTraitsCRT@D@ATL@@@@@ATL@@XZ ENDP ; ReturnPath
; Function compile flags: /Odtp
; File d:\program files\microsoft visual studio 11.0\vc\atlmfc\include\cstringt.h
;	COMDAT ??9ATL@@YA_NABV?$CStringT@DV?$StrTraitMFC_DLL@DV?$ChTraitsCRT@D@ATL@@@@@0@PBD@Z
_TEXT	SEGMENT
tv68 = -4						; size = 4
_str1$ = 8						; size = 4
_psz2$ = 12						; size = 4
??9ATL@@YA_NABV?$CStringT@DV?$StrTraitMFC_DLL@DV?$ChTraitsCRT@D@ATL@@@@@0@PBD@Z PROC ; ATL::operator!=, COMDAT

; 2466 : 	{

  00000	55		 push	 ebp
  00001	8b ec		 mov	 ebp, esp
  00003	51		 push	 ecx

; 2467 : 		return( str1.Compare( psz2 ) != 0 );

  00004	8b 45 0c	 mov	 eax, DWORD PTR _psz2$[ebp]
  00007	50		 push	 eax
  00008	8b 4d 08	 mov	 ecx, DWORD PTR _str1$[ebp]
  0000b	ff 15 00 00 00
	00		 call	 DWORD PTR __imp_?Compare@?$CStringT@DV?$StrTraitMFC_DLL@DV?$ChTraitsCRT@D@ATL@@@@@ATL@@QBEHPBD@Z
  00011	85 c0		 test	 eax, eax
  00013	74 09		 je	 SHORT $LN3@operator
  00015	c7 45 fc 01 00
	00 00		 mov	 DWORD PTR tv68[ebp], 1
  0001c	eb 07		 jmp	 SHORT $LN4@operator
$LN3@operator:
  0001e	c7 45 fc 00 00
	00 00		 mov	 DWORD PTR tv68[ebp], 0
$LN4@operator:
  00025	8a 45 fc	 mov	 al, BYTE PTR tv68[ebp]

; 2468 : 	}

  00028	8b e5		 mov	 esp, ebp
  0002a	5d		 pop	 ebp
  0002b	c3		 ret	 0
??9ATL@@YA_NABV?$CStringT@DV?$StrTraitMFC_DLL@DV?$ChTraitsCRT@D@ATL@@@@@0@PBD@Z ENDP ; ATL::operator!=
_TEXT	ENDS
; Function compile flags: /Odtp
; File d:\program files\microsoft visual studio 11.0\vc\include\queue
;	COMDAT ??0?$queue@PAEV?$deque@PAEV?$allocator@PAE@std@@@std@@@std@@QAE@XZ
_TEXT	SEGMENT
_this$ = -4						; size = 4
??0?$queue@PAEV?$deque@PAEV?$allocator@PAE@std@@@std@@@std@@QAE@XZ PROC ; std::queue<unsigned char *,std::deque<unsigned char *,std::allocator<unsigned char *> > >::queue<unsigned char *,std::deque<unsigned char *,std::allocator<unsigned char *> > >, COMDAT
; _this$ = ecx

; 30   : 		{	// construct with empty container

  00000	55		 push	 ebp
  00001	8b ec		 mov	 ebp, esp
  00003	51		 push	 ecx
  00004	89 4d fc	 mov	 DWORD PTR _this$[ebp], ecx
  00007	8b 4d fc	 mov	 ecx, DWORD PTR _this$[ebp]
  0000a	e8 00 00 00 00	 call	 ??0?$deque@PAEV?$allocator@PAE@std@@@std@@QAE@XZ ; std::deque<unsigned char *,std::allocator<unsigned char *> >::deque<unsigned char *,std::allocator<unsigned char *> >

; 31   : 		}

  0000f	8b 45 fc	 mov	 eax, DWORD PTR _this$[ebp]
  00012	8b e5		 mov	 esp, ebp
  00014	5d		 pop	 ebp
  00015	c3		 ret	 0
??0?$queue@PAEV?$deque@PAEV?$allocator@PAE@std@@@std@@@std@@QAE@XZ ENDP ; std::queue<unsigned char *,std::deque<unsigned char *,std::allocator<unsigned char *> > >::queue<unsigned char *,std::deque<unsigned char *,std::allocator<unsigned char *> > >
_TEXT	ENDS
; Function compile flags: /Odtp
; File d:\program files\microsoft visual studio 11.0\vc\include\deque
;	COMDAT ??1?$deque@PAEV?$allocator@PAE@std@@@std@@QAE@XZ
_TEXT	SEGMENT
_this$ = -4						; size = 4
??1?$deque@PAEV?$allocator@PAE@std@@@std@@QAE@XZ PROC	; std::deque<unsigned char *,std::allocator<unsigned char *> >::~deque<unsigned char *,std::allocator<unsigned char *> >, COMDAT
; _this$ = ecx

; 1221 : 		{	// destroy the deque

  00000	55		 push	 ebp
  00001	8b ec		 mov	 ebp, esp
  00003	51		 push	 ecx
  00004	89 4d fc	 mov	 DWORD PTR _this$[ebp], ecx

; 1222 : 		_Tidy();

  00007	8b 4d fc	 mov	 ecx, DWORD PTR _this$[ebp]
  0000a	e8 00 00 00 00	 call	 ?_Tidy@?$deque@PAEV?$allocator@PAE@std@@@std@@IAEXXZ ; std::deque<unsigned char *,std::allocator<unsigned char *> >::_Tidy

; 1223 : 		}

  0000f	8b 4d fc	 mov	 ecx, DWORD PTR _this$[ebp]
  00012	e8 00 00 00 00	 call	 ??1?$_Deque_alloc@$0A@U?$_Deque_base_types@PAEV?$allocator@PAE@std@@@std@@@std@@QAE@XZ ; std::_Deque_alloc<0,std::_Deque_base_types<unsigned char *,std::allocator<unsigned char *> > >::~_Deque_alloc<0,std::_Deque_base_types<unsigned char *,std::allocator<unsigned char *> > >
  00017	8b e5		 mov	 esp, ebp
  00019	5d		 pop	 ebp
  0001a	c3		 ret	 0
??1?$deque@PAEV?$allocator@PAE@std@@@std@@QAE@XZ ENDP	; std::deque<unsigned char *,std::allocator<unsigned char *> >::~deque<unsigned char *,std::allocator<unsigned char *> >
_TEXT	ENDS
; Function compile flags: /Odtp
; File d:\program files\microsoft visual studio 11.0\vc\include\map
;	COMDAT ??0?$map@INU?$less@I@std@@V?$allocator@U?$pair@$$CBIN@std@@@2@@std@@QAE@XZ
_TEXT	SEGMENT
_this$ = -8						; size = 4
$T1 = -2						; size = 1
$T2 = -1						; size = 1
??0?$map@INU?$less@I@std@@V?$allocator@U?$pair@$$CBIN@std@@@2@@std@@QAE@XZ PROC ; std::map<unsigned int,double,std::less<unsigned int>,std::allocator<std::pair<unsigned int const ,double> > >::map<unsigned int,double,std::less<unsigned int>,std::allocator<std::pair<unsigned int const ,double> > >, COMDAT
; _this$ = ecx

; 92   : 		{	// construct empty map from defaults

  00000	55		 push	 ebp
  00001	8b ec		 mov	 ebp, esp
  00003	83 ec 08	 sub	 esp, 8
  00006	89 4d f8	 mov	 DWORD PTR _this$[ebp], ecx
  00009	8d 4d ff	 lea	 ecx, DWORD PTR $T2[ebp]
  0000c	e8 00 00 00 00	 call	 ??0?$allocator@U?$pair@$$CBIN@std@@@std@@QAE@XZ ; std::allocator<std::pair<unsigned int const ,double> >::allocator<std::pair<unsigned int const ,double> >
  00011	50		 push	 eax
  00012	8d 45 fe	 lea	 eax, DWORD PTR $T1[ebp]
  00015	50		 push	 eax
  00016	8b 4d f8	 mov	 ecx, DWORD PTR _this$[ebp]
  00019	e8 00 00 00 00	 call	 ??0?$_Tree@V?$_Tmap_traits@INU?$less@I@std@@V?$allocator@U?$pair@$$CBIN@std@@@2@$0A@@std@@@std@@QAE@ABU?$less@I@1@ABV?$allocator@U?$pair@$$CBIN@std@@@1@@Z ; std::_Tree<std::_Tmap_traits<unsigned int,double,std::less<unsigned int>,std::allocator<std::pair<unsigned int const ,double> >,0> >::_Tree<std::_Tmap_traits<unsigned int,double,std::less<unsigned int>,std::allocator<std::pair<unsigned int const ,double> >,0> >

; 93   : 		}

  0001e	8b 45 f8	 mov	 eax, DWORD PTR _this$[ebp]
  00021	8b e5		 mov	 esp, ebp
  00023	5d		 pop	 ebp
  00024	c3		 ret	 0
??0?$map@INU?$less@I@std@@V?$allocator@U?$pair@$$CBIN@std@@@2@@std@@QAE@XZ ENDP ; std::map<unsigned int,double,std::less<unsigned int>,std::allocator<std::pair<unsigned int const ,double> > >::map<unsigned int,double,std::less<unsigned int>,std::allocator<std::pair<unsigned int const ,double> > >
_TEXT	ENDS
; Function compile flags: /Odtp
; File d:\program files\microsoft visual studio 11.0\vc\include\xtree
;	COMDAT ??1?$_Tree@V?$_Tmap_traits@INU?$less@I@std@@V?$allocator@U?$pair@$$CBIN@std@@@2@$0A@@std@@@std@@QAE@XZ
_TEXT	SEGMENT
_this$ = -4						; size = 4
??1?$_Tree@V?$_Tmap_traits@INU?$less@I@std@@V?$allocator@U?$pair@$$CBIN@std@@@2@$0A@@std@@@std@@QAE@XZ PROC ; std::_Tree<std::_Tmap_traits<unsigned int,double,std::less<unsigned int>,std::allocator<std::pair<unsigned int const ,double> >,0> >::~_Tree<std::_Tmap_traits<unsigned int,double,std::less<unsigned int>,std::allocator<std::pair<unsigned int const ,double> >,0> >, COMDAT
; _this$ = ecx

; 1188 : 		{	// destroy tree

  00000	55		 push	 ebp
  00001	8b ec		 mov	 ebp, esp
  00003	51		 push	 ecx
  00004	89 4d fc	 mov	 DWORD PTR _this$[ebp], ecx

; 1189 : 		_Tidy();

  00007	8b 4d fc	 mov	 ecx, DWORD PTR _this$[ebp]
  0000a	e8 00 00 00 00	 call	 ?_Tidy@?$_Tree@V?$_Tmap_traits@INU?$less@I@std@@V?$allocator@U?$pair@$$CBIN@std@@@2@$0A@@std@@@std@@IAEXXZ ; std::_Tree<std::_Tmap_traits<unsigned int,double,std::less<unsigned int>,std::allocator<std::pair<unsigned int const ,double> >,0> >::_Tidy

; 1190 : 		}

  0000f	8b 4d fc	 mov	 ecx, DWORD PTR _this$[ebp]
  00012	e8 00 00 00 00	 call	 ??1?$_Tree_comp@$0A@V?$_Tmap_traits@INU?$less@I@std@@V?$allocator@U?$pair@$$CBIN@std@@@2@$0A@@std@@@std@@QAE@XZ
  00017	8b e5		 mov	 esp, ebp
  00019	5d		 pop	 ebp
  0001a	c3		 ret	 0
??1?$_Tree@V?$_Tmap_traits@INU?$less@I@std@@V?$allocator@U?$pair@$$CBIN@std@@@2@$0A@@std@@@std@@QAE@XZ ENDP ; std::_Tree<std::_Tmap_traits<unsigned int,double,std::less<unsigned int>,std::allocator<std::pair<unsigned int const ,double> >,0> >::~_Tree<std::_Tmap_traits<unsigned int,double,std::less<unsigned int>,std::allocator<std::pair<unsigned int const ,double> >,0> >
_TEXT	ENDS
; Function compile flags: /Odtp
; File d:\program files\microsoft visual studio 11.0\vc\include\queue
;	COMDAT ??0?$queue@V?$basic_string@DU?$char_traits@D@std@@V?$allocator@D@2@@std@@V?$deque@V?$basic_string@DU?$char_traits@D@std@@V?$allocator@D@2@@std@@V?$allocator@V?$basic_string@DU?$char_traits@D@std@@V?$allocator@D@2@@std@@@2@@2@@std@@QAE@XZ
_TEXT	SEGMENT
_this$ = -4						; size = 4
??0?$queue@V?$basic_string@DU?$char_traits@D@std@@V?$allocator@D@2@@std@@V?$deque@V?$basic_string@DU?$char_traits@D@std@@V?$allocator@D@2@@std@@V?$allocator@V?$basic_string@DU?$char_traits@D@std@@V?$allocator@D@2@@std@@@2@@2@@std@@QAE@XZ PROC ; std::queue<std::basic_string<char,std::char_traits<char>,std::allocator<char> >,std::deque<std::basic_string<char,std::char_traits<char>,std::allocator<char> >,std::allocator<std::basic_string<char,std::char_traits<char>,std::allocator<char> > > > >::queue<std::basic_string<char,std::char_traits<char>,std::allocator<char> >,std::deque<std::basic_string<char,std::char_traits<char>,std::allocator<char> >,std::allocator<std::basic_string<char,std::char_traits<char>,std::allocator<char> > > > >, COMDAT
; _this$ = ecx

; 30   : 		{	// construct with empty container

  00000	55		 push	 ebp
  00001	8b ec		 mov	 ebp, esp
  00003	51		 push	 ecx
  00004	89 4d fc	 mov	 DWORD PTR _this$[ebp], ecx
  00007	8b 4d fc	 mov	 ecx, DWORD PTR _this$[ebp]
  0000a	e8 00 00 00 00	 call	 ??0?$deque@V?$basic_string@DU?$char_traits@D@std@@V?$allocator@D@2@@std@@V?$allocator@V?$basic_string@DU?$char_traits@D@std@@V?$allocator@D@2@@std@@@2@@std@@QAE@XZ ; std::deque<std::basic_string<char,std::char_traits<char>,std::allocator<char> >,std::allocator<std::basic_string<char,std::char_traits<char>,std::allocator<char> > > >::deque<std::basic_string<char,std::char_traits<char>,std::allocator<char> >,std::allocator<std::basic_string<char,std::char_traits<char>,std::allocator<char> > > >

; 31   : 		}

  0000f	8b 45 fc	 mov	 eax, DWORD PTR _this$[ebp]
  00012	8b e5		 mov	 esp, ebp
  00014	5d		 pop	 ebp
  00015	c3		 ret	 0
??0?$queue@V?$basic_string@DU?$char_traits@D@std@@V?$allocator@D@2@@std@@V?$deque@V?$basic_string@DU?$char_traits@D@std@@V?$allocator@D@2@@std@@V?$allocator@V?$basic_string@DU?$char_traits@D@std@@V?$allocator@D@2@@std@@@2@@2@@std@@QAE@XZ ENDP ; std::queue<std::basic_string<char,std::char_traits<char>,std::allocator<char> >,std::deque<std::basic_string<char,std::char_traits<char>,std::allocator<char> >,std::allocator<std::basic_string<char,std::char_traits<char>,std::allocator<char> > > > >::queue<std::basic_string<char,std::char_traits<char>,std::allocator<char> >,std::deque<std::basic_string<char,std::char_traits<char>,std::allocator<char> >,std::allocator<std::basic_string<char,std::char_traits<char>,std::allocator<char> > > > >
_TEXT	ENDS
; Function compile flags: /Odtp
; File d:\program files\microsoft visual studio 11.0\vc\include\queue
;	COMDAT ?push@?$queue@V?$basic_string@DU?$char_traits@D@std@@V?$allocator@D@2@@std@@V?$deque@V?$basic_string@DU?$char_traits@D@std@@V?$allocator@D@2@@std@@V?$allocator@V?$basic_string@DU?$char_traits@D@std@@V?$allocator@D@2@@std@@@2@@2@@std@@QAEXABV?$basic_string@DU?$char_traits@D@std@@V?$allocator@D@2@@2@@Z
_TEXT	SEGMENT
_this$ = -4						; size = 4
__Val$ = 8						; size = 4
?push@?$queue@V?$basic_string@DU?$char_traits@D@std@@V?$allocator@D@2@@std@@V?$deque@V?$basic_string@DU?$char_traits@D@std@@V?$allocator@D@2@@std@@V?$allocator@V?$basic_string@DU?$char_traits@D@std@@V?$allocator@D@2@@std@@@2@@2@@std@@QAEXABV?$basic_string@DU?$char_traits@D@std@@V?$allocator@D@2@@2@@Z PROC ; std::queue<std::basic_string<char,std::char_traits<char>,std::allocator<char> >,std::deque<std::basic_string<char,std::char_traits<char>,std::allocator<char> >,std::allocator<std::basic_string<char,std::char_traits<char>,std::allocator<char> > > > >::push, COMDAT
; _this$ = ecx

; 154  : 		{	// insert element at beginning

  00000	55		 push	 ebp
  00001	8b ec		 mov	 ebp, esp
  00003	51		 push	 ecx
  00004	89 4d fc	 mov	 DWORD PTR _this$[ebp], ecx

; 155  : 		c.push_back(_Val);

  00007	8b 45 08	 mov	 eax, DWORD PTR __Val$[ebp]
  0000a	50		 push	 eax
  0000b	8b 4d fc	 mov	 ecx, DWORD PTR _this$[ebp]
  0000e	e8 00 00 00 00	 call	 ?push_back@?$deque@V?$basic_string@DU?$char_traits@D@std@@V?$allocator@D@2@@std@@V?$allocator@V?$basic_string@DU?$char_traits@D@std@@V?$allocator@D@2@@std@@@2@@std@@QAEXABV?$basic_string@DU?$char_traits@D@std@@V?$allocator@D@2@@2@@Z ; std::deque<std::basic_string<char,std::char_traits<char>,std::allocator<char> >,std::allocator<std::basic_string<char,std::char_traits<char>,std::allocator<char> > > >::push_back

; 156  : 		}

  00013	8b e5		 mov	 esp, ebp
  00015	5d		 pop	 ebp
  00016	c2 04 00	 ret	 4
?push@?$queue@V?$basic_string@DU?$char_traits@D@std@@V?$allocator@D@2@@std@@V?$deque@V?$basic_string@DU?$char_traits@D@std@@V?$allocator@D@2@@std@@V?$allocator@V?$basic_string@DU?$char_traits@D@std@@V?$allocator@D@2@@std@@@2@@2@@std@@QAEXABV?$basic_string@DU?$char_traits@D@std@@V?$allocator@D@2@@2@@Z ENDP ; std::queue<std::basic_string<char,std::char_traits<char>,std::allocator<char> >,std::deque<std::basic_string<char,std::char_traits<char>,std::allocator<char> >,std::allocator<std::basic_string<char,std::char_traits<char>,std::allocator<char> > > > >::push
_TEXT	ENDS
; Function compile flags: /Odtp
; File d:\program files\microsoft visual studio 11.0\vc\include\deque
;	COMDAT ??1?$deque@V?$basic_string@DU?$char_traits@D@std@@V?$allocator@D@2@@std@@V?$allocator@V?$basic_string@DU?$char_traits@D@std@@V?$allocator@D@2@@std@@@2@@std@@QAE@XZ
_TEXT	SEGMENT
_this$ = -4						; size = 4
??1?$deque@V?$basic_string@DU?$char_traits@D@std@@V?$allocator@D@2@@std@@V?$allocator@V?$basic_string@DU?$char_traits@D@std@@V?$allocator@D@2@@std@@@2@@std@@QAE@XZ PROC ; std::deque<std::basic_string<char,std::char_traits<char>,std::allocator<char> >,std::allocator<std::basic_string<char,std::char_traits<char>,std::allocator<char> > > >::~deque<std::basic_string<char,std::char_traits<char>,std::allocator<char> >,std::allocator<std::basic_string<char,std::char_traits<char>,std::allocator<char> > > >, COMDAT
; _this$ = ecx

; 1221 : 		{	// destroy the deque

  00000	55		 push	 ebp
  00001	8b ec		 mov	 ebp, esp
  00003	51		 push	 ecx
  00004	89 4d fc	 mov	 DWORD PTR _this$[ebp], ecx

; 1222 : 		_Tidy();

  00007	8b 4d fc	 mov	 ecx, DWORD PTR _this$[ebp]
  0000a	e8 00 00 00 00	 call	 ?_Tidy@?$deque@V?$basic_string@DU?$char_traits@D@std@@V?$allocator@D@2@@std@@V?$allocator@V?$basic_string@DU?$char_traits@D@std@@V?$allocator@D@2@@std@@@2@@std@@IAEXXZ ; std::deque<std::basic_string<char,std::char_traits<char>,std::allocator<char> >,std::allocator<std::basic_string<char,std::char_traits<char>,std::allocator<char> > > >::_Tidy

; 1223 : 		}

  0000f	8b 4d fc	 mov	 ecx, DWORD PTR _this$[ebp]
  00012	e8 00 00 00 00	 call	 ??1?$_Deque_alloc@$0A@U?$_Deque_base_types@V?$basic_string@DU?$char_traits@D@std@@V?$allocator@D@2@@std@@V?$allocator@V?$basic_string@DU?$char_traits@D@std@@V?$allocator@D@2@@std@@@2@@std@@@std@@QAE@XZ ; std::_Deque_alloc<0,std::_Deque_base_types<std::basic_string<char,std::char_traits<char>,std::allocator<char> >,std::allocator<std::basic_string<char,std::char_traits<char>,std::allocator<char> > > > >::~_Deque_alloc<0,std::_Deque_base_types<std::basic_string<char,std::char_traits<char>,std::allocator<char> >,std::allocator<std::basic_string<char,std::char_traits<char>,std::allocator<char> > > > >
  00017	8b e5		 mov	 esp, ebp
  00019	5d		 pop	 ebp
  0001a	c3		 ret	 0
??1?$deque@V?$basic_string@DU?$char_traits@D@std@@V?$allocator@D@2@@std@@V?$allocator@V?$basic_string@DU?$char_traits@D@std@@V?$allocator@D@2@@std@@@2@@std@@QAE@XZ ENDP ; std::deque<std::basic_string<char,std::char_traits<char>,std::allocator<char> >,std::allocator<std::basic_string<char,std::char_traits<char>,std::allocator<char> > > >::~deque<std::basic_string<char,std::char_traits<char>,std::allocator<char> >,std::allocator<std::basic_string<char,std::char_traits<char>,std::allocator<char> > > >
_TEXT	ENDS
; Function compile flags: /Odtp
; File d:\program files\microsoft visual studio 11.0\vc\atlmfc\include\atlconv.h
;	COMDAT ??0?$CA2AEX@$0IA@@ATL@@QAE@PBD@Z
_TEXT	SEGMENT
_this$ = -4						; size = 4
_psz$ = 8						; size = 4
??0?$CA2AEX@$0IA@@ATL@@QAE@PBD@Z PROC			; ATL::CA2AEX<128>::CA2AEX<128>, COMDAT
; _this$ = ecx

; 234  : 	{

  00000	55		 push	 ebp
  00001	8b ec		 mov	 ebp, esp
  00003	51		 push	 ecx
  00004	89 4d fc	 mov	 DWORD PTR _this$[ebp], ecx
  00007	8b 45 fc	 mov	 eax, DWORD PTR _this$[ebp]
  0000a	83 c0 04	 add	 eax, 4
  0000d	8b 4d fc	 mov	 ecx, DWORD PTR _this$[ebp]
  00010	89 01		 mov	 DWORD PTR [ecx], eax

; 235  : 		Init( psz );

  00012	8b 55 08	 mov	 edx, DWORD PTR _psz$[ebp]
  00015	52		 push	 edx
  00016	8b 4d fc	 mov	 ecx, DWORD PTR _this$[ebp]
  00019	e8 00 00 00 00	 call	 ?Init@?$CA2AEX@$0IA@@ATL@@AAEXPBD@Z ; ATL::CA2AEX<128>::Init

; 236  : 	}

  0001e	8b 45 fc	 mov	 eax, DWORD PTR _this$[ebp]
  00021	8b e5		 mov	 esp, ebp
  00023	5d		 pop	 ebp
  00024	c2 04 00	 ret	 4
??0?$CA2AEX@$0IA@@ATL@@QAE@PBD@Z ENDP			; ATL::CA2AEX<128>::CA2AEX<128>
_TEXT	ENDS
; Function compile flags: /Odtp
; File d:\program files\microsoft visual studio 11.0\vc\atlmfc\include\atlconv.h
;	COMDAT ??1?$CA2AEX@$0IA@@ATL@@QAE@XZ
_TEXT	SEGMENT
_this$ = -4						; size = 4
??1?$CA2AEX@$0IA@@ATL@@QAE@XZ PROC			; ATL::CA2AEX<128>::~CA2AEX<128>, COMDAT
; _this$ = ecx

; 247  : 	{

  00000	55		 push	 ebp
  00001	8b ec		 mov	 ebp, esp
  00003	51		 push	 ecx
  00004	89 4d fc	 mov	 DWORD PTR _this$[ebp], ecx

; 248  : 		AtlConvFreeMemory(m_psz,m_szBuffer,t_nBufferLength);

  00007	68 80 00 00 00	 push	 128			; 00000080H
  0000c	8b 45 fc	 mov	 eax, DWORD PTR _this$[ebp]
  0000f	83 c0 04	 add	 eax, 4
  00012	50		 push	 eax
  00013	8b 4d fc	 mov	 ecx, DWORD PTR _this$[ebp]
  00016	8b 11		 mov	 edx, DWORD PTR [ecx]
  00018	52		 push	 edx
  00019	e8 00 00 00 00	 call	 ??$AtlConvFreeMemory@D@ATL@@YAXPAD0H@Z ; ATL::AtlConvFreeMemory<char>
  0001e	83 c4 0c	 add	 esp, 12			; 0000000cH

; 249  : 	}

  00021	8b e5		 mov	 esp, ebp
  00023	5d		 pop	 ebp
  00024	c3		 ret	 0
??1?$CA2AEX@$0IA@@ATL@@QAE@XZ ENDP			; ATL::CA2AEX<128>::~CA2AEX<128>
_TEXT	ENDS
; Function compile flags: /Odtp
; File d:\program files\microsoft visual studio 11.0\vc\atlmfc\include\atlconv.h
;	COMDAT ??B?$CA2AEX@$0IA@@ATL@@QBEPADXZ
_TEXT	SEGMENT
_this$ = -4						; size = 4
??B?$CA2AEX@$0IA@@ATL@@QBEPADXZ PROC			; ATL::CA2AEX<128>::operator char *, COMDAT
; _this$ = ecx

; 252  : 	{

  00000	55		 push	 ebp
  00001	8b ec		 mov	 ebp, esp
  00003	51		 push	 ecx
  00004	89 4d fc	 mov	 DWORD PTR _this$[ebp], ecx

; 253  : 		return( m_psz );

  00007	8b 45 fc	 mov	 eax, DWORD PTR _this$[ebp]
  0000a	8b 00		 mov	 eax, DWORD PTR [eax]

; 254  : 	}

  0000c	8b e5		 mov	 esp, ebp
  0000e	5d		 pop	 ebp
  0000f	c3		 ret	 0
??B?$CA2AEX@$0IA@@ATL@@QBEPADXZ ENDP			; ATL::CA2AEX<128>::operator char *
_TEXT	ENDS
; Function compile flags: /Odtp
;	COMDAT ??1?$_Tree_comp@$0A@V?$_Tmap_traits@INU?$less@I@std@@V?$allocator@U?$pair@$$CBIN@std@@@2@$0A@@std@@@std@@QAE@XZ
_TEXT	SEGMENT
_this$ = -4						; size = 4
??1?$_Tree_comp@$0A@V?$_Tmap_traits@INU?$less@I@std@@V?$allocator@U?$pair@$$CBIN@std@@@2@$0A@@std@@@std@@QAE@XZ PROC ; std::_Tree_comp<0,std::_Tmap_traits<unsigned int,double,std::less<unsigned int>,std::allocator<std::pair<unsigned int const ,double> >,0> >::~_Tree_comp<0,std::_Tmap_traits<unsigned int,double,std::less<unsigned int>,std::allocator<std::pair<unsigned int const ,double> >,0> >, COMDAT
; _this$ = ecx
  00000	55		 push	 ebp
  00001	8b ec		 mov	 ebp, esp
  00003	51		 push	 ecx
  00004	89 4d fc	 mov	 DWORD PTR _this$[ebp], ecx
  00007	8b 4d fc	 mov	 ecx, DWORD PTR _this$[ebp]
  0000a	e8 00 00 00 00	 call	 ??1?$_Tree_buy@U?$pair@$$CBIN@std@@V?$allocator@U?$pair@$$CBIN@std@@@2@@std@@QAE@XZ
  0000f	8b e5		 mov	 esp, ebp
  00011	5d		 pop	 ebp
  00012	c3		 ret	 0
??1?$_Tree_comp@$0A@V?$_Tmap_traits@INU?$less@I@std@@V?$allocator@U?$pair@$$CBIN@std@@@2@$0A@@std@@@std@@QAE@XZ ENDP ; std::_Tree_comp<0,std::_Tmap_traits<unsigned int,double,std::less<unsigned int>,std::allocator<std::pair<unsigned int const ,double> >,0> >::~_Tree_comp<0,std::_Tmap_traits<unsigned int,double,std::less<unsigned int>,std::allocator<std::pair<unsigned int const ,double> >,0> >
_TEXT	ENDS
; Function compile flags: /Odtp
;	COMDAT ??1?$_Tree_buy@U?$pair@$$CBIN@std@@V?$allocator@U?$pair@$$CBIN@std@@@2@@std@@QAE@XZ
_TEXT	SEGMENT
_this$ = -4						; size = 4
??1?$_Tree_buy@U?$pair@$$CBIN@std@@V?$allocator@U?$pair@$$CBIN@std@@@2@@std@@QAE@XZ PROC ; std::_Tree_buy<std::pair<unsigned int const ,double>,std::allocator<std::pair<unsigned int const ,double> > >::~_Tree_buy<std::pair<unsigned int const ,double>,std::allocator<std::pair<unsigned int const ,double> > >, COMDAT
; _this$ = ecx
  00000	55		 push	 ebp
  00001	8b ec		 mov	 ebp, esp
  00003	51		 push	 ecx
  00004	89 4d fc	 mov	 DWORD PTR _this$[ebp], ecx
  00007	8b 4d fc	 mov	 ecx, DWORD PTR _this$[ebp]
  0000a	e8 00 00 00 00	 call	 ??1?$_Tree_alloc@$0A@U?$_Tree_base_types@U?$pair@$$CBIN@std@@V?$allocator@U?$pair@$$CBIN@std@@@2@@std@@@std@@QAE@XZ ; std::_Tree_alloc<0,std::_Tree_base_types<std::pair<unsigned int const ,double>,std::allocator<std::pair<unsigned int const ,double> > > >::~_Tree_alloc<0,std::_Tree_base_types<std::pair<unsigned int const ,double>,std::allocator<std::pair<unsigned int const ,double> > > >
  0000f	8b e5		 mov	 esp, ebp
  00011	5d		 pop	 ebp
  00012	c3		 ret	 0
??1?$_Tree_buy@U?$pair@$$CBIN@std@@V?$allocator@U?$pair@$$CBIN@std@@@2@@std@@QAE@XZ ENDP ; std::_Tree_buy<std::pair<unsigned int const ,double>,std::allocator<std::pair<unsigned int const ,double> > >::~_Tree_buy<std::pair<unsigned int const ,double>,std::allocator<std::pair<unsigned int const ,double> > >
_TEXT	ENDS
; Function compile flags: /Odtp
; File d:\program files\microsoft visual studio 11.0\vc\include\deque
;	COMDAT ??0?$deque@PAEV?$allocator@PAE@std@@@std@@QAE@XZ
_TEXT	SEGMENT
_this$ = -8						; size = 4
$T1 = -1						; size = 1
??0?$deque@PAEV?$allocator@PAE@std@@@std@@QAE@XZ PROC	; std::deque<unsigned char *,std::allocator<unsigned char *> >::deque<unsigned char *,std::allocator<unsigned char *> >, COMDAT
; _this$ = ecx

; 956  : 		{	// construct empty deque

  00000	55		 push	 ebp
  00001	8b ec		 mov	 ebp, esp
  00003	83 ec 08	 sub	 esp, 8
  00006	89 4d f8	 mov	 DWORD PTR _this$[ebp], ecx
  00009	8d 4d ff	 lea	 ecx, DWORD PTR $T1[ebp]
  0000c	e8 00 00 00 00	 call	 ??0?$allocator@PAE@std@@QAE@XZ ; std::allocator<unsigned char *>::allocator<unsigned char *>
  00011	50		 push	 eax
  00012	8b 4d f8	 mov	 ecx, DWORD PTR _this$[ebp]
  00015	e8 00 00 00 00	 call	 ??0?$_Deque_alloc@$0A@U?$_Deque_base_types@PAEV?$allocator@PAE@std@@@std@@@std@@QAE@ABV?$allocator@PAE@1@@Z ; std::_Deque_alloc<0,std::_Deque_base_types<unsigned char *,std::allocator<unsigned char *> > >::_Deque_alloc<0,std::_Deque_base_types<unsigned char *,std::allocator<unsigned char *> > >

; 957  : 		}

  0001a	8b 45 f8	 mov	 eax, DWORD PTR _this$[ebp]
  0001d	8b e5		 mov	 esp, ebp
  0001f	5d		 pop	 ebp
  00020	c3		 ret	 0
??0?$deque@PAEV?$allocator@PAE@std@@@std@@QAE@XZ ENDP	; std::deque<unsigned char *,std::allocator<unsigned char *> >::deque<unsigned char *,std::allocator<unsigned char *> >
_TEXT	ENDS
; Function compile flags: /Odtp
; File d:\program files\microsoft visual studio 11.0\vc\include\deque
;	COMDAT ?_Tidy@?$deque@PAEV?$allocator@PAE@std@@@std@@IAEXXZ
_TEXT	SEGMENT
$T1 = -19						; size = 1
$T2 = -18						; size = 1
$T3 = -17						; size = 1
__Block$4 = -16						; size = 4
_this$ = -12						; size = 4
__Almap$ = -5						; size = 1
__$ArrayPad$ = -4					; size = 4
?_Tidy@?$deque@PAEV?$allocator@PAE@std@@@std@@IAEXXZ PROC ; std::deque<unsigned char *,std::allocator<unsigned char *> >::_Tidy, COMDAT
; _this$ = ecx

; 1857 : 		{	// free all storage

  00000	55		 push	 ebp
  00001	8b ec		 mov	 ebp, esp
  00003	83 ec 14	 sub	 esp, 20			; 00000014H
  00006	a1 00 00 00 00	 mov	 eax, DWORD PTR ___security_cookie
  0000b	33 c5		 xor	 eax, ebp
  0000d	89 45 fc	 mov	 DWORD PTR __$ArrayPad$[ebp], eax
  00010	89 4d f4	 mov	 DWORD PTR _this$[ebp], ecx

; 1858 : 		_Alpty _Almap(this->_Getal());

  00013	8d 45 ee	 lea	 eax, DWORD PTR $T2[ebp]
  00016	50		 push	 eax
  00017	8b 4d f4	 mov	 ecx, DWORD PTR _this$[ebp]
  0001a	e8 00 00 00 00	 call	 ?_Getal@?$_Deque_alloc@$0A@U?$_Deque_base_types@PAEV?$allocator@PAE@std@@@std@@@std@@QBE?AU?$_Wrap_alloc@V?$allocator@PAE@std@@@2@XZ ; std::_Deque_alloc<0,std::_Deque_base_types<unsigned char *,std::allocator<unsigned char *> > >::_Getal
  0001f	50		 push	 eax
  00020	8d 4d fb	 lea	 ecx, DWORD PTR __Almap$[ebp]
  00023	e8 00 00 00 00	 call	 ??$?0U?$_Wrap_alloc@V?$allocator@PAE@std@@@std@@@?$_Wrap_alloc@V?$allocator@PAPAE@std@@@std@@QAE@ABU?$_Wrap_alloc@V?$allocator@PAE@std@@@1@@Z ; std::_Wrap_alloc<std::allocator<unsigned char * *> >::_Wrap_alloc<std::allocator<unsigned char * *> ><std::_Wrap_alloc<std::allocator<unsigned char *> > >
$LN6@Tidy:

; 1859 : 		while (!empty())

  00028	8b 4d f4	 mov	 ecx, DWORD PTR _this$[ebp]
  0002b	e8 00 00 00 00	 call	 ?empty@?$deque@PAEV?$allocator@PAE@std@@@std@@QBE_NXZ ; std::deque<unsigned char *,std::allocator<unsigned char *> >::empty
  00030	0f b6 c8	 movzx	 ecx, al
  00033	85 c9		 test	 ecx, ecx
  00035	75 0a		 jne	 SHORT $LN5@Tidy

; 1860 : 			pop_back();

  00037	8b 4d f4	 mov	 ecx, DWORD PTR _this$[ebp]
  0003a	e8 00 00 00 00	 call	 ?pop_back@?$deque@PAEV?$allocator@PAE@std@@@std@@QAEXXZ ; std::deque<unsigned char *,std::allocator<unsigned char *> >::pop_back
  0003f	eb e7		 jmp	 SHORT $LN6@Tidy
$LN5@Tidy:

; 1861 : 		for (size_type _Block = this->_Mapsize; 0 < _Block; )

  00041	8b 55 f4	 mov	 edx, DWORD PTR _this$[ebp]
  00044	8b 42 08	 mov	 eax, DWORD PTR [edx+8]
  00047	89 45 f0	 mov	 DWORD PTR __Block$4[ebp], eax
$LN4@Tidy:
  0004a	83 7d f0 00	 cmp	 DWORD PTR __Block$4[ebp], 0
  0004e	76 5c		 jbe	 SHORT $LN3@Tidy

; 1862 : 			{	// free storage for a block and destroy pointer
; 1863 : 			if (this->_Map[--_Block] != pointer())

  00050	8b 4d f0	 mov	 ecx, DWORD PTR __Block$4[ebp]
  00053	83 e9 01	 sub	 ecx, 1
  00056	89 4d f0	 mov	 DWORD PTR __Block$4[ebp], ecx
  00059	8b 55 f4	 mov	 edx, DWORD PTR _this$[ebp]
  0005c	8b 42 04	 mov	 eax, DWORD PTR [edx+4]
  0005f	8b 4d f0	 mov	 ecx, DWORD PTR __Block$4[ebp]
  00062	83 3c 88 00	 cmp	 DWORD PTR [eax+ecx*4], 0
  00066	74 42		 je	 SHORT $LN2@Tidy

; 1864 : 				{	// free block and destroy its pointer
; 1865 : 				this->_Getal().deallocate(this->_Map[_Block], _DEQUESIZ);

  00068	6a 04		 push	 4
  0006a	8b 55 f4	 mov	 edx, DWORD PTR _this$[ebp]
  0006d	8b 42 04	 mov	 eax, DWORD PTR [edx+4]
  00070	8b 4d f0	 mov	 ecx, DWORD PTR __Block$4[ebp]
  00073	8b 14 88	 mov	 edx, DWORD PTR [eax+ecx*4]
  00076	52		 push	 edx
  00077	8d 45 ef	 lea	 eax, DWORD PTR $T3[ebp]
  0007a	50		 push	 eax
  0007b	8b 4d f4	 mov	 ecx, DWORD PTR _this$[ebp]
  0007e	e8 00 00 00 00	 call	 ?_Getal@?$_Deque_alloc@$0A@U?$_Deque_base_types@PAEV?$allocator@PAE@std@@@std@@@std@@QBE?AU?$_Wrap_alloc@V?$allocator@PAE@std@@@2@XZ ; std::_Deque_alloc<0,std::_Deque_base_types<unsigned char *,std::allocator<unsigned char *> > >::_Getal
  00083	8b c8		 mov	 ecx, eax
  00085	e8 00 00 00 00	 call	 ?deallocate@?$_Wrap_alloc@V?$allocator@PAE@std@@@std@@QAEXPAPAEI@Z ; std::_Wrap_alloc<std::allocator<unsigned char *> >::deallocate

; 1866 : 				this->_Getal().destroy(&this->_Map[_Block]);

  0008a	8b 4d f4	 mov	 ecx, DWORD PTR _this$[ebp]
  0008d	8b 51 04	 mov	 edx, DWORD PTR [ecx+4]
  00090	8b 45 f0	 mov	 eax, DWORD PTR __Block$4[ebp]
  00093	8d 0c 82	 lea	 ecx, DWORD PTR [edx+eax*4]
  00096	51		 push	 ecx
  00097	8d 55 ed	 lea	 edx, DWORD PTR $T1[ebp]
  0009a	52		 push	 edx
  0009b	8b 4d f4	 mov	 ecx, DWORD PTR _this$[ebp]
  0009e	e8 00 00 00 00	 call	 ?_Getal@?$_Deque_alloc@$0A@U?$_Deque_base_types@PAEV?$allocator@PAE@std@@@std@@@std@@QBE?AU?$_Wrap_alloc@V?$allocator@PAE@std@@@2@XZ ; std::_Deque_alloc<0,std::_Deque_base_types<unsigned char *,std::allocator<unsigned char *> > >::_Getal
  000a3	8b c8		 mov	 ecx, eax
  000a5	e8 00 00 00 00	 call	 ??$destroy@PAPAE@?$_Wrap_alloc@V?$allocator@PAE@std@@@std@@QAEXPAPAPAE@Z ; std::_Wrap_alloc<std::allocator<unsigned char *> >::destroy<unsigned char * *>
$LN2@Tidy:

; 1867 : 				}
; 1868 : 			}

  000aa	eb 9e		 jmp	 SHORT $LN4@Tidy
$LN3@Tidy:

; 1869 : 
; 1870 : 		if (this->_Map != _Mapptr())

  000ac	8b 45 f4	 mov	 eax, DWORD PTR _this$[ebp]
  000af	83 78 04 00	 cmp	 DWORD PTR [eax+4], 0
  000b3	74 16		 je	 SHORT $LN1@Tidy

; 1871 : 			_Almap.deallocate(this->_Map,
; 1872 : 				this->_Mapsize);	// free storage for map

  000b5	8b 4d f4	 mov	 ecx, DWORD PTR _this$[ebp]
  000b8	8b 51 08	 mov	 edx, DWORD PTR [ecx+8]
  000bb	52		 push	 edx
  000bc	8b 45 f4	 mov	 eax, DWORD PTR _this$[ebp]
  000bf	8b 48 04	 mov	 ecx, DWORD PTR [eax+4]
  000c2	51		 push	 ecx
  000c3	8d 4d fb	 lea	 ecx, DWORD PTR __Almap$[ebp]
  000c6	e8 00 00 00 00	 call	 ?deallocate@?$_Wrap_alloc@V?$allocator@PAPAE@std@@@std@@QAEXPAPAPAEI@Z ; std::_Wrap_alloc<std::allocator<unsigned char * *> >::deallocate
$LN1@Tidy:

; 1873 : 		this->_Mapsize = 0;

  000cb	8b 55 f4	 mov	 edx, DWORD PTR _this$[ebp]
  000ce	c7 42 08 00 00
	00 00		 mov	 DWORD PTR [edx+8], 0

; 1874 : 		this->_Map = _Mapptr();

  000d5	8b 45 f4	 mov	 eax, DWORD PTR _this$[ebp]
  000d8	c7 40 04 00 00
	00 00		 mov	 DWORD PTR [eax+4], 0

; 1875 : 		}

  000df	8b 4d fc	 mov	 ecx, DWORD PTR __$ArrayPad$[ebp]
  000e2	33 cd		 xor	 ecx, ebp
  000e4	e8 00 00 00 00	 call	 @__security_check_cookie@4
  000e9	8b e5		 mov	 esp, ebp
  000eb	5d		 pop	 ebp
  000ec	c3		 ret	 0
?_Tidy@?$deque@PAEV?$allocator@PAE@std@@@std@@IAEXXZ ENDP ; std::deque<unsigned char *,std::allocator<unsigned char *> >::_Tidy
_TEXT	ENDS
; Function compile flags: /Odtp
; File d:\program files\microsoft visual studio 11.0\vc\include\deque
;	COMDAT ??1?$_Deque_alloc@$0A@U?$_Deque_base_types@PAEV?$allocator@PAE@std@@@std@@@std@@QAE@XZ
_TEXT	SEGMENT
_this$ = -4						; size = 4
??1?$_Deque_alloc@$0A@U?$_Deque_base_types@PAEV?$allocator@PAE@std@@@std@@@std@@QAE@XZ PROC ; std::_Deque_alloc<0,std::_Deque_base_types<unsigned char *,std::allocator<unsigned char *> > >::~_Deque_alloc<0,std::_Deque_base_types<unsigned char *,std::allocator<unsigned char *> > >, COMDAT
; _this$ = ecx

; 883  : 		{	// destroy proxy

  00000	55		 push	 ebp
  00001	8b ec		 mov	 ebp, esp
  00003	51		 push	 ecx
  00004	89 4d fc	 mov	 DWORD PTR _this$[ebp], ecx

; 884  : 		_Free_proxy();

  00007	8b 4d fc	 mov	 ecx, DWORD PTR _this$[ebp]
  0000a	e8 00 00 00 00	 call	 ?_Free_proxy@?$_Deque_alloc@$0A@U?$_Deque_base_types@PAEV?$allocator@PAE@std@@@std@@@std@@QAEXXZ ; std::_Deque_alloc<0,std::_Deque_base_types<unsigned char *,std::allocator<unsigned char *> > >::_Free_proxy

; 885  : 		}

  0000f	8b 4d fc	 mov	 ecx, DWORD PTR _this$[ebp]
  00012	e8 00 00 00 00	 call	 ??1?$_Deque_val@U?$_Deque_simple_types@PAE@std@@@std@@QAE@XZ
  00017	8b e5		 mov	 esp, ebp
  00019	5d		 pop	 ebp
  0001a	c3		 ret	 0
??1?$_Deque_alloc@$0A@U?$_Deque_base_types@PAEV?$allocator@PAE@std@@@std@@@std@@QAE@XZ ENDP ; std::_Deque_alloc<0,std::_Deque_base_types<unsigned char *,std::allocator<unsigned char *> > >::~_Deque_alloc<0,std::_Deque_base_types<unsigned char *,std::allocator<unsigned char *> > >
_TEXT	ENDS
; Function compile flags: /Odtp
; File d:\program files\microsoft visual studio 11.0\vc\include\xtree
;	COMDAT ??0?$_Tree@V?$_Tmap_traits@INU?$less@I@std@@V?$allocator@U?$pair@$$CBIN@std@@@2@$0A@@std@@@std@@QAE@ABU?$less@I@1@ABV?$allocator@U?$pair@$$CBIN@std@@@1@@Z
_TEXT	SEGMENT
_this$ = -4						; size = 4
__Parg$ = 8						; size = 4
__Al$ = 12						; size = 4
??0?$_Tree@V?$_Tmap_traits@INU?$less@I@std@@V?$allocator@U?$pair@$$CBIN@std@@@2@$0A@@std@@@std@@QAE@ABU?$less@I@1@ABV?$allocator@U?$pair@$$CBIN@std@@@1@@Z PROC ; std::_Tree<std::_Tmap_traits<unsigned int,double,std::less<unsigned int>,std::allocator<std::pair<unsigned int const ,double> >,0> >::_Tree<std::_Tmap_traits<unsigned int,double,std::less<unsigned int>,std::allocator<std::pair<unsigned int const ,double> >,0> >, COMDAT
; _this$ = ecx

; 1071 : 		{	// construct empty tree

  00000	55		 push	 ebp
  00001	8b ec		 mov	 ebp, esp
  00003	51		 push	 ecx
  00004	89 4d fc	 mov	 DWORD PTR _this$[ebp], ecx
  00007	8b 45 0c	 mov	 eax, DWORD PTR __Al$[ebp]
  0000a	50		 push	 eax
  0000b	8b 4d 08	 mov	 ecx, DWORD PTR __Parg$[ebp]
  0000e	51		 push	 ecx
  0000f	8b 4d fc	 mov	 ecx, DWORD PTR _this$[ebp]
  00012	e8 00 00 00 00	 call	 ??0?$_Tree_comp@$0A@V?$_Tmap_traits@INU?$less@I@std@@V?$allocator@U?$pair@$$CBIN@std@@@2@$0A@@std@@@std@@QAE@ABU?$less@I@1@ABV?$allocator@U?$pair@$$CBIN@std@@@1@@Z ; std::_Tree_comp<0,std::_Tmap_traits<unsigned int,double,std::less<unsigned int>,std::allocator<std::pair<unsigned int const ,double> >,0> >::_Tree_comp<0,std::_Tmap_traits<unsigned int,double,std::less<unsigned int>,std::allocator<std::pair<unsigned int const ,double> >,0> >

; 1072 : 		}

  00017	8b 45 fc	 mov	 eax, DWORD PTR _this$[ebp]
  0001a	8b e5		 mov	 esp, ebp
  0001c	5d		 pop	 ebp
  0001d	c2 08 00	 ret	 8
??0?$_Tree@V?$_Tmap_traits@INU?$less@I@std@@V?$allocator@U?$pair@$$CBIN@std@@@2@$0A@@std@@@std@@QAE@ABU?$less@I@1@ABV?$allocator@U?$pair@$$CBIN@std@@@1@@Z ENDP ; std::_Tree<std::_Tmap_traits<unsigned int,double,std::less<unsigned int>,std::allocator<std::pair<unsigned int const ,double> >,0> >::_Tree<std::_Tmap_traits<unsigned int,double,std::less<unsigned int>,std::allocator<std::pair<unsigned int const ,double> >,0> >
_TEXT	ENDS
; Function compile flags: /Odtp
; File d:\program files\microsoft visual studio 11.0\vc\include\xtree
;	COMDAT ?_Tidy@?$_Tree@V?$_Tmap_traits@INU?$less@I@std@@V?$allocator@U?$pair@$$CBIN@std@@@2@$0A@@std@@@std@@IAEXXZ
_TEXT	SEGMENT
$T1 = -24						; size = 4
$T2 = -20						; size = 4
$T3 = -16						; size = 4
$T4 = -12						; size = 4
$T5 = -8						; size = 4
_this$ = -4						; size = 4
?_Tidy@?$_Tree@V?$_Tmap_traits@INU?$less@I@std@@V?$allocator@U?$pair@$$CBIN@std@@@2@$0A@@std@@@std@@IAEXXZ PROC ; std::_Tree<std::_Tmap_traits<unsigned int,double,std::less<unsigned int>,std::allocator<std::pair<unsigned int const ,double> >,0> >::_Tidy, COMDAT
; _this$ = ecx

; 2215 : 		{	// free all storage

  00000	55		 push	 ebp
  00001	8b ec		 mov	 ebp, esp
  00003	83 ec 18	 sub	 esp, 24			; 00000018H
  00006	89 4d fc	 mov	 DWORD PTR _this$[ebp], ecx

; 2216 : 		erase(begin(), end());

  00009	8d 45 f0	 lea	 eax, DWORD PTR $T3[ebp]
  0000c	50		 push	 eax
  0000d	8b 4d fc	 mov	 ecx, DWORD PTR _this$[ebp]
  00010	e8 00 00 00 00	 call	 ?end@?$_Tree@V?$_Tmap_traits@INU?$less@I@std@@V?$allocator@U?$pair@$$CBIN@std@@@2@$0A@@std@@@std@@QAE?AV?$_Tree_iterator@V?$_Tree_val@U?$_Tree_simple_types@U?$pair@$$CBIN@std@@@std@@@std@@@2@XZ ; std::_Tree<std::_Tmap_traits<unsigned int,double,std::less<unsigned int>,std::allocator<std::pair<unsigned int const ,double> >,0> >::end
  00015	8b 08		 mov	 ecx, DWORD PTR [eax]
  00017	89 4d f8	 mov	 DWORD PTR $T5[ebp], ecx
  0001a	8d 55 ec	 lea	 edx, DWORD PTR $T2[ebp]
  0001d	52		 push	 edx
  0001e	8b 4d fc	 mov	 ecx, DWORD PTR _this$[ebp]
  00021	e8 00 00 00 00	 call	 ?begin@?$_Tree@V?$_Tmap_traits@INU?$less@I@std@@V?$allocator@U?$pair@$$CBIN@std@@@2@$0A@@std@@@std@@QAE?AV?$_Tree_iterator@V?$_Tree_val@U?$_Tree_simple_types@U?$pair@$$CBIN@std@@@std@@@std@@@2@XZ ; std::_Tree<std::_Tmap_traits<unsigned int,double,std::less<unsigned int>,std::allocator<std::pair<unsigned int const ,double> >,0> >::begin
  00026	8b 00		 mov	 eax, DWORD PTR [eax]
  00028	89 45 f4	 mov	 DWORD PTR $T4[ebp], eax
  0002b	8b 4d f8	 mov	 ecx, DWORD PTR $T5[ebp]
  0002e	51		 push	 ecx
  0002f	8b 55 f4	 mov	 edx, DWORD PTR $T4[ebp]
  00032	52		 push	 edx
  00033	8d 45 e8	 lea	 eax, DWORD PTR $T1[ebp]
  00036	50		 push	 eax
  00037	8b 4d fc	 mov	 ecx, DWORD PTR _this$[ebp]
  0003a	e8 00 00 00 00	 call	 ?erase@?$_Tree@V?$_Tmap_traits@INU?$less@I@std@@V?$allocator@U?$pair@$$CBIN@std@@@2@$0A@@std@@@std@@QAE?AV?$_Tree_iterator@V?$_Tree_val@U?$_Tree_simple_types@U?$pair@$$CBIN@std@@@std@@@std@@@2@V?$_Tree_const_iterator@V?$_Tree_val@U?$_Tree_simple_types@U?$pair@$$CBIN@std@@@std@@@std@@@2@0@Z ; std::_Tree<std::_Tmap_traits<unsigned int,double,std::less<unsigned int>,std::allocator<std::pair<unsigned int const ,double> >,0> >::erase

; 2217 : 		}

  0003f	8b e5		 mov	 esp, ebp
  00041	5d		 pop	 ebp
  00042	c3		 ret	 0
?_Tidy@?$_Tree@V?$_Tmap_traits@INU?$less@I@std@@V?$allocator@U?$pair@$$CBIN@std@@@2@$0A@@std@@@std@@IAEXXZ ENDP ; std::_Tree<std::_Tmap_traits<unsigned int,double,std::less<unsigned int>,std::allocator<std::pair<unsigned int const ,double> >,0> >::_Tidy
_TEXT	ENDS
; Function compile flags: /Odtp
; File d:\program files\microsoft visual studio 11.0\vc\include\xmemory0
;	COMDAT ??0?$allocator@U?$pair@$$CBIN@std@@@std@@QAE@XZ
_TEXT	SEGMENT
_this$ = -4						; size = 4
??0?$allocator@U?$pair@$$CBIN@std@@@std@@QAE@XZ PROC	; std::allocator<std::pair<unsigned int const ,double> >::allocator<std::pair<unsigned int const ,double> >, COMDAT
; _this$ = ecx

; 565  : 	allocator() _THROW0()

  00000	55		 push	 ebp
  00001	8b ec		 mov	 ebp, esp
  00003	51		 push	 ecx
  00004	89 4d fc	 mov	 DWORD PTR _this$[ebp], ecx

; 566  : 		{	// construct default allocator (do nothing)
; 567  : 		}

  00007	8b 45 fc	 mov	 eax, DWORD PTR _this$[ebp]
  0000a	8b e5		 mov	 esp, ebp
  0000c	5d		 pop	 ebp
  0000d	c3		 ret	 0
??0?$allocator@U?$pair@$$CBIN@std@@@std@@QAE@XZ ENDP	; std::allocator<std::pair<unsigned int const ,double> >::allocator<std::pair<unsigned int const ,double> >
_TEXT	ENDS
; Function compile flags: /Odtp
; File d:\program files\microsoft visual studio 11.0\vc\include\xtree
;	COMDAT ??1?$_Tree_alloc@$0A@U?$_Tree_base_types@U?$pair@$$CBIN@std@@V?$allocator@U?$pair@$$CBIN@std@@@2@@std@@@std@@QAE@XZ
_TEXT	SEGMENT
_this$ = -4						; size = 4
??1?$_Tree_alloc@$0A@U?$_Tree_base_types@U?$pair@$$CBIN@std@@V?$allocator@U?$pair@$$CBIN@std@@@2@@std@@@std@@QAE@XZ PROC ; std::_Tree_alloc<0,std::_Tree_base_types<std::pair<unsigned int const ,double>,std::allocator<std::pair<unsigned int const ,double> > > >::~_Tree_alloc<0,std::_Tree_base_types<std::pair<unsigned int const ,double>,std::allocator<std::pair<unsigned int const ,double> > > >, COMDAT
; _this$ = ecx

; 782  : 		{	// destroy head node

  00000	55		 push	 ebp
  00001	8b ec		 mov	 ebp, esp
  00003	51		 push	 ecx
  00004	89 4d fc	 mov	 DWORD PTR _this$[ebp], ecx

; 783  : 		_Freeheadnode(this->_Myhead);

  00007	8b 45 fc	 mov	 eax, DWORD PTR _this$[ebp]
  0000a	8b 08		 mov	 ecx, DWORD PTR [eax]
  0000c	51		 push	 ecx
  0000d	8b 4d fc	 mov	 ecx, DWORD PTR _this$[ebp]
  00010	e8 00 00 00 00	 call	 ?_Freeheadnode@?$_Tree_alloc@$0A@U?$_Tree_base_types@U?$pair@$$CBIN@std@@V?$allocator@U?$pair@$$CBIN@std@@@2@@std@@@std@@QAEXPAU?$_Tree_node@U?$pair@$$CBIN@std@@PAX@2@@Z ; std::_Tree_alloc<0,std::_Tree_base_types<std::pair<unsigned int const ,double>,std::allocator<std::pair<unsigned int const ,double> > > >::_Freeheadnode

; 784  : 		}

  00015	8b e5		 mov	 esp, ebp
  00017	5d		 pop	 ebp
  00018	c3		 ret	 0
??1?$_Tree_alloc@$0A@U?$_Tree_base_types@U?$pair@$$CBIN@std@@V?$allocator@U?$pair@$$CBIN@std@@@2@@std@@@std@@QAE@XZ ENDP ; std::_Tree_alloc<0,std::_Tree_base_types<std::pair<unsigned int const ,double>,std::allocator<std::pair<unsigned int const ,double> > > >::~_Tree_alloc<0,std::_Tree_base_types<std::pair<unsigned int const ,double>,std::allocator<std::pair<unsigned int const ,double> > > >
_TEXT	ENDS
; Function compile flags: /Odtp
; File d:\program files\microsoft visual studio 11.0\vc\include\deque
;	COMDAT ??0?$deque@V?$basic_string@DU?$char_traits@D@std@@V?$allocator@D@2@@std@@V?$allocator@V?$basic_string@DU?$char_traits@D@std@@V?$allocator@D@2@@std@@@2@@std@@QAE@XZ
_TEXT	SEGMENT
_this$ = -8						; size = 4
$T1 = -1						; size = 1
??0?$deque@V?$basic_string@DU?$char_traits@D@std@@V?$allocator@D@2@@std@@V?$allocator@V?$basic_string@DU?$char_traits@D@std@@V?$allocator@D@2@@std@@@2@@std@@QAE@XZ PROC ; std::deque<std::basic_string<char,std::char_traits<char>,std::allocator<char> >,std::allocator<std::basic_string<char,std::char_traits<char>,std::allocator<char> > > >::deque<std::basic_string<char,std::char_traits<char>,std::allocator<char> >,std::allocator<std::basic_string<char,std::char_traits<char>,std::allocator<char> > > >, COMDAT
; _this$ = ecx

; 956  : 		{	// construct empty deque

  00000	55		 push	 ebp
  00001	8b ec		 mov	 ebp, esp
  00003	83 ec 08	 sub	 esp, 8
  00006	89 4d f8	 mov	 DWORD PTR _this$[ebp], ecx
  00009	8d 4d ff	 lea	 ecx, DWORD PTR $T1[ebp]
  0000c	e8 00 00 00 00	 call	 ??0?$allocator@V?$basic_string@DU?$char_traits@D@std@@V?$allocator@D@2@@std@@@std@@QAE@XZ ; std::allocator<std::basic_string<char,std::char_traits<char>,std::allocator<char> > >::allocator<std::basic_string<char,std::char_traits<char>,std::allocator<char> > >
  00011	50		 push	 eax
  00012	8b 4d f8	 mov	 ecx, DWORD PTR _this$[ebp]
  00015	e8 00 00 00 00	 call	 ??0?$_Deque_alloc@$0A@U?$_Deque_base_types@V?$basic_string@DU?$char_traits@D@std@@V?$allocator@D@2@@std@@V?$allocator@V?$basic_string@DU?$char_traits@D@std@@V?$allocator@D@2@@std@@@2@@std@@@std@@QAE@ABV?$allocator@V?$basic_string@DU?$char_traits@D@std@@V?$allocator@D@2@@std@@@1@@Z ; std::_Deque_alloc<0,std::_Deque_base_types<std::basic_string<char,std::char_traits<char>,std::allocator<char> >,std::allocator<std::basic_string<char,std::char_traits<char>,std::allocator<char> > > > >::_Deque_alloc<0,std::_Deque_base_types<std::basic_string<char,std::char_traits<char>,std::allocator<char> >,std::allocator<std::basic_string<char,std::char_traits<char>,std::allocator<char> > > > >

; 957  : 		}

  0001a	8b 45 f8	 mov	 eax, DWORD PTR _this$[ebp]
  0001d	8b e5		 mov	 esp, ebp
  0001f	5d		 pop	 ebp
  00020	c3		 ret	 0
??0?$deque@V?$basic_string@DU?$char_traits@D@std@@V?$allocator@D@2@@std@@V?$allocator@V?$basic_string@DU?$char_traits@D@std@@V?$allocator@D@2@@std@@@2@@std@@QAE@XZ ENDP ; std::deque<std::basic_string<char,std::char_traits<char>,std::allocator<char> >,std::allocator<std::basic_string<char,std::char_traits<char>,std::allocator<char> > > >::deque<std::basic_string<char,std::char_traits<char>,std::allocator<char> >,std::allocator<std::basic_string<char,std::char_traits<char>,std::allocator<char> > > >
_TEXT	ENDS
; Function compile flags: /Odtp
; File d:\program files\microsoft visual studio 11.0\vc\include\deque
;	COMDAT ?push_back@?$deque@V?$basic_string@DU?$char_traits@D@std@@V?$allocator@D@2@@std@@V?$allocator@V?$basic_string@DU?$char_traits@D@std@@V?$allocator@D@2@@std@@@2@@std@@QAEXABV?$basic_string@DU?$char_traits@D@std@@V?$allocator@D@2@@2@@Z
_TEXT	SEGMENT
__Newoff$ = -16						; size = 4
__Block$ = -12						; size = 4
_this$ = -8						; size = 4
$T1 = -2						; size = 1
$T2 = -1						; size = 1
__Val$ = 8						; size = 4
?push_back@?$deque@V?$basic_string@DU?$char_traits@D@std@@V?$allocator@D@2@@std@@V?$allocator@V?$basic_string@DU?$char_traits@D@std@@V?$allocator@D@2@@std@@@2@@std@@QAEXABV?$basic_string@DU?$char_traits@D@std@@V?$allocator@D@2@@2@@Z PROC ; std::deque<std::basic_string<char,std::char_traits<char>,std::allocator<char> >,std::allocator<std::basic_string<char,std::char_traits<char>,std::allocator<char> > > >::push_back, COMDAT
; _this$ = ecx

; 1485 : 		{	// insert element at end

  00000	55		 push	 ebp
  00001	8b ec		 mov	 ebp, esp
  00003	83 ec 10	 sub	 esp, 16			; 00000010H
  00006	56		 push	 esi
  00007	89 4d f8	 mov	 DWORD PTR _this$[ebp], ecx

; 1486 : 		this->_Orphan_all();

  0000a	8b 4d f8	 mov	 ecx, DWORD PTR _this$[ebp]
  0000d	ff 15 00 00 00
	00		 call	 DWORD PTR __imp_?_Orphan_all@_Container_base12@std@@QAEXXZ

; 1487 : 		_PUSH_BACK_BEGIN;

  00013	8b 45 f8	 mov	 eax, DWORD PTR _this$[ebp]
  00016	8b 40 0c	 mov	 eax, DWORD PTR [eax+12]
  00019	8b 4d f8	 mov	 ecx, DWORD PTR _this$[ebp]
  0001c	03 41 10	 add	 eax, DWORD PTR [ecx+16]
  0001f	33 d2		 xor	 edx, edx
  00021	b9 01 00 00 00	 mov	 ecx, 1
  00026	f7 f1		 div	 ecx
  00028	85 d2		 test	 edx, edx
  0002a	75 1b		 jne	 SHORT $LN2@push_back
  0002c	8b 55 f8	 mov	 edx, DWORD PTR _this$[ebp]
  0002f	8b 42 10	 mov	 eax, DWORD PTR [edx+16]
  00032	83 c0 01	 add	 eax, 1
  00035	8b 4d f8	 mov	 ecx, DWORD PTR _this$[ebp]
  00038	39 41 08	 cmp	 DWORD PTR [ecx+8], eax
  0003b	77 0a		 ja	 SHORT $LN2@push_back
  0003d	6a 01		 push	 1
  0003f	8b 4d f8	 mov	 ecx, DWORD PTR _this$[ebp]
  00042	e8 00 00 00 00	 call	 ?_Growmap@?$deque@V?$basic_string@DU?$char_traits@D@std@@V?$allocator@D@2@@std@@V?$allocator@V?$basic_string@DU?$char_traits@D@std@@V?$allocator@D@2@@std@@@2@@std@@IAEXI@Z ; std::deque<std::basic_string<char,std::char_traits<char>,std::allocator<char> >,std::allocator<std::basic_string<char,std::char_traits<char>,std::allocator<char> > > >::_Growmap
$LN2@push_back:
  00047	8b 55 f8	 mov	 edx, DWORD PTR _this$[ebp]
  0004a	8b 42 08	 mov	 eax, DWORD PTR [edx+8]
  0004d	83 e8 01	 sub	 eax, 1
  00050	8b 4d f8	 mov	 ecx, DWORD PTR _this$[ebp]
  00053	23 41 0c	 and	 eax, DWORD PTR [ecx+12]
  00056	8b 55 f8	 mov	 edx, DWORD PTR _this$[ebp]
  00059	89 42 0c	 mov	 DWORD PTR [edx+12], eax
  0005c	8b 45 f8	 mov	 eax, DWORD PTR _this$[ebp]
  0005f	8b 48 0c	 mov	 ecx, DWORD PTR [eax+12]
  00062	8b 55 f8	 mov	 edx, DWORD PTR _this$[ebp]
  00065	03 4a 10	 add	 ecx, DWORD PTR [edx+16]
  00068	89 4d f0	 mov	 DWORD PTR __Newoff$[ebp], ecx
  0006b	8b 45 f0	 mov	 eax, DWORD PTR __Newoff$[ebp]
  0006e	50		 push	 eax
  0006f	8b 4d f8	 mov	 ecx, DWORD PTR _this$[ebp]
  00072	e8 00 00 00 00	 call	 ?_Getblock@?$_Deque_val@U?$_Deque_simple_types@V?$basic_string@DU?$char_traits@D@std@@V?$allocator@D@2@@std@@@std@@@std@@QBEII@Z ; std::_Deque_val<std::_Deque_simple_types<std::basic_string<char,std::char_traits<char>,std::allocator<char> > > >::_Getblock
  00077	89 45 f4	 mov	 DWORD PTR __Block$[ebp], eax
  0007a	8b 4d f8	 mov	 ecx, DWORD PTR _this$[ebp]
  0007d	8b 51 04	 mov	 edx, DWORD PTR [ecx+4]
  00080	8b 45 f4	 mov	 eax, DWORD PTR __Block$[ebp]
  00083	83 3c 82 00	 cmp	 DWORD PTR [edx+eax*4], 0
  00087	75 21		 jne	 SHORT $LN1@push_back
  00089	6a 01		 push	 1
  0008b	8d 4d ff	 lea	 ecx, DWORD PTR $T2[ebp]
  0008e	51		 push	 ecx
  0008f	8b 4d f8	 mov	 ecx, DWORD PTR _this$[ebp]
  00092	e8 00 00 00 00	 call	 ?_Getal@?$_Deque_alloc@$0A@U?$_Deque_base_types@V?$basic_string@DU?$char_traits@D@std@@V?$allocator@D@2@@std@@V?$allocator@V?$basic_string@DU?$char_traits@D@std@@V?$allocator@D@2@@std@@@2@@std@@@std@@QBE?AU?$_Wrap_alloc@V?$allocator@V?$basic_string@DU?$char_traits@D@std@@V?$allocator@D@2@@std@@@std@@@2@XZ ; std::_Deque_alloc<0,std::_Deque_base_types<std::basic_string<char,std::char_traits<char>,std::allocator<char> >,std::allocator<std::basic_string<char,std::char_traits<char>,std::allocator<char> > > > >::_Getal
  00097	8b c8		 mov	 ecx, eax
  00099	e8 00 00 00 00	 call	 ?allocate@?$_Wrap_alloc@V?$allocator@V?$basic_string@DU?$char_traits@D@std@@V?$allocator@D@2@@std@@@std@@@std@@QAEPAV?$basic_string@DU?$char_traits@D@std@@V?$allocator@D@2@@2@I@Z ; std::_Wrap_alloc<std::allocator<std::basic_string<char,std::char_traits<char>,std::allocator<char> > > >::allocate
  0009e	8b 55 f8	 mov	 edx, DWORD PTR _this$[ebp]
  000a1	8b 4a 04	 mov	 ecx, DWORD PTR [edx+4]
  000a4	8b 55 f4	 mov	 edx, DWORD PTR __Block$[ebp]
  000a7	89 04 91	 mov	 DWORD PTR [ecx+edx*4], eax
$LN1@push_back:

; 1488 : 		this->_Getal().construct(
; 1489 : 			this->_Map[_Block] + _Newoff % _DEQUESIZ, _Val);

  000aa	8b 45 08	 mov	 eax, DWORD PTR __Val$[ebp]
  000ad	50		 push	 eax
  000ae	8b 4d f8	 mov	 ecx, DWORD PTR _this$[ebp]
  000b1	8b 49 04	 mov	 ecx, DWORD PTR [ecx+4]
  000b4	8b 45 f0	 mov	 eax, DWORD PTR __Newoff$[ebp]
  000b7	33 d2		 xor	 edx, edx
  000b9	be 01 00 00 00	 mov	 esi, 1
  000be	f7 f6		 div	 esi
  000c0	6b d2 18	 imul	 edx, 24			; 00000018H
  000c3	8b 45 f4	 mov	 eax, DWORD PTR __Block$[ebp]
  000c6	03 14 81	 add	 edx, DWORD PTR [ecx+eax*4]
  000c9	52		 push	 edx
  000ca	8d 4d fe	 lea	 ecx, DWORD PTR $T1[ebp]
  000cd	51		 push	 ecx
  000ce	8b 4d f8	 mov	 ecx, DWORD PTR _this$[ebp]
  000d1	e8 00 00 00 00	 call	 ?_Getal@?$_Deque_alloc@$0A@U?$_Deque_base_types@V?$basic_string@DU?$char_traits@D@std@@V?$allocator@D@2@@std@@V?$allocator@V?$basic_string@DU?$char_traits@D@std@@V?$allocator@D@2@@std@@@2@@std@@@std@@QBE?AU?$_Wrap_alloc@V?$allocator@V?$basic_string@DU?$char_traits@D@std@@V?$allocator@D@2@@std@@@std@@@2@XZ ; std::_Deque_alloc<0,std::_Deque_base_types<std::basic_string<char,std::char_traits<char>,std::allocator<char> >,std::allocator<std::basic_string<char,std::char_traits<char>,std::allocator<char> > > > >::_Getal
  000d6	8b c8		 mov	 ecx, eax
  000d8	e8 00 00 00 00	 call	 ??$construct@V?$basic_string@DU?$char_traits@D@std@@V?$allocator@D@2@@std@@ABV12@@?$_Wrap_alloc@V?$allocator@V?$basic_string@DU?$char_traits@D@std@@V?$allocator@D@2@@std@@@std@@@std@@QAEXPAV?$basic_string@DU?$char_traits@D@std@@V?$allocator@D@2@@1@ABV21@@Z ; std::_Wrap_alloc<std::allocator<std::basic_string<char,std::char_traits<char>,std::allocator<char> > > >::construct<std::basic_string<char,std::char_traits<char>,std::allocator<char> >,std::basic_string<char,std::char_traits<char>,std::allocator<char> > const &>

; 1490 : 		_PUSH_BACK_END;

  000dd	8b 55 f8	 mov	 edx, DWORD PTR _this$[ebp]
  000e0	8b 42 10	 mov	 eax, DWORD PTR [edx+16]
  000e3	83 c0 01	 add	 eax, 1
  000e6	8b 4d f8	 mov	 ecx, DWORD PTR _this$[ebp]
  000e9	89 41 10	 mov	 DWORD PTR [ecx+16], eax

; 1491 : 		}

  000ec	5e		 pop	 esi
  000ed	8b e5		 mov	 esp, ebp
  000ef	5d		 pop	 ebp
  000f0	c2 04 00	 ret	 4
?push_back@?$deque@V?$basic_string@DU?$char_traits@D@std@@V?$allocator@D@2@@std@@V?$allocator@V?$basic_string@DU?$char_traits@D@std@@V?$allocator@D@2@@std@@@2@@std@@QAEXABV?$basic_string@DU?$char_traits@D@std@@V?$allocator@D@2@@2@@Z ENDP ; std::deque<std::basic_string<char,std::char_traits<char>,std::allocator<char> >,std::allocator<std::basic_string<char,std::char_traits<char>,std::allocator<char> > > >::push_back
_TEXT	ENDS
; Function compile flags: /Odtp
; File d:\program files\microsoft visual studio 11.0\vc\include\deque
;	COMDAT ?_Tidy@?$deque@V?$basic_string@DU?$char_traits@D@std@@V?$allocator@D@2@@std@@V?$allocator@V?$basic_string@DU?$char_traits@D@std@@V?$allocator@D@2@@std@@@2@@std@@IAEXXZ
_TEXT	SEGMENT
$T1 = -19						; size = 1
$T2 = -18						; size = 1
$T3 = -17						; size = 1
__Block$4 = -16						; size = 4
_this$ = -12						; size = 4
__Almap$ = -5						; size = 1
__$ArrayPad$ = -4					; size = 4
?_Tidy@?$deque@V?$basic_string@DU?$char_traits@D@std@@V?$allocator@D@2@@std@@V?$allocator@V?$basic_string@DU?$char_traits@D@std@@V?$allocator@D@2@@std@@@2@@std@@IAEXXZ PROC ; std::deque<std::basic_string<char,std::char_traits<char>,std::allocator<char> >,std::allocator<std::basic_string<char,std::char_traits<char>,std::allocator<char> > > >::_Tidy, COMDAT
; _this$ = ecx

; 1857 : 		{	// free all storage

  00000	55		 push	 ebp
  00001	8b ec		 mov	 ebp, esp
  00003	83 ec 14	 sub	 esp, 20			; 00000014H
  00006	a1 00 00 00 00	 mov	 eax, DWORD PTR ___security_cookie
  0000b	33 c5		 xor	 eax, ebp
  0000d	89 45 fc	 mov	 DWORD PTR __$ArrayPad$[ebp], eax
  00010	89 4d f4	 mov	 DWORD PTR _this$[ebp], ecx

; 1858 : 		_Alpty _Almap(this->_Getal());

  00013	8d 45 ee	 lea	 eax, DWORD PTR $T2[ebp]
  00016	50		 push	 eax
  00017	8b 4d f4	 mov	 ecx, DWORD PTR _this$[ebp]
  0001a	e8 00 00 00 00	 call	 ?_Getal@?$_Deque_alloc@$0A@U?$_Deque_base_types@V?$basic_string@DU?$char_traits@D@std@@V?$allocator@D@2@@std@@V?$allocator@V?$basic_string@DU?$char_traits@D@std@@V?$allocator@D@2@@std@@@2@@std@@@std@@QBE?AU?$_Wrap_alloc@V?$allocator@V?$basic_string@DU?$char_traits@D@std@@V?$allocator@D@2@@std@@@std@@@2@XZ ; std::_Deque_alloc<0,std::_Deque_base_types<std::basic_string<char,std::char_traits<char>,std::allocator<char> >,std::allocator<std::basic_string<char,std::char_traits<char>,std::allocator<char> > > > >::_Getal
  0001f	50		 push	 eax
  00020	8d 4d fb	 lea	 ecx, DWORD PTR __Almap$[ebp]
  00023	e8 00 00 00 00	 call	 ??$?0U?$_Wrap_alloc@V?$allocator@V?$basic_string@DU?$char_traits@D@std@@V?$allocator@D@2@@std@@@std@@@std@@@?$_Wrap_alloc@V?$allocator@PAV?$basic_string@DU?$char_traits@D@std@@V?$allocator@D@2@@std@@@std@@@std@@QAE@ABU?$_Wrap_alloc@V?$allocator@V?$basic_string@DU?$char_traits@D@std@@V?$allocator@D@2@@std@@@std@@@1@@Z ; std::_Wrap_alloc<std::allocator<std::basic_string<char,std::char_traits<char>,std::allocator<char> > *> >::_Wrap_alloc<std::allocator<std::basic_string<char,std::char_traits<char>,std::allocator<char> > *> ><std::_Wrap_alloc<std::allocator<std::basic_string<char,std::char_traits<char>,std::allocator<char> > > > >
$LN6@Tidy:

; 1859 : 		while (!empty())

  00028	8b 4d f4	 mov	 ecx, DWORD PTR _this$[ebp]
  0002b	e8 00 00 00 00	 call	 ?empty@?$deque@V?$basic_string@DU?$char_traits@D@std@@V?$allocator@D@2@@std@@V?$allocator@V?$basic_string@DU?$char_traits@D@std@@V?$allocator@D@2@@std@@@2@@std@@QBE_NXZ ; std::deque<std::basic_string<char,std::char_traits<char>,std::allocator<char> >,std::allocator<std::basic_string<char,std::char_traits<char>,std::allocator<char> > > >::empty
  00030	0f b6 c8	 movzx	 ecx, al
  00033	85 c9		 test	 ecx, ecx
  00035	75 0a		 jne	 SHORT $LN5@Tidy

; 1860 : 			pop_back();

  00037	8b 4d f4	 mov	 ecx, DWORD PTR _this$[ebp]
  0003a	e8 00 00 00 00	 call	 ?pop_back@?$deque@V?$basic_string@DU?$char_traits@D@std@@V?$allocator@D@2@@std@@V?$allocator@V?$basic_string@DU?$char_traits@D@std@@V?$allocator@D@2@@std@@@2@@std@@QAEXXZ ; std::deque<std::basic_string<char,std::char_traits<char>,std::allocator<char> >,std::allocator<std::basic_string<char,std::char_traits<char>,std::allocator<char> > > >::pop_back
  0003f	eb e7		 jmp	 SHORT $LN6@Tidy
$LN5@Tidy:

; 1861 : 		for (size_type _Block = this->_Mapsize; 0 < _Block; )

  00041	8b 55 f4	 mov	 edx, DWORD PTR _this$[ebp]
  00044	8b 42 08	 mov	 eax, DWORD PTR [edx+8]
  00047	89 45 f0	 mov	 DWORD PTR __Block$4[ebp], eax
$LN4@Tidy:
  0004a	83 7d f0 00	 cmp	 DWORD PTR __Block$4[ebp], 0
  0004e	76 5c		 jbe	 SHORT $LN3@Tidy

; 1862 : 			{	// free storage for a block and destroy pointer
; 1863 : 			if (this->_Map[--_Block] != pointer())

  00050	8b 4d f0	 mov	 ecx, DWORD PTR __Block$4[ebp]
  00053	83 e9 01	 sub	 ecx, 1
  00056	89 4d f0	 mov	 DWORD PTR __Block$4[ebp], ecx
  00059	8b 55 f4	 mov	 edx, DWORD PTR _this$[ebp]
  0005c	8b 42 04	 mov	 eax, DWORD PTR [edx+4]
  0005f	8b 4d f0	 mov	 ecx, DWORD PTR __Block$4[ebp]
  00062	83 3c 88 00	 cmp	 DWORD PTR [eax+ecx*4], 0
  00066	74 42		 je	 SHORT $LN2@Tidy

; 1864 : 				{	// free block and destroy its pointer
; 1865 : 				this->_Getal().deallocate(this->_Map[_Block], _DEQUESIZ);

  00068	6a 01		 push	 1
  0006a	8b 55 f4	 mov	 edx, DWORD PTR _this$[ebp]
  0006d	8b 42 04	 mov	 eax, DWORD PTR [edx+4]
  00070	8b 4d f0	 mov	 ecx, DWORD PTR __Block$4[ebp]
  00073	8b 14 88	 mov	 edx, DWORD PTR [eax+ecx*4]
  00076	52		 push	 edx
  00077	8d 45 ef	 lea	 eax, DWORD PTR $T3[ebp]
  0007a	50		 push	 eax
  0007b	8b 4d f4	 mov	 ecx, DWORD PTR _this$[ebp]
  0007e	e8 00 00 00 00	 call	 ?_Getal@?$_Deque_alloc@$0A@U?$_Deque_base_types@V?$basic_string@DU?$char_traits@D@std@@V?$allocator@D@2@@std@@V?$allocator@V?$basic_string@DU?$char_traits@D@std@@V?$allocator@D@2@@std@@@2@@std@@@std@@QBE?AU?$_Wrap_alloc@V?$allocator@V?$basic_string@DU?$char_traits@D@std@@V?$allocator@D@2@@std@@@std@@@2@XZ ; std::_Deque_alloc<0,std::_Deque_base_types<std::basic_string<char,std::char_traits<char>,std::allocator<char> >,std::allocator<std::basic_string<char,std::char_traits<char>,std::allocator<char> > > > >::_Getal
  00083	8b c8		 mov	 ecx, eax
  00085	e8 00 00 00 00	 call	 ?deallocate@?$_Wrap_alloc@V?$allocator@V?$basic_string@DU?$char_traits@D@std@@V?$allocator@D@2@@std@@@std@@@std@@QAEXPAV?$basic_string@DU?$char_traits@D@std@@V?$allocator@D@2@@2@I@Z ; std::_Wrap_alloc<std::allocator<std::basic_string<char,std::char_traits<char>,std::allocator<char> > > >::deallocate

; 1866 : 				this->_Getal().destroy(&this->_Map[_Block]);

  0008a	8b 4d f4	 mov	 ecx, DWORD PTR _this$[ebp]
  0008d	8b 51 04	 mov	 edx, DWORD PTR [ecx+4]
  00090	8b 45 f0	 mov	 eax, DWORD PTR __Block$4[ebp]
  00093	8d 0c 82	 lea	 ecx, DWORD PTR [edx+eax*4]
  00096	51		 push	 ecx
  00097	8d 55 ed	 lea	 edx, DWORD PTR $T1[ebp]
  0009a	52		 push	 edx
  0009b	8b 4d f4	 mov	 ecx, DWORD PTR _this$[ebp]
  0009e	e8 00 00 00 00	 call	 ?_Getal@?$_Deque_alloc@$0A@U?$_Deque_base_types@V?$basic_string@DU?$char_traits@D@std@@V?$allocator@D@2@@std@@V?$allocator@V?$basic_string@DU?$char_traits@D@std@@V?$allocator@D@2@@std@@@2@@std@@@std@@QBE?AU?$_Wrap_alloc@V?$allocator@V?$basic_string@DU?$char_traits@D@std@@V?$allocator@D@2@@std@@@std@@@2@XZ ; std::_Deque_alloc<0,std::_Deque_base_types<std::basic_string<char,std::char_traits<char>,std::allocator<char> >,std::allocator<std::basic_string<char,std::char_traits<char>,std::allocator<char> > > > >::_Getal
  000a3	8b c8		 mov	 ecx, eax
  000a5	e8 00 00 00 00	 call	 ??$destroy@PAV?$basic_string@DU?$char_traits@D@std@@V?$allocator@D@2@@std@@@?$_Wrap_alloc@V?$allocator@V?$basic_string@DU?$char_traits@D@std@@V?$allocator@D@2@@std@@@std@@@std@@QAEXPAPAV?$basic_string@DU?$char_traits@D@std@@V?$allocator@D@2@@1@@Z ; std::_Wrap_alloc<std::allocator<std::basic_string<char,std::char_traits<char>,std::allocator<char> > > >::destroy<std::basic_string<char,std::char_traits<char>,std::allocator<char> > *>
$LN2@Tidy:

; 1867 : 				}
; 1868 : 			}

  000aa	eb 9e		 jmp	 SHORT $LN4@Tidy
$LN3@Tidy:

; 1869 : 
; 1870 : 		if (this->_Map != _Mapptr())

  000ac	8b 45 f4	 mov	 eax, DWORD PTR _this$[ebp]
  000af	83 78 04 00	 cmp	 DWORD PTR [eax+4], 0
  000b3	74 16		 je	 SHORT $LN1@Tidy

; 1871 : 			_Almap.deallocate(this->_Map,
; 1872 : 				this->_Mapsize);	// free storage for map

  000b5	8b 4d f4	 mov	 ecx, DWORD PTR _this$[ebp]
  000b8	8b 51 08	 mov	 edx, DWORD PTR [ecx+8]
  000bb	52		 push	 edx
  000bc	8b 45 f4	 mov	 eax, DWORD PTR _this$[ebp]
  000bf	8b 48 04	 mov	 ecx, DWORD PTR [eax+4]
  000c2	51		 push	 ecx
  000c3	8d 4d fb	 lea	 ecx, DWORD PTR __Almap$[ebp]
  000c6	e8 00 00 00 00	 call	 ?deallocate@?$_Wrap_alloc@V?$allocator@PAV?$basic_string@DU?$char_traits@D@std@@V?$allocator@D@2@@std@@@std@@@std@@QAEXPAPAV?$basic_string@DU?$char_traits@D@std@@V?$allocator@D@2@@2@I@Z ; std::_Wrap_alloc<std::allocator<std::basic_string<char,std::char_traits<char>,std::allocator<char> > *> >::deallocate
$LN1@Tidy:

; 1873 : 		this->_Mapsize = 0;

  000cb	8b 55 f4	 mov	 edx, DWORD PTR _this$[ebp]
  000ce	c7 42 08 00 00
	00 00		 mov	 DWORD PTR [edx+8], 0

; 1874 : 		this->_Map = _Mapptr();

  000d5	8b 45 f4	 mov	 eax, DWORD PTR _this$[ebp]
  000d8	c7 40 04 00 00
	00 00		 mov	 DWORD PTR [eax+4], 0

; 1875 : 		}

  000df	8b 4d fc	 mov	 ecx, DWORD PTR __$ArrayPad$[ebp]
  000e2	33 cd		 xor	 ecx, ebp
  000e4	e8 00 00 00 00	 call	 @__security_check_cookie@4
  000e9	8b e5		 mov	 esp, ebp
  000eb	5d		 pop	 ebp
  000ec	c3		 ret	 0
?_Tidy@?$deque@V?$basic_string@DU?$char_traits@D@std@@V?$allocator@D@2@@std@@V?$allocator@V?$basic_string@DU?$char_traits@D@std@@V?$allocator@D@2@@std@@@2@@std@@IAEXXZ ENDP ; std::deque<std::basic_string<char,std::char_traits<char>,std::allocator<char> >,std::allocator<std::basic_string<char,std::char_traits<char>,std::allocator<char> > > >::_Tidy
_TEXT	ENDS
; Function compile flags: /Odtp
; File d:\program files\microsoft visual studio 11.0\vc\include\deque
;	COMDAT ??1?$_Deque_alloc@$0A@U?$_Deque_base_types@V?$basic_string@DU?$char_traits@D@std@@V?$allocator@D@2@@std@@V?$allocator@V?$basic_string@DU?$char_traits@D@std@@V?$allocator@D@2@@std@@@2@@std@@@std@@QAE@XZ
_TEXT	SEGMENT
_this$ = -4						; size = 4
??1?$_Deque_alloc@$0A@U?$_Deque_base_types@V?$basic_string@DU?$char_traits@D@std@@V?$allocator@D@2@@std@@V?$allocator@V?$basic_string@DU?$char_traits@D@std@@V?$allocator@D@2@@std@@@2@@std@@@std@@QAE@XZ PROC ; std::_Deque_alloc<0,std::_Deque_base_types<std::basic_string<char,std::char_traits<char>,std::allocator<char> >,std::allocator<std::basic_string<char,std::char_traits<char>,std::allocator<char> > > > >::~_Deque_alloc<0,std::_Deque_base_types<std::basic_string<char,std::char_traits<char>,std::allocator<char> >,std::allocator<std::basic_string<char,std::char_traits<char>,std::allocator<char> > > > >, COMDAT
; _this$ = ecx

; 883  : 		{	// destroy proxy

  00000	55		 push	 ebp
  00001	8b ec		 mov	 ebp, esp
  00003	51		 push	 ecx
  00004	89 4d fc	 mov	 DWORD PTR _this$[ebp], ecx

; 884  : 		_Free_proxy();

  00007	8b 4d fc	 mov	 ecx, DWORD PTR _this$[ebp]
  0000a	e8 00 00 00 00	 call	 ?_Free_proxy@?$_Deque_alloc@$0A@U?$_Deque_base_types@V?$basic_string@DU?$char_traits@D@std@@V?$allocator@D@2@@std@@V?$allocator@V?$basic_string@DU?$char_traits@D@std@@V?$allocator@D@2@@std@@@2@@std@@@std@@QAEXXZ ; std::_Deque_alloc<0,std::_Deque_base_types<std::basic_string<char,std::char_traits<char>,std::allocator<char> >,std::allocator<std::basic_string<char,std::char_traits<char>,std::allocator<char> > > > >::_Free_proxy

; 885  : 		}

  0000f	8b 4d fc	 mov	 ecx, DWORD PTR _this$[ebp]
  00012	e8 00 00 00 00	 call	 ??1?$_Deque_val@U?$_Deque_simple_types@V?$basic_string@DU?$char_traits@D@std@@V?$allocator@D@2@@std@@@std@@@std@@QAE@XZ
  00017	8b e5		 mov	 esp, ebp
  00019	5d		 pop	 ebp
  0001a	c3		 ret	 0
??1?$_Deque_alloc@$0A@U?$_Deque_base_types@V?$basic_string@DU?$char_traits@D@std@@V?$allocator@D@2@@std@@V?$allocator@V?$basic_string@DU?$char_traits@D@std@@V?$allocator@D@2@@std@@@2@@std@@@std@@QAE@XZ ENDP ; std::_Deque_alloc<0,std::_Deque_base_types<std::basic_string<char,std::char_traits<char>,std::allocator<char> >,std::allocator<std::basic_string<char,std::char_traits<char>,std::allocator<char> > > > >::~_Deque_alloc<0,std::_Deque_base_types<std::basic_string<char,std::char_traits<char>,std::allocator<char> >,std::allocator<std::basic_string<char,std::char_traits<char>,std::allocator<char> > > > >
_TEXT	ENDS
; Function compile flags: /Odtp
; File d:\program files\microsoft visual studio 11.0\vc\atlmfc\include\atlconv.h
;	COMDAT ?Init@?$CA2AEX@$0IA@@ATL@@AAEXPBD@Z
_TEXT	SEGMENT
tv68 = -24						; size = 4
tv86 = -20						; size = 4
_nLength$ = -16						; size = 4
_this$ = -12						; size = 4
tv83 = -8						; size = 4
tv89 = -1						; size = 1
_psz$ = 8						; size = 4
?Init@?$CA2AEX@$0IA@@ATL@@AAEXPBD@Z PROC		; ATL::CA2AEX<128>::Init, COMDAT
; _this$ = ecx

; 258  : 	{

  00000	55		 push	 ebp
  00001	8b ec		 mov	 ebp, esp
  00003	83 ec 18	 sub	 esp, 24			; 00000018H
  00006	89 4d f4	 mov	 DWORD PTR _this$[ebp], ecx

; 259  : 		if (psz == NULL)

  00009	83 7d 08 00	 cmp	 DWORD PTR _psz$[ebp], 0
  0000d	75 0b		 jne	 SHORT $LN1@Init

; 260  : 		{
; 261  : 			m_psz = NULL;

  0000f	8b 45 f4	 mov	 eax, DWORD PTR _this$[ebp]
  00012	c7 00 00 00 00
	00		 mov	 DWORD PTR [eax], 0

; 262  : 			return;

  00018	eb 69		 jmp	 SHORT $LN2@Init
$LN1@Init:

; 263  : 		}
; 264  : 		int nLength = static_cast<int>(strlen( psz ))+1;

  0001a	8b 4d 08	 mov	 ecx, DWORD PTR _psz$[ebp]
  0001d	89 4d f8	 mov	 DWORD PTR tv83[ebp], ecx
  00020	8b 55 f8	 mov	 edx, DWORD PTR tv83[ebp]
  00023	83 c2 01	 add	 edx, 1
  00026	89 55 ec	 mov	 DWORD PTR tv86[ebp], edx
$LL4@Init:
  00029	8b 45 f8	 mov	 eax, DWORD PTR tv83[ebp]
  0002c	8a 08		 mov	 cl, BYTE PTR [eax]
  0002e	88 4d ff	 mov	 BYTE PTR tv89[ebp], cl
  00031	83 45 f8 01	 add	 DWORD PTR tv83[ebp], 1
  00035	80 7d ff 00	 cmp	 BYTE PTR tv89[ebp], 0
  00039	75 ee		 jne	 SHORT $LL4@Init
  0003b	8b 55 f8	 mov	 edx, DWORD PTR tv83[ebp]
  0003e	2b 55 ec	 sub	 edx, DWORD PTR tv86[ebp]
  00041	89 55 e8	 mov	 DWORD PTR tv68[ebp], edx
  00044	8b 45 e8	 mov	 eax, DWORD PTR tv68[ebp]
  00047	83 c0 01	 add	 eax, 1
  0004a	89 45 f0	 mov	 DWORD PTR _nLength$[ebp], eax

; 265  : 		AtlConvAllocMemory(&m_psz,nLength,m_szBuffer,t_nBufferLength);		

  0004d	68 80 00 00 00	 push	 128			; 00000080H
  00052	8b 4d f4	 mov	 ecx, DWORD PTR _this$[ebp]
  00055	83 c1 04	 add	 ecx, 4
  00058	51		 push	 ecx
  00059	8b 55 f0	 mov	 edx, DWORD PTR _nLength$[ebp]
  0005c	52		 push	 edx
  0005d	8b 45 f4	 mov	 eax, DWORD PTR _this$[ebp]
  00060	50		 push	 eax
  00061	e8 00 00 00 00	 call	 ??$AtlConvAllocMemory@D@ATL@@YAXPAPADHPADH@Z ; ATL::AtlConvAllocMemory<char>
  00066	83 c4 10	 add	 esp, 16			; 00000010H

; 266  : 		Checked::memcpy_s( m_psz, nLength*sizeof( char ), psz, nLength*sizeof( char ));

  00069	8b 4d f0	 mov	 ecx, DWORD PTR _nLength$[ebp]
  0006c	51		 push	 ecx
  0006d	8b 55 08	 mov	 edx, DWORD PTR _psz$[ebp]
  00070	52		 push	 edx
  00071	8b 45 f0	 mov	 eax, DWORD PTR _nLength$[ebp]
  00074	50		 push	 eax
  00075	8b 4d f4	 mov	 ecx, DWORD PTR _this$[ebp]
  00078	8b 11		 mov	 edx, DWORD PTR [ecx]
  0007a	52		 push	 edx
  0007b	e8 00 00 00 00	 call	 ?memcpy_s@Checked@ATL@@YAXPAXIPBXI@Z ; ATL::Checked::memcpy_s
  00080	83 c4 10	 add	 esp, 16			; 00000010H
$LN2@Init:

; 267  : 	}

  00083	8b e5		 mov	 esp, ebp
  00085	5d		 pop	 ebp
  00086	c2 04 00	 ret	 4
?Init@?$CA2AEX@$0IA@@ATL@@AAEXPBD@Z ENDP		; ATL::CA2AEX<128>::Init
_TEXT	ENDS
; Function compile flags: /Odtp
;	COMDAT ??1?$_Deque_val@U?$_Deque_simple_types@PAE@std@@@std@@QAE@XZ
_TEXT	SEGMENT
_this$ = -4						; size = 4
??1?$_Deque_val@U?$_Deque_simple_types@PAE@std@@@std@@QAE@XZ PROC ; std::_Deque_val<std::_Deque_simple_types<unsigned char *> >::~_Deque_val<std::_Deque_simple_types<unsigned char *> >, COMDAT
; _this$ = ecx
  00000	55		 push	 ebp
  00001	8b ec		 mov	 ebp, esp
  00003	51		 push	 ecx
  00004	89 4d fc	 mov	 DWORD PTR _this$[ebp], ecx
  00007	8b 4d fc	 mov	 ecx, DWORD PTR _this$[ebp]
  0000a	ff 15 00 00 00
	00		 call	 DWORD PTR __imp_??1_Container_base12@std@@QAE@XZ
  00010	8b e5		 mov	 esp, ebp
  00012	5d		 pop	 ebp
  00013	c3		 ret	 0
??1?$_Deque_val@U?$_Deque_simple_types@PAE@std@@@std@@QAE@XZ ENDP ; std::_Deque_val<std::_Deque_simple_types<unsigned char *> >::~_Deque_val<std::_Deque_simple_types<unsigned char *> >
_TEXT	ENDS
; Function compile flags: /Odtp
;	COMDAT ??1?$_Deque_val@U?$_Deque_simple_types@V?$basic_string@DU?$char_traits@D@std@@V?$allocator@D@2@@std@@@std@@@std@@QAE@XZ
_TEXT	SEGMENT
_this$ = -4						; size = 4
??1?$_Deque_val@U?$_Deque_simple_types@V?$basic_string@DU?$char_traits@D@std@@V?$allocator@D@2@@std@@@std@@@std@@QAE@XZ PROC ; std::_Deque_val<std::_Deque_simple_types<std::basic_string<char,std::char_traits<char>,std::allocator<char> > > >::~_Deque_val<std::_Deque_simple_types<std::basic_string<char,std::char_traits<char>,std::allocator<char> > > >, COMDAT
; _this$ = ecx
  00000	55		 push	 ebp
  00001	8b ec		 mov	 ebp, esp
  00003	51		 push	 ecx
  00004	89 4d fc	 mov	 DWORD PTR _this$[ebp], ecx
  00007	8b 4d fc	 mov	 ecx, DWORD PTR _this$[ebp]
  0000a	ff 15 00 00 00
	00		 call	 DWORD PTR __imp_??1_Container_base12@std@@QAE@XZ
  00010	8b e5		 mov	 esp, ebp
  00012	5d		 pop	 ebp
  00013	c3		 ret	 0
??1?$_Deque_val@U?$_Deque_simple_types@V?$basic_string@DU?$char_traits@D@std@@V?$allocator@D@2@@std@@@std@@@std@@QAE@XZ ENDP ; std::_Deque_val<std::_Deque_simple_types<std::basic_string<char,std::char_traits<char>,std::allocator<char> > > >::~_Deque_val<std::_Deque_simple_types<std::basic_string<char,std::char_traits<char>,std::allocator<char> > > >
_TEXT	ENDS
; Function compile flags: /Odtp
; File d:\program files\microsoft visual studio 11.0\vc\include\deque
;	COMDAT ?empty@?$deque@PAEV?$allocator@PAE@std@@@std@@QBE_NXZ
_TEXT	SEGMENT
_this$ = -8						; size = 4
tv70 = -4						; size = 4
?empty@?$deque@PAEV?$allocator@PAE@std@@@std@@QBE_NXZ PROC ; std::deque<unsigned char *,std::allocator<unsigned char *> >::empty, COMDAT
; _this$ = ecx

; 1381 : 		{	// test if sequence is empty

  00000	55		 push	 ebp
  00001	8b ec		 mov	 ebp, esp
  00003	83 ec 08	 sub	 esp, 8
  00006	89 4d f8	 mov	 DWORD PTR _this$[ebp], ecx

; 1382 : 		return (this->_Mysize == 0);

  00009	8b 45 f8	 mov	 eax, DWORD PTR _this$[ebp]
  0000c	83 78 10 00	 cmp	 DWORD PTR [eax+16], 0
  00010	75 09		 jne	 SHORT $LN3@empty
  00012	c7 45 fc 01 00
	00 00		 mov	 DWORD PTR tv70[ebp], 1
  00019	eb 07		 jmp	 SHORT $LN4@empty
$LN3@empty:
  0001b	c7 45 fc 00 00
	00 00		 mov	 DWORD PTR tv70[ebp], 0
$LN4@empty:
  00022	8a 45 fc	 mov	 al, BYTE PTR tv70[ebp]

; 1383 : 		}

  00025	8b e5		 mov	 esp, ebp
  00027	5d		 pop	 ebp
  00028	c3		 ret	 0
?empty@?$deque@PAEV?$allocator@PAE@std@@@std@@QBE_NXZ ENDP ; std::deque<unsigned char *,std::allocator<unsigned char *> >::empty
_TEXT	ENDS
; Function compile flags: /Odtp
; File d:\program files\microsoft visual studio 11.0\vc\include\deque
;	COMDAT ?pop_back@?$deque@PAEV?$allocator@PAE@std@@@std@@QAEXXZ
_TEXT	SEGMENT
__Block$1 = -20						; size = 4
tv144 = -16						; size = 4
__Newoff$2 = -12					; size = 4
_this$ = -8						; size = 4
$T3 = -1						; size = 1
?pop_back@?$deque@PAEV?$allocator@PAE@std@@@std@@QAEXXZ PROC ; std::deque<unsigned char *,std::allocator<unsigned char *> >::pop_back, COMDAT
; _this$ = ecx

; 1494 : 		{	// erase element at end

  00000	55		 push	 ebp
  00001	8b ec		 mov	 ebp, esp
  00003	83 ec 14	 sub	 esp, 20			; 00000014H
  00006	56		 push	 esi
  00007	89 4d f8	 mov	 DWORD PTR _this$[ebp], ecx

; 1495 :  #if _ITERATOR_DEBUG_LEVEL == 2
; 1496 : 		if (empty())
; 1497 : 			_DEBUG_ERROR("deque empty before pop");
; 1498 : 		else
; 1499 : 			{	// something to erase, do it
; 1500 : 			size_type _Newoff = this->_Myoff + this->_Mysize - 1;
; 1501 : 			_Orphan_off(_Newoff);
; 1502 : 			size_type _Block = this->_Getblock(_Newoff);
; 1503 : 			this->_Getal().destroy(
; 1504 : 				this->_Map[_Block] + _Newoff % _DEQUESIZ);
; 1505 : 			if (--this->_Mysize == 0)
; 1506 : 				this->_Myoff = 0;
; 1507 : 			}
; 1508 : 
; 1509 :  #else /* _ITERATOR_DEBUG_LEVEL == 2 */
; 1510 : 		if (!empty())

  0000a	8b 4d f8	 mov	 ecx, DWORD PTR _this$[ebp]
  0000d	e8 00 00 00 00	 call	 ?empty@?$deque@PAEV?$allocator@PAE@std@@@std@@QBE_NXZ ; std::deque<unsigned char *,std::allocator<unsigned char *> >::empty
  00012	0f b6 c0	 movzx	 eax, al
  00015	85 c0		 test	 eax, eax
  00017	75 76		 jne	 SHORT $LN3@pop_back

; 1511 : 			{	// something to erase, do it
; 1512 : 			size_type _Newoff = this->_Myoff + this->_Mysize - 1;

  00019	8b 4d f8	 mov	 ecx, DWORD PTR _this$[ebp]
  0001c	8b 51 0c	 mov	 edx, DWORD PTR [ecx+12]
  0001f	8b 45 f8	 mov	 eax, DWORD PTR _this$[ebp]
  00022	8b 48 10	 mov	 ecx, DWORD PTR [eax+16]
  00025	8d 54 0a ff	 lea	 edx, DWORD PTR [edx+ecx-1]
  00029	89 55 f4	 mov	 DWORD PTR __Newoff$2[ebp], edx

; 1513 : 			size_type _Block = this->_Getblock(_Newoff);

  0002c	8b 45 f4	 mov	 eax, DWORD PTR __Newoff$2[ebp]
  0002f	50		 push	 eax
  00030	8b 4d f8	 mov	 ecx, DWORD PTR _this$[ebp]
  00033	e8 00 00 00 00	 call	 ?_Getblock@?$_Deque_val@U?$_Deque_simple_types@PAE@std@@@std@@QBEII@Z ; std::_Deque_val<std::_Deque_simple_types<unsigned char *> >::_Getblock
  00038	89 45 ec	 mov	 DWORD PTR __Block$1[ebp], eax

; 1514 : 			this->_Getal().destroy(
; 1515 : 				this->_Map[_Block] + _Newoff % _DEQUESIZ);

  0003b	8b 4d f8	 mov	 ecx, DWORD PTR _this$[ebp]
  0003e	8b 49 04	 mov	 ecx, DWORD PTR [ecx+4]
  00041	8b 45 f4	 mov	 eax, DWORD PTR __Newoff$2[ebp]
  00044	33 d2		 xor	 edx, edx
  00046	be 04 00 00 00	 mov	 esi, 4
  0004b	f7 f6		 div	 esi
  0004d	8b 45 ec	 mov	 eax, DWORD PTR __Block$1[ebp]
  00050	8b 0c 81	 mov	 ecx, DWORD PTR [ecx+eax*4]
  00053	8d 14 91	 lea	 edx, DWORD PTR [ecx+edx*4]
  00056	52		 push	 edx
  00057	8d 45 ff	 lea	 eax, DWORD PTR $T3[ebp]
  0005a	50		 push	 eax
  0005b	8b 4d f8	 mov	 ecx, DWORD PTR _this$[ebp]
  0005e	e8 00 00 00 00	 call	 ?_Getal@?$_Deque_alloc@$0A@U?$_Deque_base_types@PAEV?$allocator@PAE@std@@@std@@@std@@QBE?AU?$_Wrap_alloc@V?$allocator@PAE@std@@@2@XZ ; std::_Deque_alloc<0,std::_Deque_base_types<unsigned char *,std::allocator<unsigned char *> > >::_Getal
  00063	8b c8		 mov	 ecx, eax
  00065	e8 00 00 00 00	 call	 ??$destroy@PAE@?$_Wrap_alloc@V?$allocator@PAE@std@@@std@@QAEXPAPAE@Z ; std::_Wrap_alloc<std::allocator<unsigned char *> >::destroy<unsigned char *>

; 1516 : 			if (--this->_Mysize == 0)

  0006a	8b 4d f8	 mov	 ecx, DWORD PTR _this$[ebp]
  0006d	8b 51 10	 mov	 edx, DWORD PTR [ecx+16]
  00070	83 ea 01	 sub	 edx, 1
  00073	89 55 f0	 mov	 DWORD PTR tv144[ebp], edx
  00076	8b 45 f8	 mov	 eax, DWORD PTR _this$[ebp]
  00079	8b 4d f0	 mov	 ecx, DWORD PTR tv144[ebp]
  0007c	89 48 10	 mov	 DWORD PTR [eax+16], ecx
  0007f	83 7d f0 00	 cmp	 DWORD PTR tv144[ebp], 0
  00083	75 0a		 jne	 SHORT $LN3@pop_back

; 1517 : 				this->_Myoff = 0;

  00085	8b 55 f8	 mov	 edx, DWORD PTR _this$[ebp]
  00088	c7 42 0c 00 00
	00 00		 mov	 DWORD PTR [edx+12], 0
$LN3@pop_back:

; 1518 : 			}
; 1519 :  #endif /* _ITERATOR_DEBUG_LEVEL == 2 */
; 1520 : 		}

  0008f	5e		 pop	 esi
  00090	8b e5		 mov	 esp, ebp
  00092	5d		 pop	 ebp
  00093	c3		 ret	 0
?pop_back@?$deque@PAEV?$allocator@PAE@std@@@std@@QAEXXZ ENDP ; std::deque<unsigned char *,std::allocator<unsigned char *> >::pop_back
_TEXT	ENDS
; Function compile flags: /Odtp
; File d:\program files\microsoft visual studio 11.0\vc\include\xmemory0
;	COMDAT ??0?$allocator@PAE@std@@QAE@XZ
_TEXT	SEGMENT
_this$ = -4						; size = 4
??0?$allocator@PAE@std@@QAE@XZ PROC			; std::allocator<unsigned char *>::allocator<unsigned char *>, COMDAT
; _this$ = ecx

; 565  : 	allocator() _THROW0()

  00000	55		 push	 ebp
  00001	8b ec		 mov	 ebp, esp
  00003	51		 push	 ecx
  00004	89 4d fc	 mov	 DWORD PTR _this$[ebp], ecx

; 566  : 		{	// construct default allocator (do nothing)
; 567  : 		}

  00007	8b 45 fc	 mov	 eax, DWORD PTR _this$[ebp]
  0000a	8b e5		 mov	 esp, ebp
  0000c	5d		 pop	 ebp
  0000d	c3		 ret	 0
??0?$allocator@PAE@std@@QAE@XZ ENDP			; std::allocator<unsigned char *>::allocator<unsigned char *>
_TEXT	ENDS
; Function compile flags: /Odtp
; File d:\program files\microsoft visual studio 11.0\vc\include\deque
;	COMDAT ??0?$_Deque_alloc@$0A@U?$_Deque_base_types@PAEV?$allocator@PAE@std@@@std@@@std@@QAE@ABV?$allocator@PAE@1@@Z
_TEXT	SEGMENT
_this$ = -16						; size = 4
__$EHRec$ = -12						; size = 12
___formal$ = 8						; size = 4
??0?$_Deque_alloc@$0A@U?$_Deque_base_types@PAEV?$allocator@PAE@std@@@std@@@std@@QAE@ABV?$allocator@PAE@1@@Z PROC ; std::_Deque_alloc<0,std::_Deque_base_types<unsigned char *,std::allocator<unsigned char *> > >::_Deque_alloc<0,std::_Deque_base_types<unsigned char *,std::allocator<unsigned char *> > >, COMDAT
; _this$ = ecx

; 877  : 	_Deque_alloc(const _Alloc& = _Alloc())

  00000	55		 push	 ebp
  00001	8b ec		 mov	 ebp, esp
  00003	6a ff		 push	 -1
  00005	68 00 00 00 00	 push	 __ehhandler$??0?$_Deque_alloc@$0A@U?$_Deque_base_types@PAEV?$allocator@PAE@std@@@std@@@std@@QAE@ABV?$allocator@PAE@1@@Z
  0000a	64 a1 00 00 00
	00		 mov	 eax, DWORD PTR fs:0
  00010	50		 push	 eax
  00011	51		 push	 ecx
  00012	a1 00 00 00 00	 mov	 eax, DWORD PTR ___security_cookie
  00017	33 c5		 xor	 eax, ebp
  00019	50		 push	 eax
  0001a	8d 45 f4	 lea	 eax, DWORD PTR __$EHRec$[ebp]
  0001d	64 a3 00 00 00
	00		 mov	 DWORD PTR fs:0, eax
  00023	89 4d f0	 mov	 DWORD PTR _this$[ebp], ecx
  00026	8b 4d f0	 mov	 ecx, DWORD PTR _this$[ebp]
  00029	e8 00 00 00 00	 call	 ??0?$_Deque_val@U?$_Deque_simple_types@PAE@std@@@std@@QAE@XZ ; std::_Deque_val<std::_Deque_simple_types<unsigned char *> >::_Deque_val<std::_Deque_simple_types<unsigned char *> >
  0002e	c7 45 fc 00 00
	00 00		 mov	 DWORD PTR __$EHRec$[ebp+8], 0

; 878  : 		{	// construct allocators from _Al
; 879  : 		_Alloc_proxy();

  00035	8b 4d f0	 mov	 ecx, DWORD PTR _this$[ebp]
  00038	e8 00 00 00 00	 call	 ?_Alloc_proxy@?$_Deque_alloc@$0A@U?$_Deque_base_types@PAEV?$allocator@PAE@std@@@std@@@std@@QAEXXZ ; std::_Deque_alloc<0,std::_Deque_base_types<unsigned char *,std::allocator<unsigned char *> > >::_Alloc_proxy

; 880  : 		}

  0003d	c7 45 fc ff ff
	ff ff		 mov	 DWORD PTR __$EHRec$[ebp+8], -1
  00044	8b 45 f0	 mov	 eax, DWORD PTR _this$[ebp]
  00047	8b 4d f4	 mov	 ecx, DWORD PTR __$EHRec$[ebp]
  0004a	64 89 0d 00 00
	00 00		 mov	 DWORD PTR fs:0, ecx
  00051	59		 pop	 ecx
  00052	8b e5		 mov	 esp, ebp
  00054	5d		 pop	 ebp
  00055	c2 04 00	 ret	 4
_TEXT	ENDS
;	COMDAT text$x
text$x	SEGMENT
__unwindfunclet$??0?$_Deque_alloc@$0A@U?$_Deque_base_types@PAEV?$allocator@PAE@std@@@std@@@std@@QAE@ABV?$allocator@PAE@1@@Z$0:
  00000	8b 4d f0	 mov	 ecx, DWORD PTR _this$[ebp]
  00003	e9 00 00 00 00	 jmp	 ??1?$_Deque_val@U?$_Deque_simple_types@PAE@std@@@std@@QAE@XZ
__ehhandler$??0?$_Deque_alloc@$0A@U?$_Deque_base_types@PAEV?$allocator@PAE@std@@@std@@@std@@QAE@ABV?$allocator@PAE@1@@Z:
  00008	8b 54 24 08	 mov	 edx, DWORD PTR [esp+8]
  0000c	8d 42 0c	 lea	 eax, DWORD PTR [edx+12]
  0000f	8b 4a f8	 mov	 ecx, DWORD PTR [edx-8]
  00012	33 c8		 xor	 ecx, eax
  00014	e8 00 00 00 00	 call	 @__security_check_cookie@4
  00019	b8 00 00 00 00	 mov	 eax, OFFSET __ehfuncinfo$??0?$_Deque_alloc@$0A@U?$_Deque_base_types@PAEV?$allocator@PAE@std@@@std@@@std@@QAE@ABV?$allocator@PAE@1@@Z
  0001e	e9 00 00 00 00	 jmp	 ___CxxFrameHandler3
text$x	ENDS
??0?$_Deque_alloc@$0A@U?$_Deque_base_types@PAEV?$allocator@PAE@std@@@std@@@std@@QAE@ABV?$allocator@PAE@1@@Z ENDP ; std::_Deque_alloc<0,std::_Deque_base_types<unsigned char *,std::allocator<unsigned char *> > >::_Deque_alloc<0,std::_Deque_base_types<unsigned char *,std::allocator<unsigned char *> > >
; Function compile flags: /Odtp
; File d:\program files\microsoft visual studio 11.0\vc\include\deque
;	COMDAT ?_Free_proxy@?$_Deque_alloc@$0A@U?$_Deque_base_types@PAEV?$allocator@PAE@std@@@std@@@std@@QAEXXZ
_TEXT	SEGMENT
_this$ = -12						; size = 4
__Alproxy$ = -5						; size = 1
__$ArrayPad$ = -4					; size = 4
?_Free_proxy@?$_Deque_alloc@$0A@U?$_Deque_base_types@PAEV?$allocator@PAE@std@@@std@@@std@@QAEXXZ PROC ; std::_Deque_alloc<0,std::_Deque_base_types<unsigned char *,std::allocator<unsigned char *> > >::_Free_proxy, COMDAT
; _this$ = ecx

; 906  : 		{	// destroy proxy

  00000	55		 push	 ebp
  00001	8b ec		 mov	 ebp, esp
  00003	83 ec 0c	 sub	 esp, 12			; 0000000cH
  00006	a1 00 00 00 00	 mov	 eax, DWORD PTR ___security_cookie
  0000b	33 c5		 xor	 eax, ebp
  0000d	89 45 fc	 mov	 DWORD PTR __$ArrayPad$[ebp], eax
  00010	89 4d f4	 mov	 DWORD PTR _this$[ebp], ecx

; 907  : 		typename _Alty::template rebind<_Container_proxy>::other
; 908  : 			_Alproxy;

  00013	8d 4d fb	 lea	 ecx, DWORD PTR __Alproxy$[ebp]
  00016	e8 00 00 00 00	 call	 ??0?$_Wrap_alloc@V?$allocator@U_Container_proxy@std@@@std@@@std@@QAE@XZ ; std::_Wrap_alloc<std::allocator<std::_Container_proxy> >::_Wrap_alloc<std::allocator<std::_Container_proxy> >

; 909  : 		this->_Orphan_all();

  0001b	8b 4d f4	 mov	 ecx, DWORD PTR _this$[ebp]
  0001e	ff 15 00 00 00
	00		 call	 DWORD PTR __imp_?_Orphan_all@_Container_base12@std@@QAEXXZ

; 910  : 		_Alproxy.destroy(this->_Myproxy);

  00024	8b 45 f4	 mov	 eax, DWORD PTR _this$[ebp]
  00027	8b 08		 mov	 ecx, DWORD PTR [eax]
  00029	51		 push	 ecx
  0002a	8d 4d fb	 lea	 ecx, DWORD PTR __Alproxy$[ebp]
  0002d	e8 00 00 00 00	 call	 ??$destroy@U_Container_proxy@std@@@?$_Wrap_alloc@V?$allocator@U_Container_proxy@std@@@std@@@std@@QAEXPAU_Container_proxy@1@@Z ; std::_Wrap_alloc<std::allocator<std::_Container_proxy> >::destroy<std::_Container_proxy>

; 911  : 		_Alproxy.deallocate(this->_Myproxy, 1);

  00032	6a 01		 push	 1
  00034	8b 55 f4	 mov	 edx, DWORD PTR _this$[ebp]
  00037	8b 02		 mov	 eax, DWORD PTR [edx]
  00039	50		 push	 eax
  0003a	8d 4d fb	 lea	 ecx, DWORD PTR __Alproxy$[ebp]
  0003d	e8 00 00 00 00	 call	 ?deallocate@?$_Wrap_alloc@V?$allocator@U_Container_proxy@std@@@std@@@std@@QAEXPAU_Container_proxy@2@I@Z ; std::_Wrap_alloc<std::allocator<std::_Container_proxy> >::deallocate

; 912  : 		this->_Myproxy = 0;

  00042	8b 4d f4	 mov	 ecx, DWORD PTR _this$[ebp]
  00045	c7 01 00 00 00
	00		 mov	 DWORD PTR [ecx], 0

; 913  : 		}

  0004b	8b 4d fc	 mov	 ecx, DWORD PTR __$ArrayPad$[ebp]
  0004e	33 cd		 xor	 ecx, ebp
  00050	e8 00 00 00 00	 call	 @__security_check_cookie@4
  00055	8b e5		 mov	 esp, ebp
  00057	5d		 pop	 ebp
  00058	c3		 ret	 0
?_Free_proxy@?$_Deque_alloc@$0A@U?$_Deque_base_types@PAEV?$allocator@PAE@std@@@std@@@std@@QAEXXZ ENDP ; std::_Deque_alloc<0,std::_Deque_base_types<unsigned char *,std::allocator<unsigned char *> > >::_Free_proxy
_TEXT	ENDS
; Function compile flags: /Odtp
; File d:\program files\microsoft visual studio 11.0\vc\include\deque
;	COMDAT ?_Getal@?$_Deque_alloc@$0A@U?$_Deque_base_types@PAEV?$allocator@PAE@std@@@std@@@std@@QBE?AU?$_Wrap_alloc@V?$allocator@PAE@std@@@2@XZ
_TEXT	SEGMENT
_this$ = -4						; size = 4
___$ReturnUdt$ = 8					; size = 4
?_Getal@?$_Deque_alloc@$0A@U?$_Deque_base_types@PAEV?$allocator@PAE@std@@@std@@@std@@QBE?AU?$_Wrap_alloc@V?$allocator@PAE@std@@@2@XZ PROC ; std::_Deque_alloc<0,std::_Deque_base_types<unsigned char *,std::allocator<unsigned char *> > >::_Getal, COMDAT
; _this$ = ecx

; 916  : 		{	// get reference to allocator

  00000	55		 push	 ebp
  00001	8b ec		 mov	 ebp, esp
  00003	51		 push	 ecx
  00004	89 4d fc	 mov	 DWORD PTR _this$[ebp], ecx

; 917  : 		return (_Alty());

  00007	8b 4d 08	 mov	 ecx, DWORD PTR ___$ReturnUdt$[ebp]
