; Listing generated by Microsoft (R) Optimizing Compiler Version 17.00.50727.1 

	TITLE	E:\work_wm\HXIJY_code\endoscopemfc2012_menu_changepara_youhua_savepic_USB_1114_twothread_svepic_save5\src\EndoScopeMFC\EndoScopeMFC.cpp
	.686P
	.XMM
	include listing.inc
	.model	flat

INCLUDELIB OLDNAMES

PUBLIC	_CLSID_CaptureGraphBuilder2
PUBLIC	_CLSID_FilterGraph
PUBLIC	_CLSID_VideoInputDeviceCategory
PUBLIC	_CLSID_SystemDeviceEnum
PUBLIC	_PIN_CATEGORY_CAPTURE
PUBLIC	_MEDIASUBTYPE_RGB24
PUBLIC	_MEDIATYPE_Video
PUBLIC	??_R2CEndoScopeMFCApp@@8			; CEndoScopeMFCApp::`RTTI Base Class Array'
PUBLIC	??_R2CWinApp@@8					; CWinApp::`RTTI Base Class Array'
PUBLIC	??_R2CWinThread@@8				; CWinThread::`RTTI Base Class Array'
PUBLIC	??_R1A@?0A@EA@CEndoScopeMFCApp@@8		; CEndoScopeMFCApp::`RTTI Base Class Descriptor at (0,-1,0,64)'
PUBLIC	??_R1A@?0A@EA@CWinApp@@8			; CWinApp::`RTTI Base Class Descriptor at (0,-1,0,64)'
PUBLIC	??_R1A@?0A@EA@CWinThread@@8			; CWinThread::`RTTI Base Class Descriptor at (0,-1,0,64)'
PUBLIC	??_R3CWinApp@@8					; CWinApp::`RTTI Class Hierarchy Descriptor'
PUBLIC	??_R0?AVCWinApp@@@8				; CWinApp `RTTI Type Descriptor'
PUBLIC	??_R3CWinThread@@8				; CWinThread::`RTTI Class Hierarchy Descriptor'
PUBLIC	??_R0?AVCWinThread@@@8				; CWinThread `RTTI Type Descriptor'
PUBLIC	??_R3CEndoScopeMFCApp@@8			; CEndoScopeMFCApp::`RTTI Class Hierarchy Descriptor'
PUBLIC	??_R0?AVCEndoScopeMFCApp@@@8			; CEndoScopeMFCApp `RTTI Type Descriptor'
PUBLIC	??_R4CEndoScopeMFCApp@@6B@			; CEndoScopeMFCApp::`RTTI Complete Object Locator'
PUBLIC	??_7CEndoScopeMFCApp@@6B@			; CEndoScopeMFCApp::`vftable'
PUBLIC	_CLSID_IVideoEncoderCodecAPIProxy
PUBLIC	_CLSID_ICodecAPIProxy
PUBLIC	_CLSID_IVideoEncoderProxy
PUBLIC	_CLSID_TVEFilterStatsProperties
PUBLIC	_CLSID_TVEFilterCCProperties
PUBLIC	_CLSID_TVEFilterTuneProperties
PUBLIC	_CLSID_DShowTVEFilter
PUBLIC	_CLSID_DVBCNetworkProvider
PUBLIC	_CLSID_DVBTNetworkProvider
PUBLIC	_CLSID_DVBSNetworkProvider
PUBLIC	_CLSID_ATSCNetworkPropertyPage
PUBLIC	_CLSID_ATSCNetworkProvider
PUBLIC	_CLSID_VideoMixingRenderer9
PUBLIC	_CLSID_VideoPortManager
PUBLIC	_CLSID_AllocPresenterDDXclMode
PUBLIC	_CLSID_AllocPresenter
PUBLIC	_CLSID_VideoRendererDefault
PUBLIC	_CLSID_VideoMixingRenderer
PUBLIC	_CLSID_AudioRendererAdvancedProperties
PUBLIC	_CLSID_VideoStreamConfigPropertyPage
PUBLIC	_CLSID_AnalogVideoDecoderPropertyPage
PUBLIC	_CLSID_CameraControlPropertyPage
PUBLIC	_CLSID_VideoProcAmpPropertyPage
PUBLIC	_CLSID_TVAudioFilterPropertyPage
PUBLIC	_CLSID_CrossbarFilterPropertyPage
PUBLIC	_CLSID_TVTunerFilterPropertyPage
PUBLIC	_LOOK_DOWNSTREAM_ONLY
PUBLIC	_LOOK_UPSTREAM_ONLY
PUBLIC	_PIN_CATEGORY_VIDEOPORT_VBI
PUBLIC	_PIN_CATEGORY_TIMECODE
PUBLIC	_PIN_CATEGORY_STILL
PUBLIC	_PIN_CATEGORY_CC
PUBLIC	_PIN_CATEGORY_TELETEXT
PUBLIC	_PIN_CATEGORY_EDS
PUBLIC	_PIN_CATEGORY_NABTS
PUBLIC	_PIN_CATEGORY_VIDEOPORT
PUBLIC	_PIN_CATEGORY_VBI
PUBLIC	_PIN_CATEGORY_ANALOGVIDEOIN
PUBLIC	_PIN_CATEGORY_PREVIEW
PUBLIC	_AMPROPSETID_Pin
PUBLIC	_TIME_FORMAT_MEDIA_TIME
PUBLIC	_TIME_FORMAT_FIELD
PUBLIC	_TIME_FORMAT_SAMPLE
PUBLIC	_TIME_FORMAT_BYTE
PUBLIC	_TIME_FORMAT_FRAME
PUBLIC	_TIME_FORMAT_NONE
PUBLIC	_AM_INTERFACESETID_Standard
PUBLIC	_IID_IKsPinFactory
PUBLIC	_IID_IKsControl
PUBLIC	_IID_IKsPin
PUBLIC	_IID_IKsDataTypeHandler
PUBLIC	_IID_IKsInterfaceHandler
PUBLIC	_AM_KSCATEGORY_SPLITTER
PUBLIC	_AM_KSCATEGORY_VBICODEC
PUBLIC	_AM_KSCATEGORY_TVAUDIO
PUBLIC	_AM_KSCATEGORY_CROSSBAR
PUBLIC	_AM_KSCATEGORY_TVTUNER
PUBLIC	_AM_KSCATEGORY_VIDEO
PUBLIC	_AM_KSCATEGORY_AUDIO
PUBLIC	_AM_KSCATEGORY_DATACOMPRESSOR
PUBLIC	_AM_KSCATEGORY_RENDER
PUBLIC	_AM_KSCATEGORY_CAPTURE
PUBLIC	_AM_KSPROPSETID_FrameStep
PUBLIC	_AM_KSPROPSETID_DvdKaraoke
PUBLIC	_AM_KSPROPSETID_DVD_RateChange
PUBLIC	_AM_KSPROPSETID_TSRateChange
PUBLIC	_AM_KSPROPSETID_CopyProt
PUBLIC	_AM_KSPROPSETID_DvdSubPic
PUBLIC	_AM_KSPROPSETID_AC3
PUBLIC	_FORMAT_DVD_LPCMAudio
PUBLIC	_FORMAT_MPEG2Audio
PUBLIC	_FORMAT_DolbyAC3
PUBLIC	_FORMAT_MPEG2Video
PUBLIC	_MEDIASUBTYPE_DVD_NAVIGATION_PROVIDER
PUBLIC	_MEDIASUBTYPE_DVD_NAVIGATION_DSI
PUBLIC	_MEDIASUBTYPE_DVD_NAVIGATION_PCI
PUBLIC	_MEDIATYPE_DVD_NAVIGATION
PUBLIC	_MEDIATYPE_DVD_ENCRYPTED_PACK
PUBLIC	_MEDIASUBTYPE_SDDS
PUBLIC	_MEDIASUBTYPE_DTS
PUBLIC	_MEDIASUBTYPE_DVD_LPCM_AUDIO
PUBLIC	_MEDIASUBTYPE_DVD_SUBPICTURE
PUBLIC	_MEDIASUBTYPE_DOLBY_AC3
PUBLIC	_MEDIASUBTYPE_MPEG2_AUDIO
PUBLIC	_MEDIASUBTYPE_MPEG2_TRANSPORT_STRIDE
PUBLIC	_MEDIASUBTYPE_MPEG2_TRANSPORT
PUBLIC	_MEDIASUBTYPE_MPEG2_PROGRAM
PUBLIC	_FORMAT_VIDEOINFO2
PUBLIC	_FORMAT_MPEG2_VIDEO
PUBLIC	_MEDIASUBTYPE_MPEG2_VIDEO
PUBLIC	_MEDIASUBTYPE_MPEG2DATA
PUBLIC	_MEDIASUBTYPE_DVB_SI
PUBLIC	_MEDIASUBTYPE_ATSC_SI
PUBLIC	_MEDIATYPE_MPEG2_SECTIONS
PUBLIC	_MEDIATYPE_MPEG2_PES
PUBLIC	_MEDIATYPE_MPEG2_PACK
PUBLIC	_MEDIATYPE_AnalogAudio
PUBLIC	_MEDIASUBTYPE_AnalogVideo_SECAM_L
PUBLIC	_MEDIASUBTYPE_AnalogVideo_SECAM_K1
PUBLIC	_MEDIASUBTYPE_AnalogVideo_SECAM_K
PUBLIC	_MEDIASUBTYPE_AnalogVideo_SECAM_H
PUBLIC	_MEDIASUBTYPE_AnalogVideo_SECAM_G
PUBLIC	_MEDIASUBTYPE_AnalogVideo_SECAM_D
PUBLIC	_MEDIASUBTYPE_AnalogVideo_SECAM_B
PUBLIC	_MEDIASUBTYPE_AnalogVideo_PAL_N_COMBO
PUBLIC	_MEDIASUBTYPE_AnalogVideo_PAL_N
PUBLIC	_MEDIASUBTYPE_AnalogVideo_PAL_M
PUBLIC	_MEDIASUBTYPE_AnalogVideo_PAL_I
PUBLIC	_MEDIASUBTYPE_AnalogVideo_PAL_H
PUBLIC	_MEDIASUBTYPE_AnalogVideo_PAL_G
PUBLIC	_MEDIASUBTYPE_AnalogVideo_PAL_D
PUBLIC	_MEDIASUBTYPE_AnalogVideo_PAL_B
PUBLIC	_MEDIASUBTYPE_AnalogVideo_NTSC_M
PUBLIC	_MEDIATYPE_AnalogVideo
PUBLIC	_FORMAT_AnalogVideo
PUBLIC	_CLSID_WstDecoderPropertyPage
PUBLIC	_IID_IAMWstDecoder
PUBLIC	_IID_IAMLine21Decoder
PUBLIC	_IID_IMpegAudioDecoder
PUBLIC	_IID_IAMDirectSound
PUBLIC	_CLSID_DVMuxPropertyPage
PUBLIC	_CLSID_DVEncPropertiesPage
PUBLIC	_CLSID_DVDecPropertiesPage
PUBLIC	_IID_IFullScreenVideoEx
PUBLIC	_IID_IFullScreenVideo
PUBLIC	_CLSID_ModexProperties
PUBLIC	_IID_IDirectDrawSurfaceKernel
PUBLIC	_IID_IDirectDrawKernel
PUBLIC	_IID_IDDVideoPortContainer
PUBLIC	_IID_IMixerPinConfig2
PUBLIC	_IID_IMixerPinConfig
PUBLIC	_IID_IVPVBINotify
PUBLIC	_IID_IVPVBIConfig
PUBLIC	_IID_IVPNotify2
PUBLIC	_IID_IVPNotify
PUBLIC	_IID_IVPConfig
PUBLIC	_IID_IVPVBIObject
PUBLIC	_CLSID_VPVBIObject
PUBLIC	_IID_IVPControl
PUBLIC	_IID_IVPObject
PUBLIC	_CLSID_VPObject
PUBLIC	_IID_IQualProp
PUBLIC	_IID_IDirectDrawVideo
PUBLIC	_IID_IBaseVideoMixer
PUBLIC	_CLSID_QualityProperties
PUBLIC	_CLSID_PerformanceProperties
PUBLIC	_CLSID_DirectDrawProperties
PUBLIC	_FORMAT_DvInfo
PUBLIC	_FORMAT_MPEGStreams
PUBLIC	_FORMAT_MPEGVideo
PUBLIC	_FORMAT_WaveFormatEx
PUBLIC	_FORMAT_VideoInfo2
PUBLIC	_FORMAT_VideoInfo
PUBLIC	_FORMAT_None
PUBLIC	_CLSID_SmartTee
PUBLIC	_CLSID_DVDState
PUBLIC	_CLSID_DVDNavigator
PUBLIC	_CLSID_DvdGraphBuilder
PUBLIC	_CLSID_MediaPropertyBag
PUBLIC	_CLSID_MemoryAllocator
PUBLIC	_CLSID_FilterMapper2
PUBLIC	_CLSID_MediaMultiplexerCategory
PUBLIC	_CLSID_MediaEncoderCategory
PUBLIC	_CLSID_DVDHWDecodersCategory
PUBLIC	_CLSID_ActiveMovieCategories
PUBLIC	_CLSID_DeviceControlCategory
PUBLIC	_CLSID_TransmitCategory
PUBLIC	_CLSID_CMidiOutClassManager
PUBLIC	_CLSID_MidiRendererCategory
PUBLIC	_CLSID_CWaveOutClassManager
PUBLIC	_CLSID_AudioRendererCategory
PUBLIC	_CLSID_CWaveinClassManager
PUBLIC	_CLSID_AudioInputDeviceCategory
PUBLIC	_CLSID_CAcmCoClassManager
PUBLIC	_CLSID_AudioCompressorCategory
PUBLIC	_CLSID_CIcmCoClassManager
PUBLIC	_CLSID_VideoCompressorCategory
PUBLIC	_CLSID_CQzFilterClassManager
PUBLIC	_CLSID_LegacyAmFilterCategory
PUBLIC	_CLSID_CVidCapClassManager
PUBLIC	_CLSID_CDeviceMoniker
PUBLIC	_CLSID_MJPGEnc
PUBLIC	_CLSID_MjpegDec
PUBLIC	_CLSID_WSTDecoder
PUBLIC	_CLSID_VBISurfaces
PUBLIC	_CLSID_OverlayMixer
PUBLIC	_CLSID_Line21Decoder2
PUBLIC	_CLSID_Line21Decoder
PUBLIC	_CLSID_SeekingPassThru
PUBLIC	_CLSID_DVMux
PUBLIC	_CLSID_DVSplitter
PUBLIC	_CLSID_DVVideoEnc
PUBLIC	_CLSID_DVVideoCodec
PUBLIC	_CLSID_StreamBufferComposeRecording
PUBLIC	_CLSID_StreamBufferRecordingAttributes
PUBLIC	_CLSID_Mpeg2VideoStreamAnalyzer
PUBLIC	_CLSID_StreamBufferConfig
PUBLIC	_CLSID_StreamBufferSource
PUBLIC	_CLSID_StreamBufferSink
PUBLIC	_CLSID_MMSPLITTER
PUBLIC	_CLSID_MPEG2Demultiplexer
PUBLIC	_CLSID_WMAsfWriter
PUBLIC	_CLSID_WMAsfReader
PUBLIC	_CLSID_AVIMIDIRender
PUBLIC	_CLSID_AviMuxProptyPage1
PUBLIC	_CLSID_AviMuxProptyPage
PUBLIC	_CLSID_AviDest
PUBLIC	_CLSID_FileWriter
PUBLIC	_CLSID_AVICo
PUBLIC	_CLSID_PersistMonikerPID
PUBLIC	_CLSID_URLReader
PUBLIC	_CLSID_AsyncReader
PUBLIC	_CLSID_ACMWrapper
PUBLIC	_CLSID_AVIDraw
PUBLIC	_CLSID_AVIDec
PUBLIC	_CLSID_AudioInputMixerProperties
PUBLIC	_CLSID_AudioRecord
PUBLIC	_CLSID_DSoundRender
PUBLIC	_CLSID_AudioProperties
PUBLIC	_CLSID_AudioRender
PUBLIC	_CLSID_ModexRenderer
PUBLIC	_CLSID_Dither
PUBLIC	_CLSID_Colour
PUBLIC	_CLSID_VideoRenderer
PUBLIC	_CLSID_AVIDoc
PUBLIC	_CLSID_QTDec
PUBLIC	_CLSID_QuickTimeParser
PUBLIC	_CLSID_MOVReader
PUBLIC	_CLSID_FGControl
PUBLIC	_CLSID_CaptureProperties
PUBLIC	_CLSID_VfwCapture
PUBLIC	_CLSID_AviReader
PUBLIC	_CLSID_AviSplitter
PUBLIC	_CLSID_InfTee
PUBLIC	_CLSID_TextRender
PUBLIC	_CLSID_CMpegAudioCodec
PUBLIC	_CLSID_CMpegVideoCodec
PUBLIC	_CLSID_MPEG1Splitter
PUBLIC	_CLSID_MPEG1PacketPlayer
PUBLIC	_CLSID_FileSource
PUBLIC	_CLSID_MPEG1Doc
PUBLIC	_CLSID_FilterGraphNoThread
PUBLIC	_CLSID_FilterMapper
PUBLIC	_CLSID_SystemClock
PUBLIC	_CLSID_ProtoFilterGraph
PUBLIC	_CLSID_CaptureGraphBuilder
PUBLIC	_MEDIASUBTYPE_VPVBI
PUBLIC	_MEDIASUBTYPE_VPVideo
PUBLIC	_MEDIASUBTYPE_DssAudio
PUBLIC	_MEDIASUBTYPE_DssVideo
PUBLIC	_MEDIASUBTYPE_SPDIF_TAG_241h
PUBLIC	_MEDIASUBTYPE_RAW_SPORT
PUBLIC	_MEDIASUBTYPE_DOLBY_AC3_SPDIF
PUBLIC	_MEDIASUBTYPE_IEEE_FLOAT
PUBLIC	_MEDIASUBTYPE_DRM_Audio
PUBLIC	_MEDIASUBTYPE_TELETEXT
PUBLIC	_MEDIASUBTYPE_Line21_VBIRawData
PUBLIC	_MEDIASUBTYPE_Line21_GOPPacket
PUBLIC	_MEDIASUBTYPE_Line21_BytePair
PUBLIC	_MEDIASUBTYPE_dvh1
PUBLIC	_MEDIASUBTYPE_dv50
PUBLIC	_MEDIASUBTYPE_dv25
PUBLIC	_MEDIASUBTYPE_dvsl
PUBLIC	_MEDIASUBTYPE_dvhd
PUBLIC	_MEDIASUBTYPE_dvsd
PUBLIC	_MEDIASUBTYPE_AIFF
PUBLIC	_MEDIASUBTYPE_AU
PUBLIC	_MEDIASUBTYPE_WAVE
PUBLIC	_MEDIASUBTYPE_PCM
PUBLIC	_MEDIASUBTYPE_PCMAudio_Obsolete
PUBLIC	_MEDIASUBTYPE_QTJpeg
PUBLIC	_MEDIASUBTYPE_QTRle
PUBLIC	_MEDIASUBTYPE_QTSmc
PUBLIC	_MEDIASUBTYPE_QTRpza
PUBLIC	_MEDIASUBTYPE_QTMovie
PUBLIC	_MEDIASUBTYPE_Asf
PUBLIC	_MEDIASUBTYPE_Avi
PUBLIC	_MEDIASUBTYPE_MPEG1Audio
PUBLIC	_MEDIASUBTYPE_MPEG1Video
PUBLIC	_MEDIASUBTYPE_MPEG1VideoCD
PUBLIC	_MEDIASUBTYPE_MPEG1System
PUBLIC	_MEDIATYPE_MPEG1SystemStream
PUBLIC	_MEDIASUBTYPE_MPEG1AudioPayload
PUBLIC	_MEDIASUBTYPE_MPEG1Payload
PUBLIC	_MEDIASUBTYPE_MPEG1Packet
PUBLIC	_MEDIASUBTYPE_Overlay
PUBLIC	_MEDIASUBTYPE_S342
PUBLIC	_MEDIASUBTYPE_S340
PUBLIC	_MEDIASUBTYPE_IMC4
PUBLIC	_MEDIASUBTYPE_IMC3
PUBLIC	_MEDIASUBTYPE_IMC2
PUBLIC	_MEDIASUBTYPE_IMC1
PUBLIC	_MEDIASUBTYPE_NV12
PUBLIC	_MEDIASUBTYPE_YV12
PUBLIC	_MEDIASUBTYPE_ARGB1555_D3D_DX9_RT
PUBLIC	_MEDIASUBTYPE_ARGB4444_D3D_DX9_RT
PUBLIC	_MEDIASUBTYPE_ARGB32_D3D_DX9_RT
PUBLIC	_MEDIASUBTYPE_RGB16_D3D_DX9_RT
PUBLIC	_MEDIASUBTYPE_RGB32_D3D_DX9_RT
PUBLIC	_MEDIASUBTYPE_ARGB1555_D3D_DX7_RT
PUBLIC	_MEDIASUBTYPE_ARGB4444_D3D_DX7_RT
PUBLIC	_MEDIASUBTYPE_ARGB32_D3D_DX7_RT
PUBLIC	_MEDIASUBTYPE_RGB16_D3D_DX7_RT
PUBLIC	_MEDIASUBTYPE_RGB32_D3D_DX7_RT
PUBLIC	_MEDIASUBTYPE_IA44
PUBLIC	_MEDIASUBTYPE_AI44
PUBLIC	_MEDIASUBTYPE_AYUV
PUBLIC	_MEDIASUBTYPE_A2B10G10R10
PUBLIC	_MEDIASUBTYPE_A2R10G10B10
PUBLIC	_MEDIASUBTYPE_ARGB32
PUBLIC	_MEDIASUBTYPE_ARGB4444
PUBLIC	_MEDIASUBTYPE_ARGB1555
PUBLIC	_MEDIASUBTYPE_RGB32
PUBLIC	_MEDIASUBTYPE_RGB555
PUBLIC	_MEDIASUBTYPE_RGB565
PUBLIC	_MEDIASUBTYPE_RGB8
PUBLIC	_MEDIASUBTYPE_RGB4
PUBLIC	_MEDIASUBTYPE_RGB1
PUBLIC	_MEDIASUBTYPE_MDVF
PUBLIC	_MEDIASUBTYPE_DVSD
PUBLIC	_MEDIASUBTYPE_DVCS
PUBLIC	_MEDIASUBTYPE_Plum
PUBLIC	_MEDIASUBTYPE_IJPG
PUBLIC	_MEDIASUBTYPE_CFCC
PUBLIC	_MEDIASUBTYPE_WAKE
PUBLIC	_MEDIASUBTYPE_TVMJ
PUBLIC	_MEDIASUBTYPE_MJPG
PUBLIC	_MEDIASUBTYPE_CPLA
PUBLIC	_MEDIASUBTYPE_IF09
PUBLIC	_MEDIASUBTYPE_CLJR
PUBLIC	_MEDIASUBTYPE_Y211
PUBLIC	_MEDIASUBTYPE_UYVY
PUBLIC	_MEDIASUBTYPE_YVYU
PUBLIC	_MEDIASUBTYPE_YUY2
PUBLIC	_MEDIASUBTYPE_Y41P
PUBLIC	_MEDIASUBTYPE_Y411
PUBLIC	_MEDIASUBTYPE_YVU9
PUBLIC	_MEDIASUBTYPE_IYUV
PUBLIC	_MEDIASUBTYPE_YUYV
PUBLIC	_MEDIASUBTYPE_CLPL
PUBLIC	_MEDIATYPE_URL_STREAM
PUBLIC	_MEDIATYPE_LMRT
PUBLIC	_MEDIATYPE_Timecode
PUBLIC	_MEDIATYPE_VBI
PUBLIC	_MEDIATYPE_AUXLine21Data
PUBLIC	_MEDIATYPE_ScriptCommand
PUBLIC	_MEDIATYPE_File
PUBLIC	_MEDIATYPE_Interleaved
PUBLIC	_MEDIATYPE_Stream
PUBLIC	_MEDIATYPE_Midi
PUBLIC	_MEDIATYPE_Text
PUBLIC	_MEDIATYPE_Audio
PUBLIC	_MEDIASUBTYPE_None
PUBLIC	_IID_DecoderSet
PUBLIC	_CLSID_MWCC708Decoder
EXTRN	?GetProfileBinary@CWinApp@@UAEHPBD0PAPAEPAI@Z:PROC ; CWinApp::GetProfileBinary
EXTRN	?WriteProfileStringA@CWinApp@@UAEHPBD00@Z:PROC	; CWinApp::WriteProfileStringA
EXTRN	?GetProfileStringA@CWinApp@@UAE?AV?$CStringT@DV?$StrTraitMFC_DLL@DV?$ChTraitsCRT@D@ATL@@@@@ATL@@PBD00@Z:PROC ; CWinApp::GetProfileStringA
EXTRN	?WriteProfileInt@CWinApp@@UAEHPBD0H@Z:PROC	; CWinApp::WriteProfileInt
EXTRN	?GetProfileIntA@CWinApp@@UAEIPBD0H@Z:PROC	; CWinApp::GetProfileIntA
EXTRN	?Delete@CWinThread@@UAEXXZ:PROC			; CWinThread::Delete
EXTRN	?GetMainWnd@CWinThread@@UAEPAVCWnd@@XZ:PROC	; CWinThread::GetMainWnd
EXTRN	?ProcessMessageFilter@CWinThread@@UAEHHPAUtagMSG@@@Z:PROC ; CWinThread::ProcessMessageFilter
EXTRN	?ProcessWndProcException@CWinApp@@UAEJPAVCException@@PBUtagMSG@@@Z:PROC ; CWinApp::ProcessWndProcException
EXTRN	?IsIdleMessage@CWinThread@@UAEHPAUtagMSG@@@Z:PROC ; CWinThread::IsIdleMessage
EXTRN	?OnIdle@CWinApp@@UAEHJ@Z:PROC			; CWinApp::OnIdle
EXTRN	?PumpMessage@CWinThread@@UAEHXZ:PROC		; CWinThread::PumpMessage
EXTRN	?PreTranslateMessage@CWinThread@@UAEHPAUtagMSG@@@Z:PROC ; CWinThread::PreTranslateMessage
EXTRN	?Run@CWinApp@@UAEHXZ:PROC			; CWinApp::Run
EXTRN	?GetInterfaceMap@CCmdTarget@@MBEPBUAFX_INTERFACEMAP@@XZ:PROC ; CCmdTarget::GetInterfaceMap
EXTRN	?OnFinalRelease@CCmdTarget@@UAEXXZ:PROC		; CCmdTarget::OnFinalRelease
EXTRN	?GetRuntimeClass@CWinApp@@UBEPAUCRuntimeClass@@XZ:PROC ; CWinApp::GetRuntimeClass
EXTRN	?LoadSysPolicies@CWinApp@@UAEHXZ:PROC		; CWinApp::LoadSysPolicies
EXTRN	?LoadAppLangResourceDLL@CWinApp@@UAEPAUHINSTANCE__@@XZ:PROC ; CWinApp::LoadAppLangResourceDLL
EXTRN	?RestartInstance@CWinApp@@UAEHXZ:PROC		; CWinApp::RestartInstance
EXTRN	?IsTaskbarInteractionEnabled@CWinApp@@UAEHXZ:PROC ; CWinApp::IsTaskbarInteractionEnabled
EXTRN	?GetThisMessageMap@CWinApp@@KGPBUAFX_MSGMAP@@XZ:PROC ; CWinApp::GetThisMessageMap
EXTRN	?GetDataRecoveryHandler@CWinApp@@UAEPAVCDataRecoveryHandler@@XZ:PROC ; CWinApp::GetDataRecoveryHandler
EXTRN	?OnHelp@CWinApp@@IAEXXZ:PROC			; CWinApp::OnHelp
EXTRN	?ApplicationRecoveryCallback@CWinApp@@UAEKPAX@Z:PROC ; CWinApp::ApplicationRecoveryCallback
EXTRN	?RegisterWithRestartManager@CWinApp@@UAEJHABV?$CStringT@DV?$StrTraitMFC_DLL@DV?$ChTraitsCRT@D@ATL@@@@@ATL@@@Z:PROC ; CWinApp::RegisterWithRestartManager
EXTRN	?RegisterWithRestartManager@CWinApp@@UAEJPB_WKP6GKPAX@Z1KK@Z:PROC ; CWinApp::RegisterWithRestartManager
EXTRN	?WinHelpInternal@CWinApp@@UAEXKI@Z:PROC		; CWinApp::WinHelpInternal
EXTRN	?HtmlHelpA@CWinApp@@UAEXKI@Z:PROC		; CWinApp::HtmlHelpA
EXTRN	?WinHelpA@CWinApp@@UAEXKI@Z:PROC		; CWinApp::WinHelpA
EXTRN	?OnDDECommand@CWinApp@@UAEHPAD@Z:PROC		; CWinApp::OnDDECommand
EXTRN	?DoWaitCursor@CWinApp@@UAEXH@Z:PROC		; CWinApp::DoWaitCursor
EXTRN	?DoMessageBox@CWinApp@@UAEHPBDII@Z:PROC		; CWinApp::DoMessageBox
EXTRN	?SaveAllModified@CWinApp@@UAEHXZ:PROC		; CWinApp::SaveAllModified
EXTRN	?InitApplication@CWinApp@@UAEHXZ:PROC		; CWinApp::InitApplication
EXTRN	?AddToRecentFileList@CWinApp@@UAEXPBD@Z:PROC	; CWinApp::AddToRecentFileList
EXTRN	?OpenDocumentFile@CWinApp@@UAEPAVCDocument@@PBD@Z:PROC ; CWinApp::OpenDocumentFile
EXTRN	?OpenDocumentFile@CWinApp@@UAEPAVCDocument@@PBDH@Z:PROC ; CWinApp::OpenDocumentFile
EXTRN	?Unregister@CWinApp@@UAEHXZ:PROC		; CWinApp::Unregister
EXTRN	?Register@CWinApp@@UAEHXZ:PROC			; CWinApp::Register
EXTRN	?InitLibId@CWinApp@@UAEXXZ:PROC			; CWinApp::InitLibId
EXTRN	?WriteProfileBinary@CWinApp@@UAEHPBD0PAEI@Z:PROC ; CWinApp::WriteProfileBinary
EXTRN	__imp_?LoadSysPolicies@CWinApp@@UAEHXZ:PROC
EXTRN	__imp_?LoadAppLangResourceDLL@CWinApp@@UAEPAUHINSTANCE__@@XZ:PROC
EXTRN	__imp_?RestartInstance@CWinApp@@UAEHXZ:PROC
EXTRN	__imp_?IsTaskbarInteractionEnabled@CWinApp@@UAEHXZ:PROC
EXTRN	__imp_?GetDataRecoveryHandler@CWinApp@@UAEPAVCDataRecoveryHandler@@XZ:PROC
EXTRN	__imp_?ApplicationRecoveryCallback@CWinApp@@UAEKPAX@Z:PROC
EXTRN	__imp_?RegisterWithRestartManager@CWinApp@@UAEJHABV?$CStringT@DV?$StrTraitMFC_DLL@DV?$ChTraitsCRT@D@ATL@@@@@ATL@@@Z:PROC
EXTRN	__imp_?RegisterWithRestartManager@CWinApp@@UAEJPB_WKP6GKPAX@Z1KK@Z:PROC
EXTRN	__imp_?WinHelpInternal@CWinApp@@UAEXKI@Z:PROC
EXTRN	__imp_?HtmlHelpA@CWinApp@@UAEXKI@Z:PROC
EXTRN	__imp_?WinHelpA@CWinApp@@UAEXKI@Z:PROC
EXTRN	__imp_?OnDDECommand@CWinApp@@UAEHPAD@Z:PROC
EXTRN	__imp_?DoWaitCursor@CWinApp@@UAEXH@Z:PROC
EXTRN	__imp_?DoMessageBox@CWinApp@@UAEHPBDII@Z:PROC
EXTRN	__imp_?SaveAllModified@CWinApp@@UAEHXZ:PROC
EXTRN	__imp_?InitApplication@CWinApp@@UAEHXZ:PROC
EXTRN	__imp_?AddToRecentFileList@CWinApp@@UAEXPBD@Z:PROC
EXTRN	__imp_?OpenDocumentFile@CWinApp@@UAEPAVCDocument@@PBD@Z:PROC
EXTRN	__imp_?OpenDocumentFile@CWinApp@@UAEPAVCDocument@@PBDH@Z:PROC
EXTRN	__imp_?Unregister@CWinApp@@UAEHXZ:PROC
EXTRN	__imp_?Register@CWinApp@@UAEHXZ:PROC
EXTRN	__imp_?InitLibId@CWinApp@@UAEXXZ:PROC
EXTRN	__imp_?WriteProfileBinary@CWinApp@@UAEHPBD0PAEI@Z:PROC
EXTRN	__imp_?GetProfileBinary@CWinApp@@UAEHPBD0PAPAEPAI@Z:PROC
EXTRN	__imp_?WriteProfileStringA@CWinApp@@UAEHPBD00@Z:PROC
EXTRN	__imp_?GetProfileStringA@CWinApp@@UAE?AV?$CStringT@DV?$StrTraitMFC_DLL@DV?$ChTraitsCRT@D@ATL@@@@@ATL@@PBD00@Z:PROC
EXTRN	__imp_?WriteProfileInt@CWinApp@@UAEHPBD0H@Z:PROC
EXTRN	__imp_?GetProfileIntA@CWinApp@@UAEIPBD0H@Z:PROC
EXTRN	__imp_?Delete@CWinThread@@UAEXXZ:PROC
EXTRN	__imp_?GetMainWnd@CWinThread@@UAEPAVCWnd@@XZ:PROC
EXTRN	__imp_?ProcessMessageFilter@CWinThread@@UAEHHPAUtagMSG@@@Z:PROC
EXTRN	__imp_?ProcessWndProcException@CWinApp@@UAEJPAVCException@@PBUtagMSG@@@Z:PROC
EXTRN	__imp_?IsIdleMessage@CWinThread@@UAEHPAUtagMSG@@@Z:PROC
EXTRN	__imp_?OnIdle@CWinApp@@UAEHJ@Z:PROC
EXTRN	__imp_?PumpMessage@CWinThread@@UAEHXZ:PROC
EXTRN	__imp_?PreTranslateMessage@CWinThread@@UAEHPAUtagMSG@@@Z:PROC
EXTRN	__imp_?Run@CWinApp@@UAEHXZ:PROC
EXTRN	__imp_?GetInterfaceMap@CCmdTarget@@MBEPBUAFX_INTERFACEMAP@@XZ:PROC
EXTRN	__imp_?OnFinalRelease@CCmdTarget@@UAEXXZ:PROC
EXTRN	__imp_?GetRuntimeClass@CWinApp@@UBEPAUCRuntimeClass@@XZ:PROC
EXTRN	__imp_?ExitInstance@CWinApp@@UAEHXZ:PROC
EXTRN	__imp__CoUninitialize@0:PROC
EXTRN	__imp_?SetRegistryKey@CWinApp@@IAEXPBD@Z:PROC
EXTRN	__imp_?GetThisClass@CMFCVisualManagerWindows@@SGPAUCRuntimeClass@@XZ:PROC
EXTRN	__imp_?SetDefaultManager@CMFCVisualManager@@SGXPAUCRuntimeClass@@@Z:PROC
EXTRN	__imp_??0CShellManager@@QAE@XZ:PROC
EXTRN	__imp_?AfxEnableControlContainer@@YAXPAVCOccManager@@@Z:PROC
EXTRN	__imp__CoInitialize@4:PROC
EXTRN	__imp__SetUnhandledExceptionFilter@4:PROC
EXTRN	__imp_?InitInstance@CWinApp@@UAEHXZ:PROC
EXTRN	__imp__InitCommonControlsEx@4:PROC
EXTRN	__imp__MiniDumpWriteDump@28:PROC
EXTRN	__imp__GetCurrentThreadId@0:PROC
EXTRN	__imp__CreateFileA@28:PROC
EXTRN	__imp__GetCurrentProcessId@0:PROC
EXTRN	__imp__GetCurrentProcess@0:PROC
EXTRN	__imp_??1CWinApp@@UAE@XZ:PROC
EXTRN	__imp_??0CWinApp@@QAE@PBD@Z:PROC
EXTRN	__imp_?GetThisMessageMap@CWinApp@@KGPBUAFX_MSGMAP@@XZ:PROC
EXTRN	__imp_?OnHelp@CWinApp@@IAEXXZ:PROC
EXTRN	__imp__CloseHandle@4:PROC
;	COMDAT _CLSID_MWCC708Decoder
CONST	SEGMENT
_CLSID_MWCC708Decoder DD 07690ca55H
	DW	02542H
	DW	04bb5H
	DB	0a1H
	DB	033H
	DB	05aH
	DB	02fH
	DB	0abH
	DB	0beH
	DB	0a3H
	DB	06aH
CONST	ENDS
;	COMDAT _IID_DecoderSet
CONST	SEGMENT
_IID_DecoderSet DD 019434c39H
	DW	0d9baH
	DW	047caH
	DB	084H
	DB	0e0H
	DB	0bcH
	DB	09dH
	DB	02aH
	DB	0bdH
	DB	09aH
	DB	01eH
CONST	ENDS
;	COMDAT _MEDIASUBTYPE_None
CONST	SEGMENT
_MEDIASUBTYPE_None DD 0e436eb8eH
	DW	0524fH
	DW	011ceH
	DB	09fH
	DB	053H
	DB	00H
	DB	020H
	DB	0afH
	DB	0bH
	DB	0a7H
	DB	070H
CONST	ENDS
;	COMDAT _MEDIATYPE_Audio
CONST	SEGMENT
_MEDIATYPE_Audio DD 073647561H
	DW	00H
	DW	010H
	DB	080H
	DB	00H
	DB	00H
	DB	0aaH
	DB	00H
	DB	038H
	DB	09bH
	DB	071H
CONST	ENDS
;	COMDAT _MEDIATYPE_Text
CONST	SEGMENT
_MEDIATYPE_Text DD 073747874H
	DW	00H
	DW	010H
	DB	080H
	DB	00H
	DB	00H
	DB	0aaH
	DB	00H
	DB	038H
	DB	09bH
	DB	071H
CONST	ENDS
;	COMDAT _MEDIATYPE_Midi
CONST	SEGMENT
_MEDIATYPE_Midi DD 07364696dH
	DW	00H
	DW	010H
	DB	080H
	DB	00H
	DB	00H
	DB	0aaH
	DB	00H
	DB	038H
	DB	09bH
	DB	071H
CONST	ENDS
;	COMDAT _MEDIATYPE_Stream
CONST	SEGMENT
_MEDIATYPE_Stream DD 0e436eb83H
	DW	0524fH
	DW	011ceH
	DB	09fH
	DB	053H
	DB	00H
	DB	020H
	DB	0afH
	DB	0bH
	DB	0a7H
	DB	070H
CONST	ENDS
;	COMDAT _MEDIATYPE_Interleaved
CONST	SEGMENT
_MEDIATYPE_Interleaved DD 073766169H
	DW	00H
	DW	010H
	DB	080H
	DB	00H
	DB	00H
	DB	0aaH
	DB	00H
	DB	038H
	DB	09bH
	DB	071H
CONST	ENDS
;	COMDAT _MEDIATYPE_File
CONST	SEGMENT
_MEDIATYPE_File DD 0656c6966H
	DW	00H
	DW	010H
	DB	080H
	DB	00H
	DB	00H
	DB	0aaH
	DB	00H
	DB	038H
	DB	09bH
	DB	071H
CONST	ENDS
;	COMDAT _MEDIATYPE_ScriptCommand
CONST	SEGMENT
_MEDIATYPE_ScriptCommand DD 073636d64H
	DW	00H
	DW	010H
	DB	080H
	DB	00H
	DB	00H
	DB	0aaH
	DB	00H
	DB	038H
	DB	09bH
	DB	071H
CONST	ENDS
;	COMDAT _MEDIATYPE_AUXLine21Data
CONST	SEGMENT
_MEDIATYPE_AUXLine21Data DD 0670aea80H
	DW	03a82H
	DW	011d0H
	DB	0b7H
	DB	09bH
	DB	00H
	DB	0aaH
	DB	00H
	DB	037H
	DB	067H
	DB	0a7H
CONST	ENDS
;	COMDAT _MEDIATYPE_VBI
CONST	SEGMENT
_MEDIATYPE_VBI DD 0f72a76e1H
	DW	0eb0aH
	DW	011d0H
	DB	0acH
	DB	0e4H
	DB	00H
	DB	00H
	DB	0c0H
	DB	0ccH
	DB	016H
	DB	0baH
CONST	ENDS
;	COMDAT _MEDIATYPE_Timecode
CONST	SEGMENT
_MEDIATYPE_Timecode DD 0482dee3H
	DW	07817H
	DW	011cfH
	DB	08aH
	DB	03H
	DB	00H
	DB	0aaH
	DB	00H
	DB	06eH
	DB	0cbH
	DB	065H
CONST	ENDS
;	COMDAT _MEDIATYPE_LMRT
CONST	SEGMENT
_MEDIATYPE_LMRT DD 074726c6dH
	DW	00H
	DW	010H
	DB	080H
	DB	00H
	DB	00H
	DB	0aaH
	DB	00H
	DB	038H
	DB	09bH
	DB	071H
CONST	ENDS
;	COMDAT _MEDIATYPE_URL_STREAM
CONST	SEGMENT
_MEDIATYPE_URL_STREAM DD 0736c7275H
	DW	00H
	DW	010H
	DB	080H
	DB	00H
	DB	00H
	DB	0aaH
	DB	00H
	DB	038H
	DB	09bH
	DB	071H
CONST	ENDS
;	COMDAT _MEDIASUBTYPE_CLPL
CONST	SEGMENT
_MEDIASUBTYPE_CLPL DD 04c504c43H
	DW	00H
	DW	010H
	DB	080H
	DB	00H
	DB	00H
	DB	0aaH
	DB	00H
	DB	038H
	DB	09bH
	DB	071H
CONST	ENDS
;	COMDAT _MEDIASUBTYPE_YUYV
CONST	SEGMENT
_MEDIASUBTYPE_YUYV DD 056595559H
	DW	00H
	DW	010H
	DB	080H
	DB	00H
	DB	00H
	DB	0aaH
	DB	00H
	DB	038H
	DB	09bH
	DB	071H
CONST	ENDS
;	COMDAT _MEDIASUBTYPE_IYUV
CONST	SEGMENT
_MEDIASUBTYPE_IYUV DD 056555949H
	DW	00H
	DW	010H
	DB	080H
	DB	00H
	DB	00H
	DB	0aaH
	DB	00H
	DB	038H
	DB	09bH
	DB	071H
CONST	ENDS
;	COMDAT _MEDIASUBTYPE_YVU9
CONST	SEGMENT
_MEDIASUBTYPE_YVU9 DD 039555659H
	DW	00H
	DW	010H
	DB	080H
	DB	00H
	DB	00H
	DB	0aaH
	DB	00H
	DB	038H
	DB	09bH
	DB	071H
CONST	ENDS
;	COMDAT _MEDIASUBTYPE_Y411
CONST	SEGMENT
_MEDIASUBTYPE_Y411 DD 031313459H
	DW	00H
	DW	010H
	DB	080H
	DB	00H
	DB	00H
	DB	0aaH
	DB	00H
	DB	038H
	DB	09bH
	DB	071H
CONST	ENDS
;	COMDAT _MEDIASUBTYPE_Y41P
CONST	SEGMENT
_MEDIASUBTYPE_Y41P DD 050313459H
	DW	00H
	DW	010H
	DB	080H
	DB	00H
	DB	00H
	DB	0aaH
	DB	00H
	DB	038H
	DB	09bH
	DB	071H
CONST	ENDS
;	COMDAT _MEDIASUBTYPE_YUY2
CONST	SEGMENT
_MEDIASUBTYPE_YUY2 DD 032595559H
	DW	00H
	DW	010H
	DB	080H
	DB	00H
	DB	00H
	DB	0aaH
	DB	00H
	DB	038H
	DB	09bH
	DB	071H
CONST	ENDS
;	COMDAT _MEDIASUBTYPE_YVYU
CONST	SEGMENT
_MEDIASUBTYPE_YVYU DD 055595659H
	DW	00H
	DW	010H
	DB	080H
	DB	00H
	DB	00H
	DB	0aaH
	DB	00H
	DB	038H
	DB	09bH
	DB	071H
CONST	ENDS
;	COMDAT _MEDIASUBTYPE_UYVY
CONST	SEGMENT
_MEDIASUBTYPE_UYVY DD 059565955H
	DW	00H
	DW	010H
	DB	080H
	DB	00H
	DB	00H
	DB	0aaH
	DB	00H
	DB	038H
	DB	09bH
	DB	071H
CONST	ENDS
;	COMDAT _MEDIASUBTYPE_Y211
CONST	SEGMENT
_MEDIASUBTYPE_Y211 DD 031313259H
	DW	00H
	DW	010H
	DB	080H
	DB	00H
	DB	00H
	DB	0aaH
	DB	00H
	DB	038H
	DB	09bH
	DB	071H
CONST	ENDS
;	COMDAT _MEDIASUBTYPE_CLJR
CONST	SEGMENT
_MEDIASUBTYPE_CLJR DD 0524a4c43H
	DW	00H
	DW	010H
	DB	080H
	DB	00H
	DB	00H
	DB	0aaH
	DB	00H
	DB	038H
	DB	09bH
	DB	071H
CONST	ENDS
;	COMDAT _MEDIASUBTYPE_IF09
CONST	SEGMENT
_MEDIASUBTYPE_IF09 DD 039304649H
	DW	00H
	DW	010H
	DB	080H
	DB	00H
	DB	00H
	DB	0aaH
	DB	00H
	DB	038H
	DB	09bH
	DB	071H
CONST	ENDS
;	COMDAT _MEDIASUBTYPE_CPLA
CONST	SEGMENT
_MEDIASUBTYPE_CPLA DD 0414c5043H
	DW	00H
	DW	010H
	DB	080H
	DB	00H
	DB	00H
	DB	0aaH
	DB	00H
	DB	038H
	DB	09bH
	DB	071H
CONST	ENDS
;	COMDAT _MEDIASUBTYPE_MJPG
CONST	SEGMENT
_MEDIASUBTYPE_MJPG DD 047504a4dH
	DW	00H
	DW	010H
	DB	080H
	DB	00H
	DB	00H
	DB	0aaH
	DB	00H
	DB	038H
	DB	09bH
	DB	071H
CONST	ENDS
;	COMDAT _MEDIASUBTYPE_TVMJ
CONST	SEGMENT
_MEDIASUBTYPE_TVMJ DD 04a4d5654H
	DW	00H
	DW	010H
	DB	080H
	DB	00H
	DB	00H
	DB	0aaH
	DB	00H
	DB	038H
	DB	09bH
	DB	071H
CONST	ENDS
;	COMDAT _MEDIASUBTYPE_WAKE
CONST	SEGMENT
_MEDIASUBTYPE_WAKE DD 0454b4157H
	DW	00H
	DW	010H
	DB	080H
	DB	00H
	DB	00H
	DB	0aaH
	DB	00H
	DB	038H
	DB	09bH
	DB	071H
CONST	ENDS
;	COMDAT _MEDIASUBTYPE_CFCC
CONST	SEGMENT
_MEDIASUBTYPE_CFCC DD 043434643H
	DW	00H
	DW	010H
	DB	080H
	DB	00H
	DB	00H
	DB	0aaH
	DB	00H
	DB	038H
	DB	09bH
	DB	071H
CONST	ENDS
;	COMDAT _MEDIASUBTYPE_IJPG
CONST	SEGMENT
_MEDIASUBTYPE_IJPG DD 047504a49H
	DW	00H
	DW	010H
	DB	080H
	DB	00H
	DB	00H
	DB	0aaH
	DB	00H
	DB	038H
	DB	09bH
	DB	071H
CONST	ENDS
;	COMDAT _MEDIASUBTYPE_Plum
CONST	SEGMENT
_MEDIASUBTYPE_Plum DD 06d756c50H
	DW	00H
	DW	010H
	DB	080H
	DB	00H
	DB	00H
	DB	0aaH
	DB	00H
	DB	038H
	DB	09bH
	DB	071H
CONST	ENDS
;	COMDAT _MEDIASUBTYPE_DVCS
CONST	SEGMENT
_MEDIASUBTYPE_DVCS DD 053435644H
	DW	00H
	DW	010H
	DB	080H
	DB	00H
	DB	00H
	DB	0aaH
	DB	00H
	DB	038H
	DB	09bH
	DB	071H
CONST	ENDS
;	COMDAT _MEDIASUBTYPE_DVSD
CONST	SEGMENT
_MEDIASUBTYPE_DVSD DD 044535644H
	DW	00H
	DW	010H
	DB	080H
	DB	00H
	DB	00H
	DB	0aaH
	DB	00H
	DB	038H
	DB	09bH
	DB	071H
CONST	ENDS
;	COMDAT _MEDIASUBTYPE_MDVF
CONST	SEGMENT
_MEDIASUBTYPE_MDVF DD 04656444dH
	DW	00H
	DW	010H
	DB	080H
	DB	00H
	DB	00H
	DB	0aaH
	DB	00H
	DB	038H
	DB	09bH
	DB	071H
CONST	ENDS
;	COMDAT _MEDIASUBTYPE_RGB1
CONST	SEGMENT
_MEDIASUBTYPE_RGB1 DD 0e436eb78H
	DW	0524fH
	DW	011ceH
	DB	09fH
	DB	053H
	DB	00H
	DB	020H
	DB	0afH
	DB	0bH
	DB	0a7H
	DB	070H
CONST	ENDS
;	COMDAT _MEDIASUBTYPE_RGB4
CONST	SEGMENT
_MEDIASUBTYPE_RGB4 DD 0e436eb79H
	DW	0524fH
	DW	011ceH
	DB	09fH
	DB	053H
	DB	00H
	DB	020H
	DB	0afH
	DB	0bH
	DB	0a7H
	DB	070H
CONST	ENDS
;	COMDAT _MEDIASUBTYPE_RGB8
CONST	SEGMENT
_MEDIASUBTYPE_RGB8 DD 0e436eb7aH
	DW	0524fH
	DW	011ceH
	DB	09fH
	DB	053H
	DB	00H
	DB	020H
	DB	0afH
	DB	0bH
	DB	0a7H
	DB	070H
CONST	ENDS
;	COMDAT _MEDIASUBTYPE_RGB565
CONST	SEGMENT
_MEDIASUBTYPE_RGB565 DD 0e436eb7bH
	DW	0524fH
	DW	011ceH
	DB	09fH
	DB	053H
	DB	00H
	DB	020H
	DB	0afH
	DB	0bH
	DB	0a7H
	DB	070H
CONST	ENDS
;	COMDAT _MEDIASUBTYPE_RGB555
CONST	SEGMENT
_MEDIASUBTYPE_RGB555 DD 0e436eb7cH
	DW	0524fH
	DW	011ceH
	DB	09fH
	DB	053H
	DB	00H
	DB	020H
	DB	0afH
	DB	0bH
	DB	0a7H
	DB	070H
CONST	ENDS
;	COMDAT _MEDIASUBTYPE_RGB32
CONST	SEGMENT
_MEDIASUBTYPE_RGB32 DD 0e436eb7eH
	DW	0524fH
	DW	011ceH
	DB	09fH
	DB	053H
	DB	00H
	DB	020H
	DB	0afH
	DB	0bH
	DB	0a7H
	DB	070H
CONST	ENDS
;	COMDAT _MEDIASUBTYPE_ARGB1555
CONST	SEGMENT
_MEDIASUBTYPE_ARGB1555 DD 0297c55afH
	DW	0e209H
	DW	04cb3H
	DB	0b7H
	DB	057H
	DB	0c7H
	DB	06dH
	DB	06bH
	DB	09cH
	DB	088H
	DB	0a8H
CONST	ENDS
;	COMDAT _MEDIASUBTYPE_ARGB4444
CONST	SEGMENT
_MEDIASUBTYPE_ARGB4444 DD 06e6415e6H
	DW	05c24H
	DW	0425fH
	DB	093H
	DB	0cdH
	DB	080H
	DB	010H
	DB	02bH
	DB	03dH
	DB	01cH
	DB	0caH
CONST	ENDS
;	COMDAT _MEDIASUBTYPE_ARGB32
CONST	SEGMENT
_MEDIASUBTYPE_ARGB32 DD 0773c9ac0H
	DW	03274H
	DW	011d0H
	DB	0b7H
	DB	024H
	DB	00H
	DB	0aaH
	DB	00H
	DB	06cH
	DB	01aH
	DB	01H
CONST	ENDS
;	COMDAT _MEDIASUBTYPE_A2R10G10B10
CONST	SEGMENT
_MEDIASUBTYPE_A2R10G10B10 DD 02f8bb76dH
	DW	0b644H
	DW	04550H
	DB	0acH
	DB	0f3H
	DB	0d3H
	DB	0cH
	DB	0aaH
	DB	065H
	DB	0d5H
	DB	0c5H
CONST	ENDS
;	COMDAT _MEDIASUBTYPE_A2B10G10R10
CONST	SEGMENT
_MEDIASUBTYPE_A2B10G10R10 DD 0576f7893H
	DW	0bdf6H
	DW	048c4H
	DB	087H
	DB	05fH
	DB	0aeH
	DB	07bH
	DB	081H
	DB	083H
	DB	045H
	DB	067H
CONST	ENDS
;	COMDAT _MEDIASUBTYPE_AYUV
CONST	SEGMENT
_MEDIASUBTYPE_AYUV DD 056555941H
	DW	00H
	DW	010H
	DB	080H
	DB	00H
	DB	00H
	DB	0aaH
	DB	00H
	DB	038H
	DB	09bH
	DB	071H
CONST	ENDS
;	COMDAT _MEDIASUBTYPE_AI44
CONST	SEGMENT
_MEDIASUBTYPE_AI44 DD 034344941H
	DW	00H
	DW	010H
	DB	080H
	DB	00H
	DB	00H
	DB	0aaH
	DB	00H
	DB	038H
	DB	09bH
	DB	071H
CONST	ENDS
;	COMDAT _MEDIASUBTYPE_IA44
CONST	SEGMENT
_MEDIASUBTYPE_IA44 DD 034344149H
	DW	00H
	DW	010H
	DB	080H
	DB	00H
	DB	00H
	DB	0aaH
	DB	00H
	DB	038H
	DB	09bH
	DB	071H
CONST	ENDS
;	COMDAT _MEDIASUBTYPE_RGB32_D3D_DX7_RT
CONST	SEGMENT
_MEDIASUBTYPE_RGB32_D3D_DX7_RT DD 032335237H
	DW	00H
	DW	010H
	DB	080H
	DB	00H
	DB	00H
	DB	0aaH
	DB	00H
	DB	038H
	DB	09bH
	DB	071H
CONST	ENDS
;	COMDAT _MEDIASUBTYPE_RGB16_D3D_DX7_RT
CONST	SEGMENT
_MEDIASUBTYPE_RGB16_D3D_DX7_RT DD 036315237H
	DW	00H
	DW	010H
	DB	080H
	DB	00H
	DB	00H
	DB	0aaH
	DB	00H
	DB	038H
	DB	09bH
	DB	071H
CONST	ENDS
;	COMDAT _MEDIASUBTYPE_ARGB32_D3D_DX7_RT
CONST	SEGMENT
_MEDIASUBTYPE_ARGB32_D3D_DX7_RT DD 038384137H
	DW	00H
	DW	010H
	DB	080H
	DB	00H
	DB	00H
	DB	0aaH
	DB	00H
	DB	038H
	DB	09bH
	DB	071H
CONST	ENDS
;	COMDAT _MEDIASUBTYPE_ARGB4444_D3D_DX7_RT
CONST	SEGMENT
_MEDIASUBTYPE_ARGB4444_D3D_DX7_RT DD 034344137H
	DW	00H
	DW	010H
	DB	080H
	DB	00H
	DB	00H
	DB	0aaH
	DB	00H
	DB	038H
	DB	09bH
	DB	071H
CONST	ENDS
;	COMDAT _MEDIASUBTYPE_ARGB1555_D3D_DX7_RT
CONST	SEGMENT
_MEDIASUBTYPE_ARGB1555_D3D_DX7_RT DD 035314137H
	DW	00H
	DW	010H
	DB	080H
	DB	00H
	DB	00H
	DB	0aaH
	DB	00H
	DB	038H
	DB	09bH
	DB	071H
CONST	ENDS
;	COMDAT _MEDIASUBTYPE_RGB32_D3D_DX9_RT
CONST	SEGMENT
_MEDIASUBTYPE_RGB32_D3D_DX9_RT DD 032335239H
	DW	00H
	DW	010H
	DB	080H
	DB	00H
	DB	00H
	DB	0aaH
	DB	00H
	DB	038H
	DB	09bH
	DB	071H
CONST	ENDS
;	COMDAT _MEDIASUBTYPE_RGB16_D3D_DX9_RT
CONST	SEGMENT
_MEDIASUBTYPE_RGB16_D3D_DX9_RT DD 036315239H
	DW	00H
	DW	010H
	DB	080H
	DB	00H
	DB	00H
	DB	0aaH
	DB	00H
	DB	038H
	DB	09bH
	DB	071H
CONST	ENDS
;	COMDAT _MEDIASUBTYPE_ARGB32_D3D_DX9_RT
CONST	SEGMENT
_MEDIASUBTYPE_ARGB32_D3D_DX9_RT DD 038384139H
	DW	00H
	DW	010H
	DB	080H
	DB	00H
	DB	00H
	DB	0aaH
	DB	00H
	DB	038H
	DB	09bH
	DB	071H
CONST	ENDS
;	COMDAT _MEDIASUBTYPE_ARGB4444_D3D_DX9_RT
CONST	SEGMENT
_MEDIASUBTYPE_ARGB4444_D3D_DX9_RT DD 034344139H
	DW	00H
	DW	010H
	DB	080H
	DB	00H
	DB	00H
	DB	0aaH
	DB	00H
	DB	038H
	DB	09bH
	DB	071H
CONST	ENDS
;	COMDAT _MEDIASUBTYPE_ARGB1555_D3D_DX9_RT
CONST	SEGMENT
_MEDIASUBTYPE_ARGB1555_D3D_DX9_RT DD 035314139H
	DW	00H
	DW	010H
	DB	080H
	DB	00H
	DB	00H
	DB	0aaH
	DB	00H
	DB	038H
	DB	09bH
	DB	071H
CONST	ENDS
;	COMDAT _MEDIASUBTYPE_YV12
CONST	SEGMENT
_MEDIASUBTYPE_YV12 DD 032315659H
	DW	00H
	DW	010H
	DB	080H
	DB	00H
	DB	00H
	DB	0aaH
	DB	00H
	DB	038H
	DB	09bH
	DB	071H
CONST	ENDS
;	COMDAT _MEDIASUBTYPE_NV12
CONST	SEGMENT
_MEDIASUBTYPE_NV12 DD 03231564eH
	DW	00H
	DW	010H
	DB	080H
	DB	00H
	DB	00H
	DB	0aaH
	DB	00H
	DB	038H
	DB	09bH
	DB	071H
CONST	ENDS
;	COMDAT _MEDIASUBTYPE_IMC1
CONST	SEGMENT
_MEDIASUBTYPE_IMC1 DD 031434d49H
	DW	00H
	DW	010H
	DB	080H
	DB	00H
	DB	00H
	DB	0aaH
	DB	00H
	DB	038H
	DB	09bH
	DB	071H
CONST	ENDS
;	COMDAT _MEDIASUBTYPE_IMC2
CONST	SEGMENT
_MEDIASUBTYPE_IMC2 DD 032434d49H
	DW	00H
	DW	010H
	DB	080H
	DB	00H
	DB	00H
	DB	0aaH
	DB	00H
	DB	038H
	DB	09bH
	DB	071H
CONST	ENDS
;	COMDAT _MEDIASUBTYPE_IMC3
CONST	SEGMENT
_MEDIASUBTYPE_IMC3 DD 033434d49H
	DW	00H
	DW	010H
	DB	080H
	DB	00H
	DB	00H
	DB	0aaH
	DB	00H
	DB	038H
	DB	09bH
	DB	071H
CONST	ENDS
;	COMDAT _MEDIASUBTYPE_IMC4
CONST	SEGMENT
_MEDIASUBTYPE_IMC4 DD 034434d49H
	DW	00H
	DW	010H
	DB	080H
	DB	00H
	DB	00H
	DB	0aaH
	DB	00H
	DB	038H
	DB	09bH
	DB	071H
CONST	ENDS
;	COMDAT _MEDIASUBTYPE_S340
CONST	SEGMENT
_MEDIASUBTYPE_S340 DD 030343353H
	DW	00H
	DW	010H
	DB	080H
	DB	00H
	DB	00H
	DB	0aaH
	DB	00H
	DB	038H
	DB	09bH
	DB	071H
CONST	ENDS
;	COMDAT _MEDIASUBTYPE_S342
CONST	SEGMENT
_MEDIASUBTYPE_S342 DD 032343353H
	DW	00H
	DW	010H
	DB	080H
	DB	00H
	DB	00H
	DB	0aaH
	DB	00H
	DB	038H
	DB	09bH
	DB	071H
CONST	ENDS
;	COMDAT _MEDIASUBTYPE_Overlay
CONST	SEGMENT
_MEDIASUBTYPE_Overlay DD 0e436eb7fH
	DW	0524fH
	DW	011ceH
	DB	09fH
	DB	053H
	DB	00H
	DB	020H
	DB	0afH
	DB	0bH
	DB	0a7H
	DB	070H
CONST	ENDS
;	COMDAT _MEDIASUBTYPE_MPEG1Packet
CONST	SEGMENT
_MEDIASUBTYPE_MPEG1Packet DD 0e436eb80H
	DW	0524fH
	DW	011ceH
	DB	09fH
	DB	053H
	DB	00H
	DB	020H
	DB	0afH
	DB	0bH
	DB	0a7H
	DB	070H
CONST	ENDS
;	COMDAT _MEDIASUBTYPE_MPEG1Payload
CONST	SEGMENT
_MEDIASUBTYPE_MPEG1Payload DD 0e436eb81H
	DW	0524fH
	DW	011ceH
	DB	09fH
	DB	053H
	DB	00H
	DB	020H
	DB	0afH
	DB	0bH
	DB	0a7H
	DB	070H
CONST	ENDS
;	COMDAT _MEDIASUBTYPE_MPEG1AudioPayload
CONST	SEGMENT
_MEDIASUBTYPE_MPEG1AudioPayload DD 050H
	DW	00H
	DW	010H
	DB	080H
	DB	00H
	DB	00H
	DB	0aaH
	DB	00H
	DB	038H
	DB	09bH
	DB	071H
CONST	ENDS
;	COMDAT _MEDIATYPE_MPEG1SystemStream
CONST	SEGMENT
_MEDIATYPE_MPEG1SystemStream DD 0e436eb82H
	DW	0524fH
	DW	011ceH
	DB	09fH
	DB	053H
	DB	00H
	DB	020H
	DB	0afH
	DB	0bH
	DB	0a7H
	DB	070H
CONST	ENDS
;	COMDAT _MEDIASUBTYPE_MPEG1System
CONST	SEGMENT
_MEDIASUBTYPE_MPEG1System DD 0e436eb84H
	DW	0524fH
	DW	011ceH
	DB	09fH
	DB	053H
	DB	00H
	DB	020H
	DB	0afH
	DB	0bH
	DB	0a7H
	DB	070H
CONST	ENDS
;	COMDAT _MEDIASUBTYPE_MPEG1VideoCD
CONST	SEGMENT
_MEDIASUBTYPE_MPEG1VideoCD DD 0e436eb85H
	DW	0524fH
	DW	011ceH
	DB	09fH
	DB	053H
	DB	00H
	DB	020H
	DB	0afH
	DB	0bH
	DB	0a7H
	DB	070H
CONST	ENDS
;	COMDAT _MEDIASUBTYPE_MPEG1Video
CONST	SEGMENT
_MEDIASUBTYPE_MPEG1Video DD 0e436eb86H
	DW	0524fH
	DW	011ceH
	DB	09fH
	DB	053H
	DB	00H
	DB	020H
	DB	0afH
	DB	0bH
	DB	0a7H
	DB	070H
CONST	ENDS
;	COMDAT _MEDIASUBTYPE_MPEG1Audio
CONST	SEGMENT
_MEDIASUBTYPE_MPEG1Audio DD 0e436eb87H
	DW	0524fH
	DW	011ceH
	DB	09fH
	DB	053H
	DB	00H
	DB	020H
	DB	0afH
	DB	0bH
	DB	0a7H
	DB	070H
CONST	ENDS
;	COMDAT _MEDIASUBTYPE_Avi
CONST	SEGMENT
_MEDIASUBTYPE_Avi DD 0e436eb88H
	DW	0524fH
	DW	011ceH
	DB	09fH
	DB	053H
	DB	00H
	DB	020H
	DB	0afH
	DB	0bH
	DB	0a7H
	DB	070H
CONST	ENDS
;	COMDAT _MEDIASUBTYPE_Asf
CONST	SEGMENT
_MEDIASUBTYPE_Asf DD 03db80f90H
	DW	09412H
	DW	011d1H
	DB	0adH
	DB	0edH
	DB	00H
	DB	00H
	DB	0f8H
	DB	075H
	DB	04bH
	DB	099H
CONST	ENDS
;	COMDAT _MEDIASUBTYPE_QTMovie
CONST	SEGMENT
_MEDIASUBTYPE_QTMovie DD 0e436eb89H
	DW	0524fH
	DW	011ceH
	DB	09fH
	DB	053H
	DB	00H
	DB	020H
	DB	0afH
	DB	0bH
	DB	0a7H
	DB	070H
CONST	ENDS
;	COMDAT _MEDIASUBTYPE_QTRpza
CONST	SEGMENT
_MEDIASUBTYPE_QTRpza DD 0617a7072H
	DW	00H
	DW	010H
	DB	080H
	DB	00H
	DB	00H
	DB	0aaH
	DB	00H
	DB	038H
	DB	09bH
	DB	071H
CONST	ENDS
;	COMDAT _MEDIASUBTYPE_QTSmc
CONST	SEGMENT
_MEDIASUBTYPE_QTSmc DD 020636d73H
	DW	00H
	DW	010H
	DB	080H
	DB	00H
	DB	00H
	DB	0aaH
	DB	00H
	DB	038H
	DB	09bH
	DB	071H
CONST	ENDS
;	COMDAT _MEDIASUBTYPE_QTRle
CONST	SEGMENT
_MEDIASUBTYPE_QTRle DD 020656c72H
	DW	00H
	DW	010H
	DB	080H
	DB	00H
	DB	00H
	DB	0aaH
	DB	00H
	DB	038H
	DB	09bH
	DB	071H
CONST	ENDS
;	COMDAT _MEDIASUBTYPE_QTJpeg
CONST	SEGMENT
_MEDIASUBTYPE_QTJpeg DD 06765706aH
	DW	00H
	DW	010H
	DB	080H
	DB	00H
	DB	00H
	DB	0aaH
	DB	00H
	DB	038H
	DB	09bH
	DB	071H
CONST	ENDS
;	COMDAT _MEDIASUBTYPE_PCMAudio_Obsolete
CONST	SEGMENT
_MEDIASUBTYPE_PCMAudio_Obsolete DD 0e436eb8aH
	DW	0524fH
	DW	011ceH
	DB	09fH
	DB	053H
	DB	00H
	DB	020H
	DB	0afH
	DB	0bH
	DB	0a7H
	DB	070H
CONST	ENDS
;	COMDAT _MEDIASUBTYPE_PCM
CONST	SEGMENT
_MEDIASUBTYPE_PCM DD 01H
	DW	00H
	DW	010H
	DB	080H
	DB	00H
	DB	00H
	DB	0aaH
	DB	00H
	DB	038H
	DB	09bH
	DB	071H
CONST	ENDS
;	COMDAT _MEDIASUBTYPE_WAVE
CONST	SEGMENT
_MEDIASUBTYPE_WAVE DD 0e436eb8bH
	DW	0524fH
	DW	011ceH
	DB	09fH
	DB	053H
	DB	00H
	DB	020H
	DB	0afH
	DB	0bH
	DB	0a7H
	DB	070H
CONST	ENDS
;	COMDAT _MEDIASUBTYPE_AU
CONST	SEGMENT
_MEDIASUBTYPE_AU DD 0e436eb8cH
	DW	0524fH
	DW	011ceH
	DB	09fH
	DB	053H
	DB	00H
	DB	020H
	DB	0afH
	DB	0bH
	DB	0a7H
	DB	070H
CONST	ENDS
;	COMDAT _MEDIASUBTYPE_AIFF
CONST	SEGMENT
_MEDIASUBTYPE_AIFF DD 0e436eb8dH
	DW	0524fH
	DW	011ceH
	DB	09fH
	DB	053H
	DB	00H
	DB	020H
	DB	0afH
	DB	0bH
	DB	0a7H
	DB	070H
CONST	ENDS
;	COMDAT _MEDIASUBTYPE_dvsd
CONST	SEGMENT
_MEDIASUBTYPE_dvsd DD 064737664H
	DW	00H
	DW	010H
	DB	080H
	DB	00H
	DB	00H
	DB	0aaH
	DB	00H
	DB	038H
	DB	09bH
	DB	071H
CONST	ENDS
;	COMDAT _MEDIASUBTYPE_dvhd
CONST	SEGMENT
_MEDIASUBTYPE_dvhd DD 064687664H
	DW	00H
	DW	010H
	DB	080H
	DB	00H
	DB	00H
	DB	0aaH
	DB	00H
	DB	038H
	DB	09bH
	DB	071H
CONST	ENDS
;	COMDAT _MEDIASUBTYPE_dvsl
CONST	SEGMENT
_MEDIASUBTYPE_dvsl DD 06c737664H
	DW	00H
	DW	010H
	DB	080H
	DB	00H
	DB	00H
	DB	0aaH
	DB	00H
	DB	038H
	DB	09bH
	DB	071H
CONST	ENDS
;	COMDAT _MEDIASUBTYPE_dv25
CONST	SEGMENT
_MEDIASUBTYPE_dv25 DD 035327664H
	DW	00H
	DW	010H
	DB	080H
	DB	00H
	DB	00H
	DB	0aaH
	DB	00H
	DB	038H
	DB	09bH
	DB	071H
CONST	ENDS
;	COMDAT _MEDIASUBTYPE_dv50
CONST	SEGMENT
_MEDIASUBTYPE_dv50 DD 030357664H
	DW	00H
	DW	010H
	DB	080H
	DB	00H
	DB	00H
	DB	0aaH
	DB	00H
	DB	038H
	DB	09bH
	DB	071H
CONST	ENDS
;	COMDAT _MEDIASUBTYPE_dvh1
CONST	SEGMENT
_MEDIASUBTYPE_dvh1 DD 031687664H
	DW	00H
	DW	010H
	DB	080H
	DB	00H
	DB	00H
	DB	0aaH
	DB	00H
	DB	038H
	DB	09bH
	DB	071H
CONST	ENDS
;	COMDAT _MEDIASUBTYPE_Line21_BytePair
CONST	SEGMENT
_MEDIASUBTYPE_Line21_BytePair DD 06e8d4a22H
	DW	0310cH
	DW	011d0H
	DB	0b7H
	DB	09aH
	DB	00H
	DB	0aaH
	DB	00H
	DB	037H
	DB	067H
	DB	0a7H
CONST	ENDS
;	COMDAT _MEDIASUBTYPE_Line21_GOPPacket
CONST	SEGMENT
_MEDIASUBTYPE_Line21_GOPPacket DD 06e8d4a23H
	DW	0310cH
	DW	011d0H
	DB	0b7H
	DB	09aH
	DB	00H
	DB	0aaH
	DB	00H
	DB	037H
	DB	067H
	DB	0a7H
CONST	ENDS
;	COMDAT _MEDIASUBTYPE_Line21_VBIRawData
CONST	SEGMENT
_MEDIASUBTYPE_Line21_VBIRawData DD 06e8d4a24H
	DW	0310cH
	DW	011d0H
	DB	0b7H
	DB	09aH
	DB	00H
	DB	0aaH
	DB	00H
	DB	037H
	DB	067H
	DB	0a7H
CONST	ENDS
;	COMDAT _MEDIASUBTYPE_TELETEXT
CONST	SEGMENT
_MEDIASUBTYPE_TELETEXT DD 0f72a76e3H
	DW	0eb0aH
	DW	011d0H
	DB	0acH
	DB	0e4H
	DB	00H
	DB	00H
	DB	0c0H
	DB	0ccH
	DB	016H
	DB	0baH
CONST	ENDS
;	COMDAT _MEDIASUBTYPE_DRM_Audio
CONST	SEGMENT
_MEDIASUBTYPE_DRM_Audio DD 09H
	DW	00H
	DW	010H
	DB	080H
	DB	00H
	DB	00H
	DB	0aaH
	DB	00H
	DB	038H
	DB	09bH
	DB	071H
CONST	ENDS
;	COMDAT _MEDIASUBTYPE_IEEE_FLOAT
CONST	SEGMENT
_MEDIASUBTYPE_IEEE_FLOAT DD 03H
	DW	00H
	DW	010H
	DB	080H
	DB	00H
	DB	00H
	DB	0aaH
	DB	00H
	DB	038H
	DB	09bH
	DB	071H
CONST	ENDS
;	COMDAT _MEDIASUBTYPE_DOLBY_AC3_SPDIF
CONST	SEGMENT
_MEDIASUBTYPE_DOLBY_AC3_SPDIF DD 092H
	DW	00H
	DW	010H
	DB	080H
	DB	00H
	DB	00H
	DB	0aaH
	DB	00H
	DB	038H
	DB	09bH
	DB	071H
CONST	ENDS
;	COMDAT _MEDIASUBTYPE_RAW_SPORT
CONST	SEGMENT
_MEDIASUBTYPE_RAW_SPORT DD 0240H
	DW	00H
	DW	010H
	DB	080H
	DB	00H
	DB	00H
	DB	0aaH
	DB	00H
	DB	038H
	DB	09bH
	DB	071H
CONST	ENDS
;	COMDAT _MEDIASUBTYPE_SPDIF_TAG_241h
CONST	SEGMENT
_MEDIASUBTYPE_SPDIF_TAG_241h DD 0241H
	DW	00H
	DW	010H
	DB	080H
	DB	00H
	DB	00H
	DB	0aaH
	DB	00H
	DB	038H
	DB	09bH
	DB	071H
CONST	ENDS
;	COMDAT _MEDIASUBTYPE_DssVideo
CONST	SEGMENT
_MEDIASUBTYPE_DssVideo DD 0a0af4f81H
	DW	0e163H
	DW	011d0H
	DB	0baH
	DB	0d9H
	DB	00H
	DB	060H
	DB	097H
	DB	044H
	DB	011H
	DB	01aH
CONST	ENDS
;	COMDAT _MEDIASUBTYPE_DssAudio
CONST	SEGMENT
_MEDIASUBTYPE_DssAudio DD 0a0af4f82H
	DW	0e163H
	DW	011d0H
	DB	0baH
	DB	0d9H
	DB	00H
	DB	060H
	DB	097H
	DB	044H
	DB	011H
	DB	01aH
CONST	ENDS
;	COMDAT _MEDIASUBTYPE_VPVideo
CONST	SEGMENT
_MEDIASUBTYPE_VPVideo DD 05a9b6a40H
	DW	01a22H
	DW	011d1H
	DB	0baH
	DB	0d9H
	DB	00H
	DB	060H
	DB	097H
	DB	044H
	DB	011H
	DB	01aH
CONST	ENDS
;	COMDAT _MEDIASUBTYPE_VPVBI
CONST	SEGMENT
_MEDIASUBTYPE_VPVBI DD 05a9b6a41H
	DW	01a22H
	DW	011d1H
	DB	0baH
	DB	0d9H
	DB	00H
	DB	060H
	DB	097H
	DB	044H
	DB	011H
	DB	01aH
CONST	ENDS
;	COMDAT _CLSID_CaptureGraphBuilder
CONST	SEGMENT
_CLSID_CaptureGraphBuilder DD 0bf87b6e0H
	DW	08c27H
	DW	011d0H
	DB	0b3H
	DB	0f0H
	DB	00H
	DB	0aaH
	DB	00H
	DB	037H
	DB	061H
	DB	0c5H
CONST	ENDS
;	COMDAT _CLSID_ProtoFilterGraph
CONST	SEGMENT
_CLSID_ProtoFilterGraph DD 0e436ebb0H
	DW	0524fH
	DW	011ceH
	DB	09fH
	DB	053H
	DB	00H
	DB	020H
	DB	0afH
	DB	0bH
	DB	0a7H
	DB	070H
CONST	ENDS
;	COMDAT _CLSID_SystemClock
CONST	SEGMENT
_CLSID_SystemClock DD 0e436ebb1H
	DW	0524fH
	DW	011ceH
	DB	09fH
	DB	053H
	DB	00H
	DB	020H
	DB	0afH
	DB	0bH
	DB	0a7H
	DB	070H
CONST	ENDS
;	COMDAT _CLSID_FilterMapper
CONST	SEGMENT
_CLSID_FilterMapper DD 0e436ebb2H
	DW	0524fH
	DW	011ceH
	DB	09fH
	DB	053H
	DB	00H
	DB	020H
	DB	0afH
	DB	0bH
	DB	0a7H
	DB	070H
CONST	ENDS
;	COMDAT _CLSID_FilterGraphNoThread
CONST	SEGMENT
_CLSID_FilterGraphNoThread DD 0e436ebb8H
	DW	0524fH
	DW	011ceH
	DB	09fH
	DB	053H
	DB	00H
	DB	020H
	DB	0afH
	DB	0bH
	DB	0a7H
	DB	070H
CONST	ENDS
;	COMDAT _CLSID_MPEG1Doc
CONST	SEGMENT
_CLSID_MPEG1Doc DD 0e4bbd160H
	DW	04269H
	DW	011ceH
	DB	083H
	DB	08dH
	DB	00H
	DB	0aaH
	DB	00H
	DB	055H
	DB	059H
	DB	05aH
CONST	ENDS
;	COMDAT _CLSID_FileSource
CONST	SEGMENT
_CLSID_FileSource DD 0701722e0H
	DW	08ae3H
	DW	011ceH
	DB	0a8H
	DB	05cH
	DB	00H
	DB	0aaH
	DB	00H
	DB	02fH
	DB	0eaH
	DB	0b5H
CONST	ENDS
;	COMDAT _CLSID_MPEG1PacketPlayer
CONST	SEGMENT
_CLSID_MPEG1PacketPlayer DD 026c25940H
	DW	04ca9H
	DW	011ceH
	DB	0a8H
	DB	028H
	DB	00H
	DB	0aaH
	DB	00H
	DB	02fH
	DB	0eaH
	DB	0b5H
CONST	ENDS
;	COMDAT _CLSID_MPEG1Splitter
CONST	SEGMENT
_CLSID_MPEG1Splitter DD 0336475d0H
	DW	0942aH
	DW	011ceH
	DB	0a8H
	DB	070H
	DB	00H
	DB	0aaH
	DB	00H
	DB	02fH
	DB	0eaH
	DB	0b5H
CONST	ENDS
;	COMDAT _CLSID_CMpegVideoCodec
CONST	SEGMENT
_CLSID_CMpegVideoCodec DD 0feb50740H
	DW	07befH
	DW	011ceH
	DB	09bH
	DB	0d9H
	DB	00H
	DB	00H
	DB	0e2H
	DB	02H
	DB	059H
	DB	09cH
CONST	ENDS
;	COMDAT _CLSID_CMpegAudioCodec
CONST	SEGMENT
_CLSID_CMpegAudioCodec DD 04a2286e0H
	DW	07befH
	DW	011ceH
	DB	09bH
	DB	0d9H
	DB	00H
	DB	00H
	DB	0e2H
	DB	02H
	DB	059H
	DB	09cH
CONST	ENDS
;	COMDAT _CLSID_TextRender
CONST	SEGMENT
_CLSID_TextRender DD 0e30629d3H
	DW	027e5H
	DW	011ceH
	DB	087H
	DB	05dH
	DB	00H
	DB	060H
	DB	08cH
	DB	0b7H
	DB	080H
	DB	066H
CONST	ENDS
;	COMDAT _CLSID_InfTee
CONST	SEGMENT
_CLSID_InfTee DD 0f8388a40H
	DW	0d5bbH
	DW	011d0H
	DB	0beH
	DB	05aH
	DB	00H
	DB	080H
	DB	0c7H
	DB	06H
	DB	056H
	DB	08eH
CONST	ENDS
;	COMDAT _CLSID_AviSplitter
CONST	SEGMENT
_CLSID_AviSplitter DD 01b544c20H
	DW	0fd0bH
	DW	011ceH
	DB	08cH
	DB	063H
	DB	00H
	DB	0aaH
	DB	00H
	DB	044H
	DB	0b5H
	DB	01eH
CONST	ENDS
;	COMDAT _CLSID_AviReader
CONST	SEGMENT
_CLSID_AviReader DD 01b544c21H
	DW	0fd0bH
	DW	011ceH
	DB	08cH
	DB	063H
	DB	00H
	DB	0aaH
	DB	00H
	DB	044H
	DB	0b5H
	DB	01eH
CONST	ENDS
;	COMDAT _CLSID_VfwCapture
CONST	SEGMENT
_CLSID_VfwCapture DD 01b544c22H
	DW	0fd0bH
	DW	011ceH
	DB	08cH
	DB	063H
	DB	00H
	DB	0aaH
	DB	00H
	DB	044H
	DB	0b5H
	DB	01eH
CONST	ENDS
;	COMDAT _CLSID_CaptureProperties
CONST	SEGMENT
_CLSID_CaptureProperties DD 01b544c22H
	DW	0fd0bH
	DW	011ceH
	DB	08cH
	DB	063H
	DB	00H
	DB	0aaH
	DB	00H
	DB	044H
	DB	0b5H
	DB	01fH
CONST	ENDS
;	COMDAT _CLSID_FGControl
CONST	SEGMENT
_CLSID_FGControl DD 0e436ebb4H
	DW	0524fH
	DW	011ceH
	DB	09fH
	DB	053H
	DB	00H
	DB	020H
	DB	0afH
	DB	0bH
	DB	0a7H
	DB	070H
CONST	ENDS
;	COMDAT _CLSID_MOVReader
CONST	SEGMENT
_CLSID_MOVReader DD 044584800H
	DW	0f8eeH
	DW	011ceH
	DB	0b2H
	DB	0d4H
	DB	00H
	DB	0ddH
	DB	01H
	DB	010H
	DB	01bH
	DB	085H
CONST	ENDS
;	COMDAT _CLSID_QuickTimeParser
CONST	SEGMENT
_CLSID_QuickTimeParser DD 0d51bd5a0H
	DW	07548H
	DW	011cfH
	DB	0a5H
	DB	020H
	DB	00H
	DB	080H
	DB	0c7H
	DB	07eH
	DB	0f5H
	DB	08aH
CONST	ENDS
;	COMDAT _CLSID_QTDec
CONST	SEGMENT
_CLSID_QTDec DD	0fdfe9681H
	DW	074a3H
	DW	011d0H
	DB	0afH
	DB	0a7H
	DB	00H
	DB	0aaH
	DB	00H
	DB	0b6H
	DB	07aH
	DB	042H
CONST	ENDS
;	COMDAT _CLSID_AVIDoc
CONST	SEGMENT
_CLSID_AVIDoc DD 0d3588ab0H
	DW	0781H
	DW	011ceH
	DB	0b0H
	DB	03aH
	DB	00H
	DB	020H
	DB	0afH
	DB	0bH
	DB	0a7H
	DB	070H
CONST	ENDS
;	COMDAT _CLSID_VideoRenderer
CONST	SEGMENT
_CLSID_VideoRenderer DD 070e102b0H
	DW	05556H
	DW	011ceH
	DB	097H
	DB	0c0H
	DB	00H
	DB	0aaH
	DB	00H
	DB	055H
	DB	059H
	DB	05aH
CONST	ENDS
;	COMDAT _CLSID_Colour
CONST	SEGMENT
_CLSID_Colour DD 01643e180H
	DW	090f5H
	DW	011ceH
	DB	097H
	DB	0d5H
	DB	00H
	DB	0aaH
	DB	00H
	DB	055H
	DB	059H
	DB	05aH
CONST	ENDS
;	COMDAT _CLSID_Dither
CONST	SEGMENT
_CLSID_Dither DD 01da08500H
	DW	09edcH
	DW	011cfH
	DB	0bcH
	DB	010H
	DB	00H
	DB	0aaH
	DB	00H
	DB	0acH
	DB	074H
	DB	0f6H
CONST	ENDS
;	COMDAT _CLSID_ModexRenderer
CONST	SEGMENT
_CLSID_ModexRenderer DD 07167665H
	DW	05011H
	DW	011cfH
	DB	0bfH
	DB	033H
	DB	00H
	DB	0aaH
	DB	00H
	DB	055H
	DB	059H
	DB	05aH
CONST	ENDS
;	COMDAT _CLSID_AudioRender
CONST	SEGMENT
_CLSID_AudioRender DD 0e30629d1H
	DW	027e5H
	DW	011ceH
	DB	087H
	DB	05dH
	DB	00H
	DB	060H
	DB	08cH
	DB	0b7H
	DB	080H
	DB	066H
CONST	ENDS
;	COMDAT _CLSID_AudioProperties
CONST	SEGMENT
_CLSID_AudioProperties DD 05589fafH
	DW	0c356H
	DW	011ceH
	DB	0bfH
	DB	01H
	DB	00H
	DB	0aaH
	DB	00H
	DB	055H
	DB	059H
	DB	05aH
CONST	ENDS
;	COMDAT _CLSID_DSoundRender
CONST	SEGMENT
_CLSID_DSoundRender DD 079376820H
	DW	07d0H
	DW	011cfH
	DB	0a2H
	DB	04dH
	DB	00H
	DB	020H
	DB	0afH
	DB	0d7H
	DB	097H
	DB	067H
CONST	ENDS
;	COMDAT _CLSID_AudioRecord
CONST	SEGMENT
_CLSID_AudioRecord DD 0e30629d2H
	DW	027e5H
	DW	011ceH
	DB	087H
	DB	05dH
	DB	00H
	DB	060H
	DB	08cH
	DB	0b7H
	DB	080H
	DB	066H
CONST	ENDS
;	COMDAT _CLSID_AudioInputMixerProperties
CONST	SEGMENT
_CLSID_AudioInputMixerProperties DD 02ca8ca52H
	DW	03c3fH
	DW	011d2H
	DB	0b7H
	DB	03dH
	DB	00H
	DB	0c0H
	DB	04fH
	DB	0b6H
	DB	0bdH
	DB	03dH
CONST	ENDS
;	COMDAT _CLSID_AVIDec
CONST	SEGMENT
_CLSID_AVIDec DD 0cf49d4e0H
	DW	01115H
	DW	011ceH
	DB	0b0H
	DB	03aH
	DB	00H
	DB	020H
	DB	0afH
	DB	0bH
	DB	0a7H
	DB	070H
CONST	ENDS
;	COMDAT _CLSID_AVIDraw
CONST	SEGMENT
_CLSID_AVIDraw DD 0a888df60H
	DW	01e90H
	DW	011cfH
	DB	0acH
	DB	098H
	DB	00H
	DB	0aaH
	DB	00H
	DB	04cH
	DB	0fH
	DB	0a9H
CONST	ENDS
;	COMDAT _CLSID_ACMWrapper
CONST	SEGMENT
_CLSID_ACMWrapper DD 06a08cf80H
	DW	0e18H
	DW	011cfH
	DB	0a2H
	DB	04dH
	DB	00H
	DB	020H
	DB	0afH
	DB	0d7H
	DB	097H
	DB	067H
CONST	ENDS
;	COMDAT _CLSID_AsyncReader
CONST	SEGMENT
_CLSID_AsyncReader DD 0e436ebb5H
	DW	0524fH
	DW	011ceH
	DB	09fH
	DB	053H
	DB	00H
	DB	020H
	DB	0afH
	DB	0bH
	DB	0a7H
	DB	070H
CONST	ENDS
;	COMDAT _CLSID_URLReader
CONST	SEGMENT
_CLSID_URLReader DD 0e436ebb6H
	DW	0524fH
	DW	011ceH
	DB	09fH
	DB	053H
	DB	00H
	DB	020H
	DB	0afH
	DB	0bH
	DB	0a7H
	DB	070H
CONST	ENDS
;	COMDAT _CLSID_PersistMonikerPID
CONST	SEGMENT
_CLSID_PersistMonikerPID DD 0e436ebb7H
	DW	0524fH
	DW	011ceH
	DB	09fH
	DB	053H
	DB	00H
	DB	020H
	DB	0afH
	DB	0bH
	DB	0a7H
	DB	070H
CONST	ENDS
;	COMDAT _CLSID_AVICo
CONST	SEGMENT
_CLSID_AVICo DD	0d76e2820H
	DW	01563H
	DW	011cfH
	DB	0acH
	DB	098H
	DB	00H
	DB	0aaH
	DB	00H
	DB	04cH
	DB	0fH
	DB	0a9H
CONST	ENDS
;	COMDAT _CLSID_FileWriter
CONST	SEGMENT
_CLSID_FileWriter DD 08596e5f0H
	DW	0da5H
	DW	011d0H
	DB	0bdH
	DB	021H
	DB	00H
	DB	0a0H
	DB	0c9H
	DB	011H
	DB	0ceH
	DB	086H
CONST	ENDS
;	COMDAT _CLSID_AviDest
CONST	SEGMENT
_CLSID_AviDest DD 0e2510970H
	DW	0f137H
	DW	011ceH
	DB	08bH
	DB	067H
	DB	00H
	DB	0aaH
	DB	00H
	DB	0a3H
	DB	0f1H
	DB	0a6H
CONST	ENDS
;	COMDAT _CLSID_AviMuxProptyPage
CONST	SEGMENT
_CLSID_AviMuxProptyPage DD 0c647b5c0H
	DW	0157cH
	DW	011d0H
	DB	0bdH
	DB	023H
	DB	00H
	DB	0a0H
	DB	0c9H
	DB	011H
	DB	0ceH
	DB	086H
CONST	ENDS
;	COMDAT _CLSID_AviMuxProptyPage1
CONST	SEGMENT
_CLSID_AviMuxProptyPage1 DD 0a9ae910H
	DW	085c0H
	DW	011d0H
	DB	0bdH
	DB	042H
	DB	00H
	DB	0a0H
	DB	0c9H
	DB	011H
	DB	0ceH
	DB	086H
CONST	ENDS
;	COMDAT _CLSID_AVIMIDIRender
CONST	SEGMENT
_CLSID_AVIMIDIRender DD 07b65360H
	DW	0c445H
	DW	011ceH
	DB	0afH
	DB	0deH
	DB	00H
	DB	0aaH
	DB	00H
	DB	06cH
	DB	014H
	DB	0f4H
CONST	ENDS
;	COMDAT _CLSID_WMAsfReader
CONST	SEGMENT
_CLSID_WMAsfReader DD 0187463a0H
	DW	05bb7H
	DW	011d3H
	DB	0acH
	DB	0beH
	DB	00H
	DB	080H
	DB	0c7H
	DB	05eH
	DB	024H
	DB	06eH
CONST	ENDS
;	COMDAT _CLSID_WMAsfWriter
CONST	SEGMENT
_CLSID_WMAsfWriter DD 07c23220eH
	DW	055bbH
	DW	011d3H
	DB	08bH
	DB	016H
	DB	00H
	DB	0c0H
	DB	04fH
	DB	0b6H
	DB	0bdH
	DB	03dH
CONST	ENDS
;	COMDAT _CLSID_MPEG2Demultiplexer
CONST	SEGMENT
_CLSID_MPEG2Demultiplexer DD 0afb6c280H
	DW	02c41H
	DW	011d3H
	DB	08aH
	DB	060H
	DB	00H
	DB	00H
	DB	0f8H
	DB	01eH
	DB	0eH
	DB	04aH
CONST	ENDS
;	COMDAT _CLSID_MMSPLITTER
CONST	SEGMENT
_CLSID_MMSPLITTER DD 03ae86b20H
	DW	07be8H
	DW	011d1H
	DB	0abH
	DB	0e6H
	DB	00H
	DB	0a0H
	DB	0c9H
	DB	05H
	DB	0f3H
	DB	075H
CONST	ENDS
;	COMDAT _CLSID_StreamBufferSink
CONST	SEGMENT
_CLSID_StreamBufferSink DD 02db47ae5H
	DW	0cf39H
	DW	043c2H
	DB	0b4H
	DB	0d6H
	DB	0cH
	DB	0d8H
	DB	0d9H
	DB	09H
	DB	046H
	DB	0f4H
CONST	ENDS
;	COMDAT _CLSID_StreamBufferSource
CONST	SEGMENT
_CLSID_StreamBufferSource DD 0c9f5fe02H
	DW	0f851H
	DW	04eb5H
	DB	099H
	DB	0eeH
	DB	0adH
	DB	060H
	DB	02aH
	DB	0f1H
	DB	0e6H
	DB	019H
CONST	ENDS
;	COMDAT _CLSID_StreamBufferConfig
CONST	SEGMENT
_CLSID_StreamBufferConfig DD 0fa8a68b2H
	DW	0c864H
	DW	04ba2H
	DB	0adH
	DB	053H
	DB	0d3H
	DB	087H
	DB	06aH
	DB	087H
	DB	049H
	DB	04bH
CONST	ENDS
;	COMDAT _CLSID_Mpeg2VideoStreamAnalyzer
CONST	SEGMENT
_CLSID_Mpeg2VideoStreamAnalyzer DD 06cfad761H
	DW	0735dH
	DW	04aa5H
	DB	08aH
	DB	0fcH
	DB	0afH
	DB	091H
	DB	0a7H
	DB	0d6H
	DB	01eH
	DB	0baH
CONST	ENDS
;	COMDAT _CLSID_StreamBufferRecordingAttributes
CONST	SEGMENT
_CLSID_StreamBufferRecordingAttributes DD 0ccaa63acH
	DW	01057H
	DW	04778H
	DB	0aeH
	DB	092H
	DB	012H
	DB	06H
	DB	0abH
	DB	09aH
	DB	0ceH
	DB	0e6H
CONST	ENDS
;	COMDAT _CLSID_StreamBufferComposeRecording
CONST	SEGMENT
_CLSID_StreamBufferComposeRecording DD 0d682c4baH
	DW	0a90aH
	DW	042feH
	DB	0b9H
	DB	0e1H
	DB	03H
	DB	010H
	DB	098H
	DB	049H
	DB	0c4H
	DB	023H
CONST	ENDS
;	COMDAT _CLSID_DVVideoCodec
CONST	SEGMENT
_CLSID_DVVideoCodec DD 0b1b77c00H
	DW	0c3e4H
	DW	011cfH
	DB	0afH
	DB	079H
	DB	00H
	DB	0aaH
	DB	00H
	DB	0b6H
	DB	07aH
	DB	042H
CONST	ENDS
;	COMDAT _CLSID_DVVideoEnc
CONST	SEGMENT
_CLSID_DVVideoEnc DD 013aa3650H
	DW	0bb6fH
	DW	011d0H
	DB	0afH
	DB	0b9H
	DB	00H
	DB	0aaH
	DB	00H
	DB	0b6H
	DB	07aH
	DB	042H
CONST	ENDS
;	COMDAT _CLSID_DVSplitter
CONST	SEGMENT
_CLSID_DVSplitter DD 04eb31670H
	DW	09fc6H
	DW	011cfH
	DB	0afH
	DB	06eH
	DB	00H
	DB	0aaH
	DB	00H
	DB	0b6H
	DB	07aH
	DB	042H
CONST	ENDS
;	COMDAT _CLSID_DVMux
CONST	SEGMENT
_CLSID_DVMux DD	0129d7e40H
	DW	0c10dH
	DW	011d0H
	DB	0afH
	DB	0b9H
	DB	00H
	DB	0aaH
	DB	00H
	DB	0b6H
	DB	07aH
	DB	042H
CONST	ENDS
;	COMDAT _CLSID_SeekingPassThru
CONST	SEGMENT
_CLSID_SeekingPassThru DD 060af76cH
	DW	068ddH
	DW	011d0H
	DB	08fH
	DB	0c1H
	DB	00H
	DB	0c0H
	DB	04fH
	DB	0d9H
	DB	018H
	DB	09dH
CONST	ENDS
;	COMDAT _CLSID_Line21Decoder
CONST	SEGMENT
_CLSID_Line21Decoder DD 06e8d4a20H
	DW	0310cH
	DW	011d0H
	DB	0b7H
	DB	09aH
	DB	00H
	DB	0aaH
	DB	00H
	DB	037H
	DB	067H
	DB	0a7H
CONST	ENDS
;	COMDAT _CLSID_Line21Decoder2
CONST	SEGMENT
_CLSID_Line21Decoder2 DD 0e4206432H
	DW	01a1H
	DW	04beeH
	DB	0b3H
	DB	0e1H
	DB	037H
	DB	02H
	DB	0c8H
	DB	0edH
	DB	0c5H
	DB	074H
CONST	ENDS
;	COMDAT _CLSID_OverlayMixer
CONST	SEGMENT
_CLSID_OverlayMixer DD 0cd8743a1H
	DW	03736H
	DW	011d0H
	DB	09eH
	DB	069H
	DB	00H
	DB	0c0H
	DB	04fH
	DB	0d7H
	DB	0c1H
	DB	05bH
CONST	ENDS
;	COMDAT _CLSID_VBISurfaces
CONST	SEGMENT
_CLSID_VBISurfaces DD 0814b9800H
	DW	01c88H
	DW	011d1H
	DB	0baH
	DB	0d9H
	DB	00H
	DB	060H
	DB	097H
	DB	044H
	DB	011H
	DB	01aH
CONST	ENDS
;	COMDAT _CLSID_WSTDecoder
CONST	SEGMENT
_CLSID_WSTDecoder DD 070bc06e0H
	DW	05666H
	DW	011d3H
	DB	0a1H
	DB	084H
	DB	00H
	DB	010H
	DB	05aH
	DB	0efH
	DB	09fH
	DB	033H
CONST	ENDS
;	COMDAT _CLSID_MjpegDec
CONST	SEGMENT
_CLSID_MjpegDec DD 0301056d0H
	DW	06dffH
	DW	011d2H
	DB	09eH
	DB	0ebH
	DB	00H
	DB	060H
	DB	08H
	DB	03H
	DB	09eH
	DB	037H
CONST	ENDS
;	COMDAT _CLSID_MJPGEnc
CONST	SEGMENT
_CLSID_MJPGEnc DD 0b80ab0a0H
	DW	07416H
	DW	011d2H
	DB	09eH
	DB	0ebH
	DB	00H
	DB	060H
	DB	08H
	DB	03H
	DB	09eH
	DB	037H
CONST	ENDS
;	COMDAT _CLSID_CDeviceMoniker
CONST	SEGMENT
_CLSID_CDeviceMoniker DD 04315d437H
	DW	05b8cH
	DW	011d0H
	DB	0bdH
	DB	03bH
	DB	00H
	DB	0a0H
	DB	0c9H
	DB	011H
	DB	0ceH
	DB	086H
CONST	ENDS
;	COMDAT _CLSID_CVidCapClassManager
CONST	SEGMENT
_CLSID_CVidCapClassManager DD 0860bb310H
	DW	05d01H
	DW	011d0H
	DB	0bdH
	DB	03bH
	DB	00H
	DB	0a0H
	DB	0c9H
	DB	011H
	DB	0ceH
	DB	086H
CONST	ENDS
;	COMDAT _CLSID_LegacyAmFilterCategory
CONST	SEGMENT
_CLSID_LegacyAmFilterCategory DD 083863f1H
	DW	070deH
	DW	011d0H
	DB	0bdH
	DB	040H
	DB	00H
	DB	0a0H
	DB	0c9H
	DB	011H
	DB	0ceH
	DB	086H
CONST	ENDS
;	COMDAT _CLSID_CQzFilterClassManager
CONST	SEGMENT
_CLSID_CQzFilterClassManager DD 083863f1H
	DW	070deH
	DW	011d0H
	DB	0bdH
	DB	040H
	DB	00H
	DB	0a0H
	DB	0c9H
	DB	011H
	DB	0ceH
	DB	086H
CONST	ENDS
;	COMDAT _CLSID_VideoCompressorCategory
CONST	SEGMENT
_CLSID_VideoCompressorCategory DD 033d9a760H
	DW	090c8H
	DW	011d0H
	DB	0bdH
	DB	043H
	DB	00H
	DB	0a0H
	DB	0c9H
	DB	011H
	DB	0ceH
	DB	086H
CONST	ENDS
;	COMDAT _CLSID_CIcmCoClassManager
CONST	SEGMENT
_CLSID_CIcmCoClassManager DD 033d9a760H
	DW	090c8H
	DW	011d0H
	DB	0bdH
	DB	043H
	DB	00H
	DB	0a0H
	DB	0c9H
	DB	011H
	DB	0ceH
	DB	086H
CONST	ENDS
;	COMDAT _CLSID_AudioCompressorCategory
CONST	SEGMENT
_CLSID_AudioCompressorCategory DD 033d9a761H
	DW	090c8H
	DW	011d0H
	DB	0bdH
	DB	043H
	DB	00H
	DB	0a0H
	DB	0c9H
	DB	011H
	DB	0ceH
	DB	086H
CONST	ENDS
;	COMDAT _CLSID_CAcmCoClassManager
CONST	SEGMENT
_CLSID_CAcmCoClassManager DD 033d9a761H
	DW	090c8H
	DW	011d0H
	DB	0bdH
	DB	043H
	DB	00H
	DB	0a0H
	DB	0c9H
	DB	011H
	DB	0ceH
	DB	086H
CONST	ENDS
;	COMDAT _CLSID_AudioInputDeviceCategory
CONST	SEGMENT
_CLSID_AudioInputDeviceCategory DD 033d9a762H
	DW	090c8H
	DW	011d0H
	DB	0bdH
	DB	043H
	DB	00H
	DB	0a0H
	DB	0c9H
	DB	011H
	DB	0ceH
	DB	086H
CONST	ENDS
;	COMDAT _CLSID_CWaveinClassManager
CONST	SEGMENT
_CLSID_CWaveinClassManager DD 033d9a762H
	DW	090c8H
	DW	011d0H
	DB	0bdH
	DB	043H
	DB	00H
	DB	0a0H
	DB	0c9H
	DB	011H
	DB	0ceH
	DB	086H
CONST	ENDS
;	COMDAT _CLSID_AudioRendererCategory
CONST	SEGMENT
_CLSID_AudioRendererCategory DD 0e0f158e1H
	DW	0cb04H
	DW	011d0H
	DB	0bdH
	DB	04eH
	DB	00H
	DB	0a0H
	DB	0c9H
	DB	011H
	DB	0ceH
	DB	086H
CONST	ENDS
;	COMDAT _CLSID_CWaveOutClassManager
CONST	SEGMENT
_CLSID_CWaveOutClassManager DD 0e0f158e1H
	DW	0cb04H
	DW	011d0H
	DB	0bdH
	DB	04eH
	DB	00H
	DB	0a0H
	DB	0c9H
	DB	011H
	DB	0ceH
	DB	086H
CONST	ENDS
;	COMDAT _CLSID_MidiRendererCategory
CONST	SEGMENT
_CLSID_MidiRendererCategory DD 04efe2452H
	DW	0168aH
	DW	011d1H
	DB	0bcH
	DB	076H
	DB	00H
	DB	0c0H
	DB	04fH
	DB	0b9H
	DB	045H
	DB	03bH
CONST	ENDS
;	COMDAT _CLSID_CMidiOutClassManager
CONST	SEGMENT
_CLSID_CMidiOutClassManager DD 04efe2452H
	DW	0168aH
	DW	011d1H
	DB	0bcH
	DB	076H
	DB	00H
	DB	0c0H
	DB	04fH
	DB	0b9H
	DB	045H
	DB	03bH
CONST	ENDS
;	COMDAT _CLSID_TransmitCategory
CONST	SEGMENT
_CLSID_TransmitCategory DD 0cc7bfb41H
	DW	0f175H
	DW	011d1H
	DB	0a3H
	DB	092H
	DB	00H
	DB	0e0H
	DB	029H
	DB	01fH
	DB	039H
	DB	059H
CONST	ENDS
;	COMDAT _CLSID_DeviceControlCategory
CONST	SEGMENT
_CLSID_DeviceControlCategory DD 0cc7bfb46H
	DW	0f175H
	DW	011d1H
	DB	0a3H
	DB	092H
	DB	00H
	DB	0e0H
	DB	029H
	DB	01fH
	DB	039H
	DB	059H
CONST	ENDS
;	COMDAT _CLSID_ActiveMovieCategories
CONST	SEGMENT
_CLSID_ActiveMovieCategories DD 0da4e3da0H
	DW	0d07dH
	DW	011d0H
	DB	0bdH
	DB	050H
	DB	00H
	DB	0a0H
	DB	0c9H
	DB	011H
	DB	0ceH
	DB	086H
CONST	ENDS
;	COMDAT _CLSID_DVDHWDecodersCategory
CONST	SEGMENT
_CLSID_DVDHWDecodersCategory DD 02721ae20H
	DW	07e70H
	DW	011d0H
	DB	0a5H
	DB	0d6H
	DB	028H
	DB	0dbH
	DB	04H
	DB	0c1H
	DB	00H
	DB	00H
CONST	ENDS
;	COMDAT _CLSID_MediaEncoderCategory
CONST	SEGMENT
_CLSID_MediaEncoderCategory DD 07d22e920H
	DW	05ca9H
	DW	04787H
	DB	08cH
	DB	02bH
	DB	0a6H
	DB	077H
	DB	09bH
	DB	0d1H
	DB	017H
	DB	081H
CONST	ENDS
;	COMDAT _CLSID_MediaMultiplexerCategory
CONST	SEGMENT
_CLSID_MediaMultiplexerCategory DD 0236c9559H
	DW	0adceH
	DW	04736H
	DB	0bfH
	DB	072H
	DB	0baH
	DB	0b3H
	DB	04eH
	DB	039H
	DB	021H
	DB	096H
CONST	ENDS
;	COMDAT _CLSID_FilterMapper2
CONST	SEGMENT
_CLSID_FilterMapper2 DD 0cda42200H
	DW	0bd88H
	DW	011d0H
	DB	0bdH
	DB	04eH
	DB	00H
	DB	0a0H
	DB	0c9H
	DB	011H
	DB	0ceH
	DB	086H
CONST	ENDS
;	COMDAT _CLSID_MemoryAllocator
CONST	SEGMENT
_CLSID_MemoryAllocator DD 01e651cc0H
	DW	0b199H
	DW	011d0H
	DB	082H
	DB	012H
	DB	00H
	DB	0c0H
	DB	04fH
	DB	0c3H
	DB	02cH
	DB	045H
CONST	ENDS
;	COMDAT _CLSID_MediaPropertyBag
CONST	SEGMENT
_CLSID_MediaPropertyBag DD 0cdbd8d00H
	DW	0c193H
	DW	011d0H
	DB	0bdH
	DB	04eH
	DB	00H
	DB	0a0H
	DB	0c9H
	DB	011H
	DB	0ceH
	DB	086H
CONST	ENDS
;	COMDAT _CLSID_DvdGraphBuilder
CONST	SEGMENT
_CLSID_DvdGraphBuilder DD 0fcc152b7H
	DW	0f372H
	DW	011d0H
	DB	08eH
	DB	00H
	DB	00H
	DB	0c0H
	DB	04fH
	DB	0d7H
	DB	0c0H
	DB	08bH
CONST	ENDS
;	COMDAT _CLSID_DVDNavigator
CONST	SEGMENT
_CLSID_DVDNavigator DD 09b8c4620H
	DW	02c1aH
	DW	011d0H
	DB	084H
	DB	093H
	DB	00H
	DB	0a0H
	DB	024H
	DB	038H
	DB	0adH
	DB	048H
CONST	ENDS
;	COMDAT _CLSID_DVDState
CONST	SEGMENT
_CLSID_DVDState DD 0f963c5cfH
	DW	0a659H
	DW	04a93H
	DB	096H
	DB	038H
	DB	0caH
	DB	0f3H
	DB	0cdH
	DB	027H
	DB	07dH
	DB	013H
CONST	ENDS
;	COMDAT _CLSID_SmartTee
CONST	SEGMENT
_CLSID_SmartTee DD 0cc58e280H
	DW	08aa1H
	DW	011d1H
	DB	0b3H
	DB	0f1H
	DB	00H
	DB	0aaH
	DB	00H
	DB	037H
	DB	061H
	DB	0c5H
CONST	ENDS
;	COMDAT _FORMAT_None
CONST	SEGMENT
_FORMAT_None DD	0f6417d6H
	DW	0c318H
	DW	011d0H
	DB	0a4H
	DB	03fH
	DB	00H
	DB	0a0H
	DB	0c9H
	DB	022H
	DB	031H
	DB	096H
CONST	ENDS
;	COMDAT _FORMAT_VideoInfo
CONST	SEGMENT
_FORMAT_VideoInfo DD 05589f80H
	DW	0c356H
	DW	011ceH
	DB	0bfH
	DB	01H
	DB	00H
	DB	0aaH
	DB	00H
	DB	055H
	DB	059H
	DB	05aH
CONST	ENDS
;	COMDAT _FORMAT_VideoInfo2
CONST	SEGMENT
_FORMAT_VideoInfo2 DD 0f72a76a0H
	DW	0eb0aH
	DW	011d0H
	DB	0acH
	DB	0e4H
	DB	00H
	DB	00H
	DB	0c0H
	DB	0ccH
	DB	016H
	DB	0baH
CONST	ENDS
;	COMDAT _FORMAT_WaveFormatEx
CONST	SEGMENT
_FORMAT_WaveFormatEx DD 05589f81H
	DW	0c356H
	DW	011ceH
	DB	0bfH
	DB	01H
	DB	00H
	DB	0aaH
	DB	00H
	DB	055H
	DB	059H
	DB	05aH
CONST	ENDS
;	COMDAT _FORMAT_MPEGVideo
CONST	SEGMENT
_FORMAT_MPEGVideo DD 05589f82H
	DW	0c356H
	DW	011ceH
	DB	0bfH
	DB	01H
	DB	00H
	DB	0aaH
	DB	00H
	DB	055H
	DB	059H
	DB	05aH
CONST	ENDS
;	COMDAT _FORMAT_MPEGStreams
CONST	SEGMENT
_FORMAT_MPEGStreams DD 05589f83H
	DW	0c356H
	DW	011ceH
	DB	0bfH
	DB	01H
	DB	00H
	DB	0aaH
	DB	00H
	DB	055H
	DB	059H
	DB	05aH
CONST	ENDS
;	COMDAT _FORMAT_DvInfo
CONST	SEGMENT
_FORMAT_DvInfo DD 05589f84H
	DW	0c356H
	DW	011ceH
	DB	0bfH
	DB	01H
	DB	00H
	DB	0aaH
	DB	00H
	DB	055H
	DB	059H
	DB	05aH
CONST	ENDS
;	COMDAT _CLSID_DirectDrawProperties
CONST	SEGMENT
_CLSID_DirectDrawProperties DD 0944d4c00H
	DW	0dd52H
	DW	011ceH
	DB	0bfH
	DB	0eH
	DB	00H
	DB	0aaH
	DB	00H
	DB	055H
	DB	059H
	DB	05aH
CONST	ENDS
;	COMDAT _CLSID_PerformanceProperties
CONST	SEGMENT
_CLSID_PerformanceProperties DD 059ce6880H
	DW	0acf8H
	DW	011cfH
	DB	0b5H
	DB	06eH
	DB	00H
	DB	080H
	DB	0c7H
	DB	0c4H
	DB	0b6H
	DB	08aH
CONST	ENDS
;	COMDAT _CLSID_QualityProperties
CONST	SEGMENT
_CLSID_QualityProperties DD 0418afb70H
	DW	0f8b8H
	DW	011ceH
	DB	0aaH
	DB	0c6H
	DB	00H
	DB	020H
	DB	0afH
	DB	0bH
	DB	099H
	DB	0a3H
CONST	ENDS
;	COMDAT _IID_IBaseVideoMixer
CONST	SEGMENT
_IID_IBaseVideoMixer DD 061ded640H
	DW	0e912H
	DW	011ceH
	DB	0a0H
	DB	099H
	DB	00H
	DB	0aaH
	DB	00H
	DB	047H
	DB	09aH
	DB	058H
CONST	ENDS
;	COMDAT _IID_IDirectDrawVideo
CONST	SEGMENT
_IID_IDirectDrawVideo DD 036d39eb0H
	DW	0dd75H
	DW	011ceH
	DB	0bfH
	DB	0eH
	DB	00H
	DB	0aaH
	DB	00H
	DB	055H
	DB	059H
	DB	05aH
CONST	ENDS
;	COMDAT _IID_IQualProp
CONST	SEGMENT
_IID_IQualProp DD 01bd0ecb0H
	DW	0f8e2H
	DW	011ceH
	DB	0aaH
	DB	0c6H
	DB	00H
	DB	020H
	DB	0afH
	DB	0bH
	DB	099H
	DB	0a3H
CONST	ENDS
;	COMDAT _CLSID_VPObject
CONST	SEGMENT
_CLSID_VPObject DD 0ce292861H
	DW	0fc88H
	DW	011d0H
	DB	09eH
	DB	069H
	DB	00H
	DB	0c0H
	DB	04fH
	DB	0d7H
	DB	0c1H
	DB	05bH
CONST	ENDS
;	COMDAT _IID_IVPObject
CONST	SEGMENT
_IID_IVPObject DD 0ce292862H
	DW	0fc88H
	DW	011d0H
	DB	09eH
	DB	069H
	DB	00H
	DB	0c0H
	DB	04fH
	DB	0d7H
	DB	0c1H
	DB	05bH
CONST	ENDS
;	COMDAT _IID_IVPControl
CONST	SEGMENT
_IID_IVPControl DD 025df12c1H
	DW	03de0H
	DW	011d1H
	DB	09eH
	DB	069H
	DB	00H
	DB	0c0H
	DB	04fH
	DB	0d7H
	DB	0c1H
	DB	05bH
CONST	ENDS
;	COMDAT _CLSID_VPVBIObject
CONST	SEGMENT
_CLSID_VPVBIObject DD 0814b9801H
	DW	01c88H
	DW	011d1H
	DB	0baH
	DB	0d9H
	DB	00H
	DB	060H
	DB	097H
	DB	044H
	DB	011H
	DB	01aH
CONST	ENDS
;	COMDAT _IID_IVPVBIObject
CONST	SEGMENT
_IID_IVPVBIObject DD 0814b9802H
	DW	01c88H
	DW	011d1H
	DB	0baH
	DB	0d9H
	DB	00H
	DB	060H
	DB	097H
	DB	044H
	DB	011H
	DB	01aH
CONST	ENDS
;	COMDAT _IID_IVPConfig
CONST	SEGMENT
_IID_IVPConfig DD 0bc29a660H
	DW	030e3H
	DW	011d0H
	DB	09eH
	DB	069H
	DB	00H
	DB	0c0H
	DB	04fH
	DB	0d7H
	DB	0c1H
	DB	05bH
CONST	ENDS
;	COMDAT _IID_IVPNotify
CONST	SEGMENT
_IID_IVPNotify DD 0c76794a1H
	DW	0d6c5H
	DW	011d0H
	DB	09eH
	DB	069H
	DB	00H
	DB	0c0H
	DB	04fH
	DB	0d7H
	DB	0c1H
	DB	05bH
CONST	ENDS
;	COMDAT _IID_IVPNotify2
CONST	SEGMENT
_IID_IVPNotify2 DD 0ebf47183H
	DW	08764H
	DW	011d1H
	DB	09eH
	DB	069H
	DB	00H
	DB	0c0H
	DB	04fH
	DB	0d7H
	DB	0c1H
	DB	05bH
CONST	ENDS
;	COMDAT _IID_IVPVBIConfig
CONST	SEGMENT
_IID_IVPVBIConfig DD 0ec529b00H
	DW	01a1fH
	DW	011d1H
	DB	0baH
	DB	0d9H
	DB	00H
	DB	060H
	DB	097H
	DB	044H
	DB	011H
	DB	01aH
CONST	ENDS
;	COMDAT _IID_IVPVBINotify
CONST	SEGMENT
_IID_IVPVBINotify DD 0ec529b01H
	DW	01a1fH
	DW	011d1H
	DB	0baH
	DB	0d9H
	DB	00H
	DB	060H
	DB	097H
	DB	044H
	DB	011H
	DB	01aH
CONST	ENDS
;	COMDAT _IID_IMixerPinConfig
CONST	SEGMENT
_IID_IMixerPinConfig DD 0593cdde1H
	DW	0759H
	DW	011d1H
	DB	09eH
	DB	069H
	DB	00H
	DB	0c0H
	DB	04fH
	DB	0d7H
	DB	0c1H
	DB	05bH
CONST	ENDS
;	COMDAT _IID_IMixerPinConfig2
CONST	SEGMENT
_IID_IMixerPinConfig2 DD 0ebf47182H
	DW	08764H
	DW	011d1H
	DB	09eH
	DB	069H
	DB	00H
	DB	0c0H
	DB	04fH
	DB	0d7H
	DB	0c1H
	DB	05bH
CONST	ENDS
;	COMDAT _IID_IDDVideoPortContainer
CONST	SEGMENT
_IID_IDDVideoPortContainer DD 06c142760H
	DW	0a733H
	DW	011ceH
	DB	0a5H
	DB	021H
	DB	00H
	DB	020H
	DB	0afH
	DB	0bH
	DB	0e5H
	DB	060H
CONST	ENDS
;	COMDAT _IID_IDirectDrawKernel
CONST	SEGMENT
_IID_IDirectDrawKernel DD 08d56c120H
	DW	06a08H
	DW	011d0H
	DB	09bH
	DB	06H
	DB	00H
	DB	0a0H
	DB	0c9H
	DB	03H
	DB	0a3H
	DB	0b8H
CONST	ENDS
;	COMDAT _IID_IDirectDrawSurfaceKernel
CONST	SEGMENT
_IID_IDirectDrawSurfaceKernel DD 060755da0H
	DW	06a40H
	DW	011d0H
	DB	09bH
	DB	06H
	DB	00H
	DB	0a0H
	DB	0c9H
	DB	03H
	DB	0a3H
	DB	0b8H
CONST	ENDS
;	COMDAT _CLSID_ModexProperties
CONST	SEGMENT
_CLSID_ModexProperties DD 0618aa30H
	DW	06bc4H
	DW	011cfH
	DB	0bfH
	DB	036H
	DB	00H
	DB	0aaH
	DB	00H
	DB	055H
	DB	059H
	DB	05aH
CONST	ENDS
;	COMDAT _IID_IFullScreenVideo
CONST	SEGMENT
_IID_IFullScreenVideo DD 0dd1d7110H
	DW	07836H
	DW	011cfH
	DB	0bfH
	DB	047H
	DB	00H
	DB	0aaH
	DB	00H
	DB	055H
	DB	059H
	DB	05aH
CONST	ENDS
;	COMDAT _IID_IFullScreenVideoEx
CONST	SEGMENT
_IID_IFullScreenVideoEx DD 053479470H
	DW	0f1ddH
	DW	011cfH
	DB	0bcH
	DB	042H
	DB	00H
	DB	0aaH
	DB	00H
	DB	0acH
	DB	074H
	DB	0f6H
CONST	ENDS
;	COMDAT _CLSID_DVDecPropertiesPage
CONST	SEGMENT
_CLSID_DVDecPropertiesPage DD 0101193c0H
	DW	0bfeH
	DW	011d0H
	DB	0afH
	DB	091H
	DB	00H
	DB	0aaH
	DB	00H
	DB	0b6H
	DB	07aH
	DB	042H
CONST	ENDS
;	COMDAT _CLSID_DVEncPropertiesPage
CONST	SEGMENT
_CLSID_DVEncPropertiesPage DD 04150f050H
	DW	0bb6fH
	DW	011d0H
	DB	0afH
	DB	0b9H
	DB	00H
	DB	0aaH
	DB	00H
	DB	0b6H
	DB	07aH
	DB	042H
CONST	ENDS
;	COMDAT _CLSID_DVMuxPropertyPage
CONST	SEGMENT
_CLSID_DVMuxPropertyPage DD 04db880e0H
	DW	0c10dH
	DW	011d0H
	DB	0afH
	DB	0b9H
	DB	00H
	DB	0aaH
	DB	00H
	DB	0b6H
	DB	07aH
	DB	042H
CONST	ENDS
;	COMDAT _IID_IAMDirectSound
CONST	SEGMENT
_IID_IAMDirectSound DD 0546f4260H
	DW	0d53eH
	DW	011cfH
	DB	0b3H
	DB	0f0H
	DB	00H
	DB	0aaH
	DB	00H
	DB	037H
	DB	061H
	DB	0c5H
CONST	ENDS
;	COMDAT _IID_IMpegAudioDecoder
CONST	SEGMENT
_IID_IMpegAudioDecoder DD 0b45dd570H
	DW	03c77H
	DW	011d1H
	DB	0abH
	DB	0e1H
	DB	00H
	DB	0a0H
	DB	0c9H
	DB	05H
	DB	0f3H
	DB	075H
CONST	ENDS
;	COMDAT _IID_IAMLine21Decoder
CONST	SEGMENT
_IID_IAMLine21Decoder DD 06e8d4a21H
	DW	0310cH
	DW	011d0H
	DB	0b7H
	DB	09aH
	DB	00H
	DB	0aaH
	DB	00H
	DB	037H
	DB	067H
	DB	0a7H
CONST	ENDS
;	COMDAT _IID_IAMWstDecoder
CONST	SEGMENT
_IID_IAMWstDecoder DD 0c056de21H
	DW	075c2H
	DW	011d3H
	DB	0a1H
	DB	084H
	DB	00H
	DB	010H
	DB	05aH
	DB	0efH
	DB	09fH
	DB	033H
CONST	ENDS
;	COMDAT _CLSID_WstDecoderPropertyPage
CONST	SEGMENT
_CLSID_WstDecoderPropertyPage DD 04e27f80H
	DW	091e4H
	DW	011d3H
	DB	0a1H
	DB	084H
	DB	00H
	DB	010H
	DB	05aH
	DB	0efH
	DB	09fH
	DB	033H
CONST	ENDS
;	COMDAT _FORMAT_AnalogVideo
CONST	SEGMENT
_FORMAT_AnalogVideo DD 0482dde0H
	DW	07817H
	DW	011cfH
	DB	08aH
	DB	03H
	DB	00H
	DB	0aaH
	DB	00H
	DB	06eH
	DB	0cbH
	DB	065H
CONST	ENDS
;	COMDAT _MEDIATYPE_AnalogVideo
CONST	SEGMENT
_MEDIATYPE_AnalogVideo DD 0482dde1H
	DW	07817H
	DW	011cfH
	DB	08aH
	DB	03H
	DB	00H
	DB	0aaH
	DB	00H
	DB	06eH
	DB	0cbH
	DB	065H
CONST	ENDS
;	COMDAT _MEDIASUBTYPE_AnalogVideo_NTSC_M
CONST	SEGMENT
_MEDIASUBTYPE_AnalogVideo_NTSC_M DD 0482dde2H
	DW	07817H
	DW	011cfH
	DB	08aH
	DB	03H
	DB	00H
	DB	0aaH
	DB	00H
	DB	06eH
	DB	0cbH
	DB	065H
CONST	ENDS
;	COMDAT _MEDIASUBTYPE_AnalogVideo_PAL_B
CONST	SEGMENT
_MEDIASUBTYPE_AnalogVideo_PAL_B DD 0482dde5H
	DW	07817H
	DW	011cfH
	DB	08aH
	DB	03H
	DB	00H
	DB	0aaH
	DB	00H
	DB	06eH
	DB	0cbH
	DB	065H
CONST	ENDS
;	COMDAT _MEDIASUBTYPE_AnalogVideo_PAL_D
CONST	SEGMENT
_MEDIASUBTYPE_AnalogVideo_PAL_D DD 0482dde6H
	DW	07817H
	DW	011cfH
	DB	08aH
	DB	03H
	DB	00H
	DB	0aaH
	DB	00H
	DB	06eH
	DB	0cbH
	DB	065H
CONST	ENDS
;	COMDAT _MEDIASUBTYPE_AnalogVideo_PAL_G
CONST	SEGMENT
_MEDIASUBTYPE_AnalogVideo_PAL_G DD 0482dde7H
	DW	07817H
	DW	011cfH
	DB	08aH
	DB	03H
	DB	00H
	DB	0aaH
	DB	00H
	DB	06eH
	DB	0cbH
	DB	065H
CONST	ENDS
;	COMDAT _MEDIASUBTYPE_AnalogVideo_PAL_H
CONST	SEGMENT
_MEDIASUBTYPE_AnalogVideo_PAL_H DD 0482dde8H
	DW	07817H
	DW	011cfH
	DB	08aH
	DB	03H
	DB	00H
	DB	0aaH
	DB	00H
	DB	06eH
	DB	0cbH
	DB	065H
CONST	ENDS
;	COMDAT _MEDIASUBTYPE_AnalogVideo_PAL_I
CONST	SEGMENT
_MEDIASUBTYPE_AnalogVideo_PAL_I DD 0482dde9H
	DW	07817H
	DW	011cfH
	DB	08aH
	DB	03H
	DB	00H
	DB	0aaH
	DB	00H
	DB	06eH
	DB	0cbH
	DB	065H
CONST	ENDS
;	COMDAT _MEDIASUBTYPE_AnalogVideo_PAL_M
CONST	SEGMENT
_MEDIASUBTYPE_AnalogVideo_PAL_M DD 0482ddeaH
	DW	07817H
	DW	011cfH
	DB	08aH
	DB	03H
	DB	00H
	DB	0aaH
	DB	00H
	DB	06eH
	DB	0cbH
	DB	065H
CONST	ENDS
;	COMDAT _MEDIASUBTYPE_AnalogVideo_PAL_N
CONST	SEGMENT
_MEDIASUBTYPE_AnalogVideo_PAL_N DD 0482ddebH
	DW	07817H
	DW	011cfH
	DB	08aH
	DB	03H
	DB	00H
	DB	0aaH
	DB	00H
	DB	06eH
	DB	0cbH
	DB	065H
CONST	ENDS
;	COMDAT _MEDIASUBTYPE_AnalogVideo_PAL_N_COMBO
CONST	SEGMENT
_MEDIASUBTYPE_AnalogVideo_PAL_N_COMBO DD 0482ddecH
	DW	07817H
	DW	011cfH
	DB	08aH
	DB	03H
	DB	00H
	DB	0aaH
	DB	00H
	DB	06eH
	DB	0cbH
	DB	065H
CONST	ENDS
;	COMDAT _MEDIASUBTYPE_AnalogVideo_SECAM_B
CONST	SEGMENT
_MEDIASUBTYPE_AnalogVideo_SECAM_B DD 0482ddf0H
	DW	07817H
	DW	011cfH
	DB	08aH
	DB	03H
	DB	00H
	DB	0aaH
	DB	00H
	DB	06eH
	DB	0cbH
	DB	065H
CONST	ENDS
;	COMDAT _MEDIASUBTYPE_AnalogVideo_SECAM_D
CONST	SEGMENT
_MEDIASUBTYPE_AnalogVideo_SECAM_D DD 0482ddf1H
	DW	07817H
	DW	011cfH
	DB	08aH
	DB	03H
	DB	00H
	DB	0aaH
	DB	00H
	DB	06eH
	DB	0cbH
	DB	065H
CONST	ENDS
;	COMDAT _MEDIASUBTYPE_AnalogVideo_SECAM_G
CONST	SEGMENT
_MEDIASUBTYPE_AnalogVideo_SECAM_G DD 0482ddf2H
	DW	07817H
	DW	011cfH
	DB	08aH
	DB	03H
	DB	00H
	DB	0aaH
	DB	00H
	DB	06eH
	DB	0cbH
	DB	065H
CONST	ENDS
;	COMDAT _MEDIASUBTYPE_AnalogVideo_SECAM_H
CONST	SEGMENT
_MEDIASUBTYPE_AnalogVideo_SECAM_H DD 0482ddf3H
	DW	07817H
	DW	011cfH
	DB	08aH
	DB	03H
	DB	00H
	DB	0aaH
	DB	00H
	DB	06eH
	DB	0cbH
	DB	065H
CONST	ENDS
;	COMDAT _MEDIASUBTYPE_AnalogVideo_SECAM_K
CONST	SEGMENT
_MEDIASUBTYPE_AnalogVideo_SECAM_K DD 0482ddf4H
	DW	07817H
	DW	011cfH
	DB	08aH
	DB	03H
	DB	00H
	DB	0aaH
	DB	00H
	DB	06eH
	DB	0cbH
	DB	065H
CONST	ENDS
;	COMDAT _MEDIASUBTYPE_AnalogVideo_SECAM_K1
CONST	SEGMENT
_MEDIASUBTYPE_AnalogVideo_SECAM_K1 DD 0482ddf5H
	DW	07817H
	DW	011cfH
	DB	08aH
	DB	03H
	DB	00H
	DB	0aaH
	DB	00H
	DB	06eH
	DB	0cbH
	DB	065H
CONST	ENDS
;	COMDAT _MEDIASUBTYPE_AnalogVideo_SECAM_L
CONST	SEGMENT
_MEDIASUBTYPE_AnalogVideo_SECAM_L DD 0482ddf6H
	DW	07817H
	DW	011cfH
	DB	08aH
	DB	03H
	DB	00H
	DB	0aaH
	DB	00H
	DB	06eH
	DB	0cbH
	DB	065H
CONST	ENDS
;	COMDAT _MEDIATYPE_AnalogAudio
CONST	SEGMENT
_MEDIATYPE_AnalogAudio DD 0482dee1H
	DW	07817H
	DW	011cfH
	DB	08aH
	DB	03H
	DB	00H
	DB	0aaH
	DB	00H
	DB	06eH
	DB	0cbH
	DB	065H
CONST	ENDS
;	COMDAT _MEDIATYPE_MPEG2_PACK
CONST	SEGMENT
_MEDIATYPE_MPEG2_PACK DD 036523b13H
	DW	08ee5H
	DW	011d1H
	DB	08cH
	DB	0a3H
	DB	00H
	DB	060H
	DB	0b0H
	DB	057H
	DB	066H
	DB	04aH
CONST	ENDS
;	COMDAT _MEDIATYPE_MPEG2_PES
CONST	SEGMENT
_MEDIATYPE_MPEG2_PES DD 0e06d8020H
	DW	0db46H
	DW	011cfH
	DB	0b4H
	DB	0d1H
	DB	00H
	DB	080H
	DB	05fH
	DB	06cH
	DB	0bbH
	DB	0eaH
CONST	ENDS
;	COMDAT _MEDIATYPE_MPEG2_SECTIONS
CONST	SEGMENT
_MEDIATYPE_MPEG2_SECTIONS DD 0455f176cH
	DW	04b06H
	DW	047ceH
	DB	09aH
	DB	0efH
	DB	08cH
	DB	0aeH
	DB	0f7H
	DB	03dH
	DB	0f7H
	DB	0b5H
CONST	ENDS
;	COMDAT _MEDIASUBTYPE_ATSC_SI
CONST	SEGMENT
_MEDIASUBTYPE_ATSC_SI DD 0b3c7397cH
	DW	0d303H
	DW	0414dH
	DB	0b3H
	DB	03cH
	DB	04eH
	DB	0d2H
	DB	0c9H
	DB	0d2H
	DB	097H
	DB	033H
CONST	ENDS
;	COMDAT _MEDIASUBTYPE_DVB_SI
CONST	SEGMENT
_MEDIASUBTYPE_DVB_SI DD 0e9dd31a3H
	DW	0221dH
	DW	04adbH
	DB	085H
	DB	032H
	DB	09aH
	DB	0f3H
	DB	09H
	DB	0c1H
	DB	0a4H
	DB	08H
CONST	ENDS
;	COMDAT _MEDIASUBTYPE_MPEG2DATA
CONST	SEGMENT
_MEDIASUBTYPE_MPEG2DATA DD 0c892e55bH
	DW	0252dH
	DW	042b5H
	DB	0a3H
	DB	016H
	DB	0d9H
	DB	097H
	DB	0e7H
	DB	0a5H
	DB	0d9H
	DB	095H
CONST	ENDS
;	COMDAT _MEDIASUBTYPE_MPEG2_VIDEO
CONST	SEGMENT
_MEDIASUBTYPE_MPEG2_VIDEO DD 0e06d8026H
	DW	0db46H
	DW	011cfH
	DB	0b4H
	DB	0d1H
	DB	00H
	DB	080H
	DB	05fH
	DB	06cH
	DB	0bbH
	DB	0eaH
CONST	ENDS
;	COMDAT _FORMAT_MPEG2_VIDEO
CONST	SEGMENT
_FORMAT_MPEG2_VIDEO DD 0e06d80e3H
	DW	0db46H
	DW	011cfH
	DB	0b4H
	DB	0d1H
	DB	00H
	DB	080H
	DB	05fH
	DB	06cH
	DB	0bbH
	DB	0eaH
CONST	ENDS
;	COMDAT _FORMAT_VIDEOINFO2
CONST	SEGMENT
_FORMAT_VIDEOINFO2 DD 0f72a76a0H
	DW	0eb0aH
	DW	011d0H
	DB	0acH
	DB	0e4H
	DB	00H
	DB	00H
	DB	0c0H
	DB	0ccH
	DB	016H
	DB	0baH
CONST	ENDS
;	COMDAT _MEDIASUBTYPE_MPEG2_PROGRAM
CONST	SEGMENT
_MEDIASUBTYPE_MPEG2_PROGRAM DD 0e06d8022H
	DW	0db46H
	DW	011cfH
	DB	0b4H
	DB	0d1H
	DB	00H
	DB	080H
	DB	05fH
	DB	06cH
	DB	0bbH
	DB	0eaH
CONST	ENDS
;	COMDAT _MEDIASUBTYPE_MPEG2_TRANSPORT
CONST	SEGMENT
_MEDIASUBTYPE_MPEG2_TRANSPORT DD 0e06d8023H
	DW	0db46H
	DW	011cfH
	DB	0b4H
	DB	0d1H
	DB	00H
	DB	080H
	DB	05fH
	DB	06cH
	DB	0bbH
	DB	0eaH
CONST	ENDS
;	COMDAT _MEDIASUBTYPE_MPEG2_TRANSPORT_STRIDE
CONST	SEGMENT
_MEDIASUBTYPE_MPEG2_TRANSPORT_STRIDE DD 0138aa9a4H
	DW	01ee2H
	DW	04c5bH
	DB	098H
	DB	08eH
	DB	019H
	DB	0abH
	DB	0fdH
	DB	0bcH
	DB	08aH
	DB	011H
CONST	ENDS
;	COMDAT _MEDIASUBTYPE_MPEG2_AUDIO
CONST	SEGMENT
_MEDIASUBTYPE_MPEG2_AUDIO DD 0e06d802bH
	DW	0db46H
	DW	011cfH
	DB	0b4H
	DB	0d1H
	DB	00H
	DB	080H
	DB	05fH
	DB	06cH
	DB	0bbH
	DB	0eaH
CONST	ENDS
;	COMDAT _MEDIASUBTYPE_DOLBY_AC3
CONST	SEGMENT
_MEDIASUBTYPE_DOLBY_AC3 DD 0e06d802cH
	DW	0db46H
	DW	011cfH
	DB	0b4H
	DB	0d1H
	DB	00H
	DB	080H
	DB	05fH
	DB	06cH
	DB	0bbH
	DB	0eaH
CONST	ENDS
;	COMDAT _MEDIASUBTYPE_DVD_SUBPICTURE
CONST	SEGMENT
_MEDIASUBTYPE_DVD_SUBPICTURE DD 0e06d802dH
	DW	0db46H
	DW	011cfH
	DB	0b4H
	DB	0d1H
	DB	00H
	DB	080H
	DB	05fH
	DB	06cH
	DB	0bbH
	DB	0eaH
CONST	ENDS
;	COMDAT _MEDIASUBTYPE_DVD_LPCM_AUDIO
CONST	SEGMENT
_MEDIASUBTYPE_DVD_LPCM_AUDIO DD 0e06d8032H
	DW	0db46H
	DW	011cfH
	DB	0b4H
	DB	0d1H
	DB	00H
	DB	080H
	DB	05fH
	DB	06cH
	DB	0bbH
	DB	0eaH
CONST	ENDS
;	COMDAT _MEDIASUBTYPE_DTS
CONST	SEGMENT
_MEDIASUBTYPE_DTS DD 0e06d8033H
	DW	0db46H
	DW	011cfH
	DB	0b4H
	DB	0d1H
	DB	00H
	DB	080H
	DB	05fH
	DB	06cH
	DB	0bbH
	DB	0eaH
CONST	ENDS
;	COMDAT _MEDIASUBTYPE_SDDS
CONST	SEGMENT
_MEDIASUBTYPE_SDDS DD 0e06d8034H
	DW	0db46H
	DW	011cfH
	DB	0b4H
	DB	0d1H
	DB	00H
	DB	080H
	DB	05fH
	DB	06cH
	DB	0bbH
	DB	0eaH
CONST	ENDS
;	COMDAT _MEDIATYPE_DVD_ENCRYPTED_PACK
CONST	SEGMENT
_MEDIATYPE_DVD_ENCRYPTED_PACK DD 0ed0b916aH
	DW	044dH
	DW	011d1H
	DB	0aaH
	DB	078H
	DB	00H
	DB	0c0H
	DB	04fH
	DB	0c3H
	DB	01dH
	DB	060H
CONST	ENDS
;	COMDAT _MEDIATYPE_DVD_NAVIGATION
CONST	SEGMENT
_MEDIATYPE_DVD_NAVIGATION DD 0e06d802eH
	DW	0db46H
	DW	011cfH
	DB	0b4H
	DB	0d1H
	DB	00H
	DB	080H
	DB	05fH
	DB	06cH
	DB	0bbH
	DB	0eaH
CONST	ENDS
;	COMDAT _MEDIASUBTYPE_DVD_NAVIGATION_PCI
CONST	SEGMENT
_MEDIASUBTYPE_DVD_NAVIGATION_PCI DD 0e06d802fH
	DW	0db46H
	DW	011cfH
	DB	0b4H
	DB	0d1H
	DB	00H
	DB	080H
	DB	05fH
	DB	06cH
	DB	0bbH
	DB	0eaH
CONST	ENDS
;	COMDAT _MEDIASUBTYPE_DVD_NAVIGATION_DSI
CONST	SEGMENT
_MEDIASUBTYPE_DVD_NAVIGATION_DSI DD 0e06d8030H
	DW	0db46H
	DW	011cfH
	DB	0b4H
	DB	0d1H
	DB	00H
	DB	080H
	DB	05fH
	DB	06cH
	DB	0bbH
	DB	0eaH
CONST	ENDS
;	COMDAT _MEDIASUBTYPE_DVD_NAVIGATION_PROVIDER
CONST	SEGMENT
_MEDIASUBTYPE_DVD_NAVIGATION_PROVIDER DD 0e06d8031H
	DW	0db46H
	DW	011cfH
	DB	0b4H
	DB	0d1H
	DB	00H
	DB	080H
	DB	05fH
	DB	06cH
	DB	0bbH
	DB	0eaH
CONST	ENDS
;	COMDAT _FORMAT_MPEG2Video
CONST	SEGMENT
_FORMAT_MPEG2Video DD 0e06d80e3H
	DW	0db46H
	DW	011cfH
	DB	0b4H
	DB	0d1H
	DB	00H
	DB	080H
	DB	05fH
	DB	06cH
	DB	0bbH
	DB	0eaH
CONST	ENDS
;	COMDAT _FORMAT_DolbyAC3
CONST	SEGMENT
_FORMAT_DolbyAC3 DD 0e06d80e4H
	DW	0db46H
	DW	011cfH
	DB	0b4H
	DB	0d1H
	DB	00H
	DB	080H
	DB	05fH
	DB	06cH
	DB	0bbH
	DB	0eaH
CONST	ENDS
;	COMDAT _FORMAT_MPEG2Audio
CONST	SEGMENT
_FORMAT_MPEG2Audio DD 0e06d80e5H
	DW	0db46H
	DW	011cfH
	DB	0b4H
	DB	0d1H
	DB	00H
	DB	080H
	DB	05fH
	DB	06cH
	DB	0bbH
	DB	0eaH
CONST	ENDS
;	COMDAT _FORMAT_DVD_LPCMAudio
CONST	SEGMENT
_FORMAT_DVD_LPCMAudio DD 0e06d80e6H
	DW	0db46H
	DW	011cfH
	DB	0b4H
	DB	0d1H
	DB	00H
	DB	080H
	DB	05fH
	DB	06cH
	DB	0bbH
	DB	0eaH
CONST	ENDS
;	COMDAT _AM_KSPROPSETID_AC3
CONST	SEGMENT
_AM_KSPROPSETID_AC3 DD 0bfabe720H
	DW	06e1fH
	DW	011d0H
	DB	0bcH
	DB	0f2H
	DB	044H
	DB	045H
	DB	053H
	DB	054H
	DB	00H
	DB	00H
CONST	ENDS
;	COMDAT _AM_KSPROPSETID_DvdSubPic
CONST	SEGMENT
_AM_KSPROPSETID_DvdSubPic DD 0ac390460H
	DW	043afH
	DW	011d0H
	DB	0bdH
	DB	06aH
	DB	00H
	DB	035H
	DB	05H
	DB	0c1H
	DB	03H
	DB	0a9H
CONST	ENDS
;	COMDAT _AM_KSPROPSETID_CopyProt
CONST	SEGMENT
_AM_KSPROPSETID_CopyProt DD 0e8a0a40H
	DW	06aefH
	DW	011d0H
	DB	09eH
	DB	0d0H
	DB	00H
	DB	0a0H
	DB	024H
	DB	0caH
	DB	019H
	DB	0b3H
CONST	ENDS
;	COMDAT _AM_KSPROPSETID_TSRateChange
CONST	SEGMENT
_AM_KSPROPSETID_TSRateChange DD 0a503c5c0H
	DW	01d1dH
	DW	011d1H
	DB	0adH
	DB	080H
	DB	044H
	DB	045H
	DB	053H
	DB	054H
	DB	00H
	DB	00H
CONST	ENDS
;	COMDAT _AM_KSPROPSETID_DVD_RateChange
CONST	SEGMENT
_AM_KSPROPSETID_DVD_RateChange DD 03577eb09H
	DW	09582H
	DW	0477fH
	DB	0b2H
	DB	09cH
	DB	0b0H
	DB	0c4H
	DB	052H
	DB	0a4H
	DB	0ffH
	DB	09aH
CONST	ENDS
;	COMDAT _AM_KSPROPSETID_DvdKaraoke
CONST	SEGMENT
_AM_KSPROPSETID_DvdKaraoke DD 0ae4720aeH
	DW	0aa71H
	DW	042d8H
	DB	0b8H
	DB	02aH
	DB	0ffH
	DB	0fdH
	DB	0f5H
	DB	08bH
	DB	076H
	DB	0fdH
CONST	ENDS
;	COMDAT _AM_KSPROPSETID_FrameStep
CONST	SEGMENT
_AM_KSPROPSETID_FrameStep DD 0c830acbdH
	DW	0ab07H
	DW	0492fH
	DB	088H
	DB	052H
	DB	045H
	DB	0b6H
	DB	098H
	DB	07cH
	DB	029H
	DB	079H
CONST	ENDS
;	COMDAT _AM_KSCATEGORY_CAPTURE
CONST	SEGMENT
_AM_KSCATEGORY_CAPTURE DD 065e8773dH
	DW	08f56H
	DW	011d0H
	DB	0a3H
	DB	0b9H
	DB	00H
	DB	0a0H
	DB	0c9H
	DB	022H
	DB	031H
	DB	096H
CONST	ENDS
;	COMDAT _AM_KSCATEGORY_RENDER
CONST	SEGMENT
_AM_KSCATEGORY_RENDER DD 065e8773eH
	DW	08f56H
	DW	011d0H
	DB	0a3H
	DB	0b9H
	DB	00H
	DB	0a0H
	DB	0c9H
	DB	022H
	DB	031H
	DB	096H
CONST	ENDS
;	COMDAT _AM_KSCATEGORY_DATACOMPRESSOR
CONST	SEGMENT
_AM_KSCATEGORY_DATACOMPRESSOR DD 01e84c900H
	DW	07e70H
	DW	011d0H
	DB	0a5H
	DB	0d6H
	DB	028H
	DB	0dbH
	DB	04H
	DB	0c1H
	DB	00H
	DB	00H
CONST	ENDS
;	COMDAT _AM_KSCATEGORY_AUDIO
CONST	SEGMENT
_AM_KSCATEGORY_AUDIO DD 06994ad04H
	DW	093efH
	DW	011d0H
	DB	0a3H
	DB	0ccH
	DB	00H
	DB	0a0H
	DB	0c9H
	DB	022H
	DB	031H
	DB	096H
CONST	ENDS
;	COMDAT _AM_KSCATEGORY_VIDEO
CONST	SEGMENT
_AM_KSCATEGORY_VIDEO DD 06994ad05H
	DW	093efH
	DW	011d0H
	DB	0a3H
	DB	0ccH
	DB	00H
	DB	0a0H
	DB	0c9H
	DB	022H
	DB	031H
	DB	096H
CONST	ENDS
;	COMDAT _AM_KSCATEGORY_TVTUNER
CONST	SEGMENT
_AM_KSCATEGORY_TVTUNER DD 0a799a800H
	DW	0a46dH
	DW	011d0H
	DB	0a1H
	DB	08cH
	DB	00H
	DB	0a0H
	DB	024H
	DB	01H
	DB	0dcH
	DB	0d4H
CONST	ENDS
;	COMDAT _AM_KSCATEGORY_CROSSBAR
CONST	SEGMENT
_AM_KSCATEGORY_CROSSBAR DD 0a799a801H
	DW	0a46dH
	DW	011d0H
	DB	0a1H
	DB	08cH
	DB	00H
	DB	0a0H
	DB	024H
	DB	01H
	DB	0dcH
	DB	0d4H
CONST	ENDS
;	COMDAT _AM_KSCATEGORY_TVAUDIO
CONST	SEGMENT
_AM_KSCATEGORY_TVAUDIO DD 0a799a802H
	DW	0a46dH
	DW	011d0H
	DB	0a1H
	DB	08cH
	DB	00H
	DB	0a0H
	DB	024H
	DB	01H
	DB	0dcH
	DB	0d4H
CONST	ENDS
;	COMDAT _AM_KSCATEGORY_VBICODEC
CONST	SEGMENT
_AM_KSCATEGORY_VBICODEC DD 07dad660H
	DW	022f1H
	DW	011d1H
	DB	0a9H
	DB	0f4H
	DB	00H
	DB	0c0H
	DB	04fH
	DB	0bbH
	DB	0deH
	DB	08fH
CONST	ENDS
;	COMDAT _AM_KSCATEGORY_SPLITTER
CONST	SEGMENT
_AM_KSCATEGORY_SPLITTER DD 0a4252a0H
	DW	07e70H
	DW	011d0H
	DB	0a5H
	DB	0d6H
	DB	028H
	DB	0dbH
	DB	04H
	DB	0c1H
	DB	00H
	DB	00H
CONST	ENDS
;	COMDAT _IID_IKsInterfaceHandler
CONST	SEGMENT
_IID_IKsInterfaceHandler DD 0d3abc7e0H
	DW	09a61H
	DW	011d0H
	DB	0a4H
	DB	0dH
	DB	00H
	DB	0a0H
	DB	0c9H
	DB	022H
	DB	031H
	DB	096H
CONST	ENDS
;	COMDAT _IID_IKsDataTypeHandler
CONST	SEGMENT
_IID_IKsDataTypeHandler DD 05ffbaa02H
	DW	049a3H
	DW	011d0H
	DB	09fH
	DB	036H
	DB	00H
	DB	0aaH
	DB	00H
	DB	0a2H
	DB	016H
	DB	0a1H
CONST	ENDS
;	COMDAT _IID_IKsPin
CONST	SEGMENT
_IID_IKsPin DD	0b61178d1H
	DW	0a2d9H
	DW	011cfH
	DB	09eH
	DB	053H
	DB	00H
	DB	0aaH
	DB	00H
	DB	0a2H
	DB	016H
	DB	0a1H
CONST	ENDS
;	COMDAT _IID_IKsControl
CONST	SEGMENT
_IID_IKsControl DD 028f54685H
	DW	06fdH
	DW	011d2H
	DB	0b2H
	DB	07aH
	DB	00H
	DB	0a0H
	DB	0c9H
	DB	022H
	DB	031H
	DB	096H
CONST	ENDS
;	COMDAT _IID_IKsPinFactory
CONST	SEGMENT
_IID_IKsPinFactory DD 0cd5ebe6bH
	DW	08b6eH
	DW	011d1H
	DB	08aH
	DB	0e0H
	DB	00H
	DB	0a0H
	DB	0c9H
	DB	022H
	DB	031H
	DB	096H
CONST	ENDS
;	COMDAT _AM_INTERFACESETID_Standard
CONST	SEGMENT
_AM_INTERFACESETID_Standard DD 01a8766a0H
	DW	062ceH
	DW	011cfH
	DB	0a5H
	DB	0d6H
	DB	028H
	DB	0dbH
	DB	04H
	DB	0c1H
	DB	00H
	DB	00H
CONST	ENDS
;	COMDAT _TIME_FORMAT_NONE
CONST	SEGMENT
_TIME_FORMAT_NONE DD 00H
	DW	00H
	DW	00H
	DB	00H
	DB	00H
	DB	00H
	DB	00H
	DB	00H
	DB	00H
	DB	00H
	DB	00H
CONST	ENDS
;	COMDAT _TIME_FORMAT_FRAME
CONST	SEGMENT
_TIME_FORMAT_FRAME DD 07b785570H
	DW	08c82H
	DW	011cfH
	DB	0bcH
	DB	0cH
	DB	00H
	DB	0aaH
	DB	00H
	DB	0acH
	DB	074H
	DB	0f6H
CONST	ENDS
;	COMDAT _TIME_FORMAT_BYTE
CONST	SEGMENT
_TIME_FORMAT_BYTE DD 07b785571H
	DW	08c82H
	DW	011cfH
	DB	0bcH
	DB	0cH
	DB	00H
	DB	0aaH
	DB	00H
	DB	0acH
	DB	074H
	DB	0f6H
CONST	ENDS
;	COMDAT _TIME_FORMAT_SAMPLE
CONST	SEGMENT
_TIME_FORMAT_SAMPLE DD 07b785572H
	DW	08c82H
	DW	011cfH
	DB	0bcH
	DB	0cH
	DB	00H
	DB	0aaH
	DB	00H
	DB	0acH
	DB	074H
	DB	0f6H
CONST	ENDS
;	COMDAT _TIME_FORMAT_FIELD
CONST	SEGMENT
_TIME_FORMAT_FIELD DD 07b785573H
	DW	08c82H
	DW	011cfH
	DB	0bcH
	DB	0cH
	DB	00H
	DB	0aaH
	DB	00H
	DB	0acH
	DB	074H
	DB	0f6H
CONST	ENDS
;	COMDAT _TIME_FORMAT_MEDIA_TIME
CONST	SEGMENT
_TIME_FORMAT_MEDIA_TIME DD 07b785574H
	DW	08c82H
	DW	011cfH
	DB	0bcH
	DB	0cH
	DB	00H
	DB	0aaH
	DB	00H
	DB	0acH
	DB	074H
	DB	0f6H
CONST	ENDS
;	COMDAT _AMPROPSETID_Pin
CONST	SEGMENT
_AMPROPSETID_Pin DD 09b00f101H
	DW	01567H
	DW	011d1H
	DB	0b3H
	DB	0f1H
	DB	00H
	DB	0aaH
	DB	00H
	DB	037H
	DB	061H
	DB	0c5H
CONST	ENDS
;	COMDAT _PIN_CATEGORY_PREVIEW
CONST	SEGMENT
_PIN_CATEGORY_PREVIEW DD 0fb6c4282H
	DW	0353H
	DW	011d1H
	DB	090H
	DB	05fH
	DB	00H
	DB	00H
	DB	0c0H
	DB	0ccH
	DB	016H
	DB	0baH
CONST	ENDS
;	COMDAT _PIN_CATEGORY_ANALOGVIDEOIN
CONST	SEGMENT
_PIN_CATEGORY_ANALOGVIDEOIN DD 0fb6c4283H
	DW	0353H
	DW	011d1H
	DB	090H
	DB	05fH
	DB	00H
	DB	00H
	DB	0c0H
	DB	0ccH
	DB	016H
	DB	0baH
CONST	ENDS
;	COMDAT _PIN_CATEGORY_VBI
CONST	SEGMENT
_PIN_CATEGORY_VBI DD 0fb6c4284H
	DW	0353H
	DW	011d1H
	DB	090H
	DB	05fH
	DB	00H
	DB	00H
	DB	0c0H
	DB	0ccH
	DB	016H
	DB	0baH
CONST	ENDS
;	COMDAT _PIN_CATEGORY_VIDEOPORT
CONST	SEGMENT
_PIN_CATEGORY_VIDEOPORT DD 0fb6c4285H
	DW	0353H
	DW	011d1H
	DB	090H
	DB	05fH
	DB	00H
	DB	00H
	DB	0c0H
	DB	0ccH
	DB	016H
	DB	0baH
CONST	ENDS
;	COMDAT _PIN_CATEGORY_NABTS
CONST	SEGMENT
_PIN_CATEGORY_NABTS DD 0fb6c4286H
	DW	0353H
	DW	011d1H
	DB	090H
	DB	05fH
	DB	00H
	DB	00H
	DB	0c0H
	DB	0ccH
	DB	016H
	DB	0baH
CONST	ENDS
;	COMDAT _PIN_CATEGORY_EDS
CONST	SEGMENT
_PIN_CATEGORY_EDS DD 0fb6c4287H
	DW	0353H
	DW	011d1H
	DB	090H
	DB	05fH
	DB	00H
	DB	00H
	DB	0c0H
	DB	0ccH
	DB	016H
	DB	0baH
CONST	ENDS
;	COMDAT _PIN_CATEGORY_TELETEXT
CONST	SEGMENT
_PIN_CATEGORY_TELETEXT DD 0fb6c4288H
	DW	0353H
	DW	011d1H
	DB	090H
	DB	05fH
	DB	00H
	DB	00H
	DB	0c0H
	DB	0ccH
	DB	016H
	DB	0baH
CONST	ENDS
;	COMDAT _PIN_CATEGORY_CC
CONST	SEGMENT
_PIN_CATEGORY_CC DD 0fb6c4289H
	DW	0353H
	DW	011d1H
	DB	090H
	DB	05fH
	DB	00H
	DB	00H
	DB	0c0H
	DB	0ccH
	DB	016H
	DB	0baH
CONST	ENDS
;	COMDAT _PIN_CATEGORY_STILL
CONST	SEGMENT
_PIN_CATEGORY_STILL DD 0fb6c428aH
	DW	0353H
	DW	011d1H
	DB	090H
	DB	05fH
	DB	00H
	DB	00H
	DB	0c0H
	DB	0ccH
	DB	016H
	DB	0baH
CONST	ENDS
;	COMDAT _PIN_CATEGORY_TIMECODE
CONST	SEGMENT
_PIN_CATEGORY_TIMECODE DD 0fb6c428bH
	DW	0353H
	DW	011d1H
	DB	090H
	DB	05fH
	DB	00H
	DB	00H
	DB	0c0H
	DB	0ccH
	DB	016H
	DB	0baH
CONST	ENDS
;	COMDAT _PIN_CATEGORY_VIDEOPORT_VBI
CONST	SEGMENT
_PIN_CATEGORY_VIDEOPORT_VBI DD 0fb6c428cH
	DW	0353H
	DW	011d1H
	DB	090H
	DB	05fH
	DB	00H
	DB	00H
	DB	0c0H
	DB	0ccH
	DB	016H
	DB	0baH
CONST	ENDS
;	COMDAT _LOOK_UPSTREAM_ONLY
CONST	SEGMENT
_LOOK_UPSTREAM_ONLY DD 0ac798be0H
	DW	098e3H
	DW	011d1H
	DB	0b3H
	DB	0f1H
	DB	00H
	DB	0aaH
	DB	00H
	DB	037H
	DB	061H
	DB	0c5H
CONST	ENDS
;	COMDAT _LOOK_DOWNSTREAM_ONLY
CONST	SEGMENT
_LOOK_DOWNSTREAM_ONLY DD 0ac798be1H
	DW	098e3H
	DW	011d1H
	DB	0b3H
	DB	0f1H
	DB	00H
	DB	0aaH
	DB	00H
	DB	037H
	DB	061H
	DB	0c5H
CONST	ENDS
;	COMDAT _CLSID_TVTunerFilterPropertyPage
CONST	SEGMENT
_CLSID_TVTunerFilterPropertyPage DD 0266eee41H
	DW	06c63H
	DW	011cfH
	DB	08aH
	DB	03H
	DB	00H
	DB	0aaH
	DB	00H
	DB	06eH
	DB	0cbH
	DB	065H
CONST	ENDS
;	COMDAT _CLSID_CrossbarFilterPropertyPage
CONST	SEGMENT
_CLSID_CrossbarFilterPropertyPage DD 071f96461H
	DW	078f3H
	DW	011d0H
	DB	0a1H
	DB	08cH
	DB	00H
	DB	0a0H
	DB	0c9H
	DB	011H
	DB	089H
	DB	056H
CONST	ENDS
;	COMDAT _CLSID_TVAudioFilterPropertyPage
CONST	SEGMENT
_CLSID_TVAudioFilterPropertyPage DD 071f96463H
	DW	078f3H
	DW	011d0H
	DB	0a1H
	DB	08cH
	DB	00H
	DB	0a0H
	DB	0c9H
	DB	011H
	DB	089H
	DB	056H
CONST	ENDS
;	COMDAT _CLSID_VideoProcAmpPropertyPage
CONST	SEGMENT
_CLSID_VideoProcAmpPropertyPage DD 071f96464H
	DW	078f3H
	DW	011d0H
	DB	0a1H
	DB	08cH
	DB	00H
	DB	0a0H
	DB	0c9H
	DB	011H
	DB	089H
	DB	056H
CONST	ENDS
;	COMDAT _CLSID_CameraControlPropertyPage
CONST	SEGMENT
_CLSID_CameraControlPropertyPage DD 071f96465H
	DW	078f3H
	DW	011d0H
	DB	0a1H
	DB	08cH
	DB	00H
	DB	0a0H
	DB	0c9H
	DB	011H
	DB	089H
	DB	056H
CONST	ENDS
;	COMDAT _CLSID_AnalogVideoDecoderPropertyPage
CONST	SEGMENT
_CLSID_AnalogVideoDecoderPropertyPage DD 071f96466H
	DW	078f3H
	DW	011d0H
	DB	0a1H
	DB	08cH
	DB	00H
	DB	0a0H
	DB	0c9H
	DB	011H
	DB	089H
	DB	056H
CONST	ENDS
;	COMDAT _CLSID_VideoStreamConfigPropertyPage
CONST	SEGMENT
_CLSID_VideoStreamConfigPropertyPage DD 071f96467H
	DW	078f3H
	DW	011d0H
	DB	0a1H
	DB	08cH
	DB	00H
	DB	0a0H
	DB	0c9H
	DB	011H
	DB	089H
	DB	056H
CONST	ENDS
;	COMDAT _CLSID_AudioRendererAdvancedProperties
CONST	SEGMENT
_CLSID_AudioRendererAdvancedProperties DD 037e92a92H
	DW	0d9aaH
	DW	011d2H
	DB	0bfH
	DB	084H
	DB	08eH
	DB	0f2H
	DB	0b1H
	DB	055H
	DB	05aH
	DB	0edH
CONST	ENDS
;	COMDAT _CLSID_VideoMixingRenderer
CONST	SEGMENT
_CLSID_VideoMixingRenderer DD 0b87beb7bH
	DW	08d29H
	DW	0423fH
	DB	0aeH
	DB	04dH
	DB	065H
	DB	082H
	DB	0c1H
	DB	01H
	DB	075H
	DB	0acH
CONST	ENDS
;	COMDAT _CLSID_VideoRendererDefault
CONST	SEGMENT
_CLSID_VideoRendererDefault DD 06bc1cffaH
	DW	08fc1H
	DW	04261H
	DB	0acH
	DB	022H
	DB	0cfH
	DB	0b4H
	DB	0ccH
	DB	038H
	DB	0dbH
	DB	050H
CONST	ENDS
;	COMDAT _CLSID_AllocPresenter
CONST	SEGMENT
_CLSID_AllocPresenter DD 099d54f63H
	DW	01a69H
	DW	041aeH
	DB	0aaH
	DB	04dH
	DB	0c9H
	DB	076H
	DB	0ebH
	DB	03fH
	DB	07H
	DB	013H
CONST	ENDS
;	COMDAT _CLSID_AllocPresenterDDXclMode
CONST	SEGMENT
_CLSID_AllocPresenterDDXclMode DD 04444ac9eH
	DW	0242eH
	DW	0471bH
	DB	0a3H
	DB	0c7H
	DB	045H
	DB	0dcH
	DB	0d4H
	DB	063H
	DB	052H
	DB	0bcH
CONST	ENDS
;	COMDAT _CLSID_VideoPortManager
CONST	SEGMENT
_CLSID_VideoPortManager DD 06f26a6cdH
	DW	0967bH
	DW	047fdH
	DB	087H
	DB	04aH
	DB	07aH
	DB	0edH
	DB	02cH
	DB	09dH
	DB	025H
	DB	0a2H
CONST	ENDS
;	COMDAT _CLSID_VideoMixingRenderer9
CONST	SEGMENT
_CLSID_VideoMixingRenderer9 DD 051b4abf3H
	DW	0748fH
	DW	04e3bH
	DB	0a2H
	DB	076H
	DB	0c8H
	DB	028H
	DB	033H
	DB	0eH
	DB	092H
	DB	06aH
CONST	ENDS
;	COMDAT _CLSID_ATSCNetworkProvider
CONST	SEGMENT
_CLSID_ATSCNetworkProvider DD 0dad2fddH
	DW	05fd7H
	DW	011d3H
	DB	08fH
	DB	050H
	DB	00H
	DB	0c0H
	DB	04fH
	DB	079H
	DB	071H
	DB	0e2H
CONST	ENDS
;	COMDAT _CLSID_ATSCNetworkPropertyPage
CONST	SEGMENT
_CLSID_ATSCNetworkPropertyPage DD 0e3444d16H
	DW	05ac4H
	DW	04386H
	DB	088H
	DB	0dfH
	DB	013H
	DB	0fdH
	DB	023H
	DB	0eH
	DB	01dH
	DB	0daH
CONST	ENDS
;	COMDAT _CLSID_DVBSNetworkProvider
CONST	SEGMENT
_CLSID_DVBSNetworkProvider DD 0fa4b375aH
	DW	045b4H
	DW	04d45H
	DB	084H
	DB	040H
	DB	026H
	DB	039H
	DB	057H
	DB	0b1H
	DB	016H
	DB	023H
CONST	ENDS
;	COMDAT _CLSID_DVBTNetworkProvider
CONST	SEGMENT
_CLSID_DVBTNetworkProvider DD 0216c62dfH
	DW	06d7fH
	DW	04e9aH
	DB	085H
	DB	071H
	DB	05H
	DB	0f1H
	DB	04eH
	DB	0dbH
	DB	076H
	DB	06aH
CONST	ENDS
;	COMDAT _CLSID_DVBCNetworkProvider
CONST	SEGMENT
_CLSID_DVBCNetworkProvider DD 0dc0c0fe7H
	DW	0485H
	DW	04266H
	DB	0b9H
	DB	03fH
	DB	068H
	DB	0fbH
	DB	0f8H
	DB	0eH
	DB	0d8H
	DB	034H
CONST	ENDS
;	COMDAT _CLSID_DShowTVEFilter
CONST	SEGMENT
_CLSID_DShowTVEFilter DD 05500280H
	DW	0faa5H
	DW	04df9H
	DB	082H
	DB	046H
	DB	0bfH
	DB	0c2H
	DB	03aH
	DB	0c5H
	DB	0ceH
	DB	0a8H
CONST	ENDS
;	COMDAT _CLSID_TVEFilterTuneProperties
CONST	SEGMENT
_CLSID_TVEFilterTuneProperties DD 05500281H
	DW	0faa5H
	DW	04df9H
	DB	082H
	DB	046H
	DB	0bfH
	DB	0c2H
	DB	03aH
	DB	0c5H
	DB	0ceH
	DB	0a8H
CONST	ENDS
;	COMDAT _CLSID_TVEFilterCCProperties
CONST	SEGMENT
_CLSID_TVEFilterCCProperties DD 05500282H
	DW	0faa5H
	DW	04df9H
	DB	082H
	DB	046H
	DB	0bfH
	DB	0c2H
	DB	03aH
	DB	0c5H
	DB	0ceH
	DB	0a8H
CONST	ENDS
;	COMDAT _CLSID_TVEFilterStatsProperties
CONST	SEGMENT
_CLSID_TVEFilterStatsProperties DD 05500283H
	DW	0faa5H
	DW	04df9H
	DB	082H
	DB	046H
	DB	0bfH
	DB	0c2H
	DB	03aH
	DB	0c5H
	DB	0ceH
	DB	0a8H
CONST	ENDS
;	COMDAT _CLSID_IVideoEncoderProxy
CONST	SEGMENT
_CLSID_IVideoEncoderProxy DD 0b43c4eecH
	DW	08c32H
	DW	04791H
	DB	091H
	DB	02H
	DB	050H
	DB	08aH
	DB	0daH
	DB	05eH
	DB	0e8H
	DB	0e7H
CONST	ENDS
;	COMDAT _CLSID_ICodecAPIProxy
CONST	SEGMENT
_CLSID_ICodecAPIProxy DD 07ff0997aH
	DW	01999H
	DW	04286H
	DB	0a7H
	DB	03cH
	DB	062H
	DB	02bH
	DB	088H
	DB	014H
	DB	0e7H
	DB	0ebH
CONST	ENDS
;	COMDAT _CLSID_IVideoEncoderCodecAPIProxy
CONST	SEGMENT
_CLSID_IVideoEncoderCodecAPIProxy DD 0b05dabd9H
	DW	056e5H
	DW	04fdcH
	DB	0afH
	DB	0a4H
	DB	08aH
	DB	047H
	DB	0e9H
	DB	01fH
	DB	01cH
	DB	09cH
CONST	ENDS
;	COMDAT ?_messageEntries@?1??GetThisMessageMap@CEndoScopeMFCApp@@KGPBUAFX_MSGMAP@@XZ@4QBUAFX_MSGMAP_ENTRY@@B
CONST	SEGMENT
?_messageEntries@?1??GetThisMessageMap@CEndoScopeMFCApp@@KGPBUAFX_MSGMAP@@XZ@4QBUAFX_MSGMAP_ENTRY@@B DD 0111H ; `CEndoScopeMFCApp::GetThisMessageMap'::`2'::_messageEntries
	DD	00H
	DD	0e146H
	DD	0e146H
	DD	03aH
	DD	FLAT:?OnHelp@CWinApp@@IAEXXZ
	DD	00H
	DD	00H
	DD	00H
	DD	00H
	DD	00H
	DD	00H
CONST	ENDS
;	COMDAT ?messageMap@?1??GetThisMessageMap@CEndoScopeMFCApp@@KGPBUAFX_MSGMAP@@XZ@4U3@B
CONST	SEGMENT
?messageMap@?1??GetThisMessageMap@CEndoScopeMFCApp@@KGPBUAFX_MSGMAP@@XZ@4U3@B DD FLAT:?GetThisMessageMap@CWinApp@@KGPBUAFX_MSGMAP@@XZ ; `CEndoScopeMFCApp::GetThisMessageMap'::`2'::messageMap
	DD	FLAT:?_messageEntries@?1??GetThisMessageMap@CEndoScopeMFCApp@@KGPBUAFX_MSGMAP@@XZ@4QBUAFX_MSGMAP_ENTRY@@B
CONST	ENDS
;	COMDAT ??_7CEndoScopeMFCApp@@6B@
CONST	SEGMENT
??_7CEndoScopeMFCApp@@6B@ DD FLAT:??_R4CEndoScopeMFCApp@@6B@ ; CEndoScopeMFCApp::`vftable'
	DD	FLAT:?GetRuntimeClass@CWinApp@@UBEPAUCRuntimeClass@@XZ
	DD	FLAT:??_ECEndoScopeMFCApp@@UAEPAXI@Z
	DD	FLAT:?Serialize@CObject@@UAEXAAVCArchive@@@Z
	DD	FLAT:?AssertValid@CObject@@UBEXXZ
	DD	FLAT:?Dump@CObject@@UBEXAAVCDumpContext@@@Z
	DD	FLAT:?OnCmdMsg@CCmdTarget@@UAEHIHPAXPAUAFX_CMDHANDLERINFO@@@Z
	DD	FLAT:?OnFinalRelease@CCmdTarget@@UAEXXZ
	DD	FLAT:?IsInvokeAllowed@CCmdTarget@@UAEHJ@Z
	DD	FLAT:?GetDispatchIID@CCmdTarget@@UAEHPAU_GUID@@@Z
	DD	FLAT:?GetTypeInfoCount@CCmdTarget@@UAEIXZ
	DD	FLAT:?GetTypeLibCache@CCmdTarget@@UAEPAVCTypeLibCache@@XZ
	DD	FLAT:?GetTypeLib@CCmdTarget@@UAEJKPAPAUITypeLib@@@Z
	DD	FLAT:?GetMessageMap@CEndoScopeMFCApp@@MBEPBUAFX_MSGMAP@@XZ
	DD	FLAT:?GetCommandMap@CCmdTarget@@MBEPBUAFX_OLECMDMAP@@XZ
	DD	FLAT:?GetDispatchMap@CCmdTarget@@MBEPBUAFX_DISPMAP@@XZ
	DD	FLAT:?GetConnectionMap@CCmdTarget@@MBEPBUAFX_CONNECTIONMAP@@XZ
	DD	FLAT:?GetInterfaceMap@CCmdTarget@@MBEPBUAFX_INTERFACEMAP@@XZ
	DD	FLAT:?GetEventSinkMap@CCmdTarget@@MBEPBUAFX_EVENTSINKMAP@@XZ
	DD	FLAT:?OnCreateAggregates@CCmdTarget@@UAEHXZ
	DD	FLAT:?GetInterfaceHook@CCmdTarget@@UAEPAUIUnknown@@PBX@Z
	DD	FLAT:?GetExtraConnectionPoints@CCmdTarget@@MAEHPAVCPtrArray@@@Z
	DD	FLAT:?GetConnectionHook@CCmdTarget@@MAEPAUIConnectionPoint@@ABU_GUID@@@Z
	DD	FLAT:?InitInstance@CEndoScopeMFCApp@@UAEHXZ
	DD	FLAT:?Run@CWinApp@@UAEHXZ
	DD	FLAT:?PreTranslateMessage@CWinThread@@UAEHPAUtagMSG@@@Z
	DD	FLAT:?PumpMessage@CWinThread@@UAEHXZ
	DD	FLAT:?OnIdle@CWinApp@@UAEHJ@Z
	DD	FLAT:?IsIdleMessage@CWinThread@@UAEHPAUtagMSG@@@Z
	DD	FLAT:?ExitInstance@CEndoScopeMFCApp@@UAEHXZ
	DD	FLAT:?ProcessWndProcException@CWinApp@@UAEJPAVCException@@PBUtagMSG@@@Z
	DD	FLAT:?ProcessMessageFilter@CWinThread@@UAEHHPAUtagMSG@@@Z
	DD	FLAT:?GetMainWnd@CWinThread@@UAEPAVCWnd@@XZ
	DD	FLAT:?Delete@CWinThread@@UAEXXZ
	DD	FLAT:?GetProfileIntA@CWinApp@@UAEIPBD0H@Z
	DD	FLAT:?WriteProfileInt@CWinApp@@UAEHPBD0H@Z
	DD	FLAT:?GetProfileStringA@CWinApp@@UAE?AV?$CStringT@DV?$StrTraitMFC_DLL@DV?$ChTraitsCRT@D@ATL@@@@@ATL@@PBD00@Z
	DD	FLAT:?WriteProfileStringA@CWinApp@@UAEHPBD00@Z
	DD	FLAT:?GetProfileBinary@CWinApp@@UAEHPBD0PAPAEPAI@Z
	DD	FLAT:?WriteProfileBinary@CWinApp@@UAEHPBD0PAEI@Z
	DD	FLAT:?InitLibId@CWinApp@@UAEXXZ
	DD	FLAT:?Register@CWinApp@@UAEHXZ
	DD	FLAT:?Unregister@CWinApp@@UAEHXZ
	DD	FLAT:?OpenDocumentFile@CWinApp@@UAEPAVCDocument@@PBDH@Z
	DD	FLAT:?OpenDocumentFile@CWinApp@@UAEPAVCDocument@@PBD@Z
	DD	FLAT:?AddToRecentFileList@CWinApp@@UAEXPBD@Z
	DD	FLAT:?InitApplication@CWinApp@@UAEHXZ
	DD	FLAT:?SaveAllModified@CWinApp@@UAEHXZ
	DD	FLAT:?DoMessageBox@CWinApp@@UAEHPBDII@Z
	DD	FLAT:?DoWaitCursor@CWinApp@@UAEXH@Z
	DD	FLAT:?OnDDECommand@CWinApp@@UAEHPAD@Z
	DD	FLAT:?WinHelpA@CWinApp@@UAEXKI@Z
	DD	FLAT:?HtmlHelpA@CWinApp@@UAEXKI@Z
	DD	FLAT:?WinHelpInternal@CWinApp@@UAEXKI@Z
	DD	FLAT:?RegisterWithRestartManager@CWinApp@@UAEJPB_WKP6GKPAX@Z1KK@Z
	DD	FLAT:?RegisterWithRestartManager@CWinApp@@UAEJHABV?$CStringT@DV?$StrTraitMFC_DLL@DV?$ChTraitsCRT@D@ATL@@@@@ATL@@@Z
	DD	FLAT:?ApplicationRecoveryCallback@CWinApp@@UAEKPAX@Z
	DD	FLAT:?SupportsRestartManager@CWinApp@@UBEHXZ
	DD	FLAT:?SupportsApplicationRecovery@CWinApp@@UBEHXZ
	DD	FLAT:?SupportsAutosaveAtRestart@CWinApp@@UBEHXZ
	DD	FLAT:?SupportsAutosaveAtInterval@CWinApp@@UBEHXZ
	DD	FLAT:?ReopenPreviousFilesAtRestart@CWinApp@@UBEHXZ
	DD	FLAT:?RestoreAutosavedFilesAtRestart@CWinApp@@UBEHXZ
	DD	FLAT:?GetApplicationRestartFlags@CWinApp@@UAEKXZ
	DD	FLAT:?GetApplicationRecoveryParameter@CWinApp@@UAEPAXXZ
	DD	FLAT:?GetApplicationRecoveryPingInterval@CWinApp@@UAEKXZ
	DD	FLAT:?GetDataRecoveryHandler@CWinApp@@UAEPAVCDataRecoveryHandler@@XZ
	DD	FLAT:?IsTaskbarInteractionEnabled@CWinApp@@UAEHXZ
	DD	FLAT:?RestartInstance@CWinApp@@UAEHXZ
	DD	FLAT:?LoadAppLangResourceDLL@CWinApp@@UAEPAUHINSTANCE__@@XZ
	DD	FLAT:?LoadSysPolicies@CWinApp@@UAEHXZ
CONST	ENDS
;	COMDAT ??_R4CEndoScopeMFCApp@@6B@
rdata$r	SEGMENT
??_R4CEndoScopeMFCApp@@6B@ DD 00H			; CEndoScopeMFCApp::`RTTI Complete Object Locator'
	DD	00H
	DD	00H
	DD	FLAT:??_R0?AVCEndoScopeMFCApp@@@8
	DD	FLAT:??_R3CEndoScopeMFCApp@@8
rdata$r	ENDS
;	COMDAT ??_R0?AVCEndoScopeMFCApp@@@8
_DATA	SEGMENT
??_R0?AVCEndoScopeMFCApp@@@8 DD FLAT:??_7type_info@@6B@	; CEndoScopeMFCApp `RTTI Type Descriptor'
	DD	00H
	DB	'.?AVCEndoScopeMFCApp@@', 00H
_DATA	ENDS
;	COMDAT ??_R3CEndoScopeMFCApp@@8
rdata$r	SEGMENT
??_R3CEndoScopeMFCApp@@8 DD 00H				; CEndoScopeMFCApp::`RTTI Class Hierarchy Descriptor'
	DD	00H
	DD	05H
	DD	FLAT:??_R2CEndoScopeMFCApp@@8
rdata$r	ENDS
;	COMDAT ??_R0?AVCWinThread@@@8
_DATA	SEGMENT
??_R0?AVCWinThread@@@8 DD FLAT:??_7type_info@@6B@	; CWinThread `RTTI Type Descriptor'
	DD	00H
	DB	'.?AVCWinThread@@', 00H
_DATA	ENDS
;	COMDAT ??_R3CWinThread@@8
rdata$r	SEGMENT
??_R3CWinThread@@8 DD 00H				; CWinThread::`RTTI Class Hierarchy Descriptor'
	DD	00H
	DD	03H
	DD	FLAT:??_R2CWinThread@@8
rdata$r	ENDS
;	COMDAT ??_R0?AVCWinApp@@@8
_DATA	SEGMENT
??_R0?AVCWinApp@@@8 DD FLAT:??_7type_info@@6B@		; CWinApp `RTTI Type Descriptor'
	DD	00H
	DB	'.?AVCWinApp@@', 00H
_DATA	ENDS
;	COMDAT ??_R3CWinApp@@8
rdata$r	SEGMENT
??_R3CWinApp@@8 DD 00H					; CWinApp::`RTTI Class Hierarchy Descriptor'
	DD	00H
	DD	04H
	DD	FLAT:??_R2CWinApp@@8
rdata$r	ENDS
;	COMDAT ??_R1A@?0A@EA@CWinThread@@8
rdata$r	SEGMENT
??_R1A@?0A@EA@CWinThread@@8 DD FLAT:??_R0?AVCWinThread@@@8 ; CWinThread::`RTTI Base Class Descriptor at (0,-1,0,64)'
	DD	02H
	DD	00H
	DD	0ffffffffH
	DD	00H
	DD	040H
	DD	FLAT:??_R3CWinThread@@8
rdata$r	ENDS
;	COMDAT ??_R1A@?0A@EA@CWinApp@@8
rdata$r	SEGMENT
??_R1A@?0A@EA@CWinApp@@8 DD FLAT:??_R0?AVCWinApp@@@8	; CWinApp::`RTTI Base Class Descriptor at (0,-1,0,64)'
	DD	03H
	DD	00H
	DD	0ffffffffH
	DD	00H
	DD	040H
	DD	FLAT:??_R3CWinApp@@8
rdata$r	ENDS
;	COMDAT ??_R1A@?0A@EA@CEndoScopeMFCApp@@8
rdata$r	SEGMENT
??_R1A@?0A@EA@CEndoScopeMFCApp@@8 DD FLAT:??_R0?AVCEndoScopeMFCApp@@@8 ; CEndoScopeMFCApp::`RTTI Base Class Descriptor at (0,-1,0,64)'
	DD	04H
	DD	00H
	DD	0ffffffffH
	DD	00H
	DD	040H
	DD	FLAT:??_R3CEndoScopeMFCApp@@8
rdata$r	ENDS
;	COMDAT ??_R2CWinThread@@8
rdata$r	SEGMENT
??_R2CWinThread@@8 DD FLAT:??_R1A@?0A@EA@CWinThread@@8	; CWinThread::`RTTI Base Class Array'
	DD	FLAT:??_R1A@?0A@EA@CCmdTarget@@8
	DD	FLAT:??_R1A@?0A@EA@CObject@@8
rdata$r	ENDS
;	COMDAT ??_R2CWinApp@@8
rdata$r	SEGMENT
??_R2CWinApp@@8 DD FLAT:??_R1A@?0A@EA@CWinApp@@8	; CWinApp::`RTTI Base Class Array'
	DD	FLAT:??_R1A@?0A@EA@CWinThread@@8
	DD	FLAT:??_R1A@?0A@EA@CCmdTarget@@8
	DD	FLAT:??_R1A@?0A@EA@CObject@@8
rdata$r	ENDS
;	COMDAT ??_R2CEndoScopeMFCApp@@8
rdata$r	SEGMENT
??_R2CEndoScopeMFCApp@@8 DD FLAT:??_R1A@?0A@EA@CEndoScopeMFCApp@@8 ; CEndoScopeMFCApp::`RTTI Base Class Array'
	DD	FLAT:??_R1A@?0A@EA@CWinApp@@8
	DD	FLAT:??_R1A@?0A@EA@CWinThread@@8
	DD	FLAT:??_R1A@?0A@EA@CCmdTarget@@8
	DD	FLAT:??_R1A@?0A@EA@CObject@@8
rdata$r	ENDS
;	COMDAT _MEDIATYPE_Video
CONST	SEGMENT
_MEDIATYPE_Video DD 073646976H
	DW	00H
	DW	010H
	DB	080H
	DB	00H
	DB	00H
	DB	0aaH
	DB	00H
	DB	038H
	DB	09bH
	DB	071H
CONST	ENDS
;	COMDAT _MEDIASUBTYPE_RGB24
CONST	SEGMENT
_MEDIASUBTYPE_RGB24 DD 0e436eb7dH
	DW	0524fH
	DW	011ceH
	DB	09fH
	DB	053H
	DB	00H
	DB	020H
	DB	0afH
	DB	0bH
	DB	0a7H
	DB	070H
CONST	ENDS
;	COMDAT _PIN_CATEGORY_CAPTURE
CONST	SEGMENT
_PIN_CATEGORY_CAPTURE DD 0fb6c4281H
	DW	0353H
	DW	011d1H
	DB	090H
	DB	05fH
	DB	00H
	DB	00H
	DB	0c0H
	DB	0ccH
	DB	016H
	DB	0baH
CONST	ENDS
;	COMDAT _CLSID_SystemDeviceEnum
CONST	SEGMENT
_CLSID_SystemDeviceEnum DD 062be5d10H
	DW	060ebH
	DW	011d0H
	DB	0bdH
	DB	03bH
	DB	00H
	DB	0a0H
	DB	0c9H
	DB	011H
	DB	0ceH
	DB	086H
CONST	ENDS
;	COMDAT _CLSID_VideoInputDeviceCategory
CONST	SEGMENT
_CLSID_VideoInputDeviceCategory DD 0860bb310H
	DW	05d01H
	DW	011d0H
	DB	0bdH
	DB	03bH
	DB	00H
	DB	0a0H
	DB	0c9H
	DB	011H
	DB	0ceH
	DB	086H
CONST	ENDS
;	COMDAT _CLSID_FilterGraph
CONST	SEGMENT
_CLSID_FilterGraph DD 0e436ebb3H
	DW	0524fH
	DW	011ceH
	DB	09fH
	DB	053H
	DB	00H
	DB	020H
	DB	0afH
	DB	0bH
	DB	0a7H
	DB	070H
CONST	ENDS
;	COMDAT _CLSID_CaptureGraphBuilder2
CONST	SEGMENT
_CLSID_CaptureGraphBuilder2 DD 0bf87b6e1H
	DW	08c27H
	DW	011d0H
	DB	0b3H
	DB	0f0H
	DB	00H
	DB	0aaH
	DB	00H
	DB	037H
	DB	061H
	DB	0c5H
$SG4294960490 DB 00H
	ORG $+2
$SG4294960489 DB 00H, 00H
	ORG $+2
$SG4294960468 DB 'sec', 00H
$SG4294960467 DB 'ErrorInformation.DMP', 00H
	ORG $+3
$SG4294960466 DB 0d3H, 0a6H, 0d3H, 0c3H, 0b3H, 0ccH, 0d0H, 0f2H, 0cfH, 0f2H
	DB	0b5H, 0bcH, 0c9H, 0faH, 0b3H, 0c9H, 0b5H, 0c4H, 0b1H, 0beH, 0b5H
	DB	0d8H, 0d3H, 0a6H, 0d3H, 0c3H, 0b3H, 0ccH, 0d0H, 0f2H, 00H
PUBLIC	?__autoclassinit@CCmdTarget@@QAEXI@Z		; CCmdTarget::__autoclassinit
PUBLIC	??2CObject@@SGPAXI@Z				; CObject::operator new
PUBLIC	?__autoclassinit@CWnd@@QAEXI@Z			; CWnd::__autoclassinit
PUBLIC	?__autoclassinit@CGdiObject@@QAEXI@Z		; CGdiObject::__autoclassinit
PUBLIC	?SupportsRestartManager@CWinApp@@UBEHXZ		; CWinApp::SupportsRestartManager
PUBLIC	?SupportsApplicationRecovery@CWinApp@@UBEHXZ	; CWinApp::SupportsApplicationRecovery
PUBLIC	?SupportsAutosaveAtRestart@CWinApp@@UBEHXZ	; CWinApp::SupportsAutosaveAtRestart
PUBLIC	?SupportsAutosaveAtInterval@CWinApp@@UBEHXZ	; CWinApp::SupportsAutosaveAtInterval
PUBLIC	?ReopenPreviousFilesAtRestart@CWinApp@@UBEHXZ	; CWinApp::ReopenPreviousFilesAtRestart
PUBLIC	?RestoreAutosavedFilesAtRestart@CWinApp@@UBEHXZ	; CWinApp::RestoreAutosavedFilesAtRestart
PUBLIC	?GetApplicationRestartFlags@CWinApp@@UAEKXZ	; CWinApp::GetApplicationRestartFlags
PUBLIC	?GetApplicationRecoveryParameter@CWinApp@@UAEPAXXZ ; CWinApp::GetApplicationRecoveryParameter
PUBLIC	?GetApplicationRecoveryPingInterval@CWinApp@@UAEKXZ ; CWinApp::GetApplicationRecoveryPingInterval
PUBLIC	?ExitInstance@CEndoScopeMFCApp@@UAEHXZ		; CEndoScopeMFCApp::ExitInstance
PUBLIC	?__autoclassinit@?$_List_val@U?$_List_simple_types@PAE@std@@@std@@QAEXI@Z ; std::_List_val<std::_List_simple_types<unsigned char *> >::__autoclassinit
PUBLIC	?__autoclassinit@?$_Vector_val@U?$_Simple_types@PAUIBaseFilter@@@std@@@std@@QAEXI@Z ; std::_Vector_val<std::_Simple_types<IBaseFilter *> >::__autoclassinit
PUBLIC	?__autoclassinit@?$_List_alloc@$0A@U?$_List_base_types@PAEV?$allocator@PAE@std@@@std@@@std@@QAEXI@Z ; std::_List_alloc<0,std::_List_base_types<unsigned char *,std::allocator<unsigned char *> > >::__autoclassinit
PUBLIC	?__autoclassinit@?$CComPtrBase@UISampleGrabber@@@ATL@@QAEXI@Z ; ATL::CComPtrBase<ISampleGrabber>::__autoclassinit
PUBLIC	?__autoclassinit@?$_Vector_alloc@$0A@U?$_Vec_base_types@PAUIBaseFilter@@V?$allocator@PAUIBaseFilter@@@std@@@std@@@std@@QAEXI@Z ; std::_Vector_alloc<0,std::_Vec_base_types<IBaseFilter *,std::allocator<IBaseFilter *> > >::__autoclassinit
PUBLIC	?__autoclassinit@?$_List_buy@PAEV?$allocator@PAE@std@@@std@@QAEXI@Z ; std::_List_buy<unsigned char *,std::allocator<unsigned char *> >::__autoclassinit
PUBLIC	?__autoclassinit@?$CComPtr@UISampleGrabber@@@ATL@@QAEXI@Z ; ATL::CComPtr<ISampleGrabber>::__autoclassinit
PUBLIC	?__autoclassinit@CEDSGrabberCB@@QAEXI@Z		; CEDSGrabberCB::__autoclassinit
PUBLIC	?__autoclassinit@?$vector@PAUIBaseFilter@@V?$allocator@PAUIBaseFilter@@@std@@@std@@QAEXI@Z ; std::vector<IBaseFilter *,std::allocator<IBaseFilter *> >::__autoclassinit
PUBLIC	?__autoclassinit@CBrush@@QAEXI@Z		; CBrush::__autoclassinit
PUBLIC	?__autoclassinit@CDialog@@QAEXI@Z		; CDialog::__autoclassinit
PUBLIC	?__autoclassinit@?$list@PAEV?$allocator@PAE@std@@@std@@QAEXI@Z ; std::list<unsigned char *,std::allocator<unsigned char *> >::__autoclassinit
PUBLIC	?__autoclassinit@CAboutDlg@@QAEXI@Z		; CAboutDlg::__autoclassinit
PUBLIC	?__autoclassinit@CEDSCapture@@QAEXI@Z		; CEDSCapture::__autoclassinit
PUBLIC	?__autoclassinit@CStatic@@QAEXI@Z		; CStatic::__autoclassinit
PUBLIC	?__autoclassinit@CDialogEx@@QAEXI@Z		; CDialogEx::__autoclassinit
PUBLIC	?__autoclassinit@CEndoScopeMFCDlg@@QAEXI@Z	; CEndoScopeMFCDlg::__autoclassinit
PUBLIC	?__autoclassinit@CShellManager@@QAEXI@Z		; CShellManager::__autoclassinit
PUBLIC	?InitInstance@CEndoScopeMFCApp@@UAEHXZ		; CEndoScopeMFCApp::InitInstance
PUBLIC	?ExceptionHandler@@YGJPAU_EXCEPTION_POINTERS@@@Z ; ExceptionHandler
PUBLIC	?__autoclassinit@CWinThread@@QAEXI@Z		; CWinThread::__autoclassinit
PUBLIC	?__autoclassinit@CWinApp@@QAEXI@Z		; CWinApp::__autoclassinit
PUBLIC	?__autoclassinit@CEndoScopeMFCApp@@QAEXI@Z	; CEndoScopeMFCApp::__autoclassinit
PUBLIC	??1CEndoScopeMFCApp@@UAE@XZ			; CEndoScopeMFCApp::~CEndoScopeMFCApp
PUBLIC	??_GCEndoScopeMFCApp@@UAEPAXI@Z			; CEndoScopeMFCApp::`scalar deleting destructor'
PUBLIC	??0CEndoScopeMFCApp@@QAE@XZ			; CEndoScopeMFCApp::CEndoScopeMFCApp
PUBLIC	?GetThisMessageMap@CEndoScopeMFCApp@@KGPBUAFX_MSGMAP@@XZ ; CEndoScopeMFCApp::GetThisMessageMap
PUBLIC	?GetMessageMap@CEndoScopeMFCApp@@MBEPBUAFX_MSGMAP@@XZ ; CEndoScopeMFCApp::GetMessageMap
PUBLIC	?__autoclassinit@Mat@cv@@QAEXI@Z		; cv::Mat::__autoclassinit
PUBLIC	?theApp@@3VCEndoScopeMFCApp@@A			; theApp
EXTRN	??_ECEndoScopeMFCApp@@UAEPAXI@Z:PROC		; CEndoScopeMFCApp::`vector deleting destructor'
?theApp@@3VCEndoScopeMFCApp@@A DB 0ccH DUP (?)		; theApp
_BSS	ENDS
;	COMDAT xdata$x
xdata$x	SEGMENT
__ehfuncinfo$?InitInstance@CEndoScopeMFCApp@@UAEHXZ DD 019930522H
	DD	02H
	DD	FLAT:__unwindtable$?InitInstance@CEndoScopeMFCApp@@UAEHXZ
	DD	2 DUP(00H)
	DD	2 DUP(00H)
	DD	00H
	DD	01H
__unwindtable$?InitInstance@CEndoScopeMFCApp@@UAEHXZ DD 0ffffffffH
	DD	FLAT:__unwindfunclet$?InitInstance@CEndoScopeMFCApp@@UAEHXZ$0
	DD	0ffffffffH
	DD	FLAT:__unwindfunclet$?InitInstance@CEndoScopeMFCApp@@UAEHXZ$1
_theApp$initializer$ DD FLAT:??__EtheApp@@YAXXZ
; Function compile flags: /Odtp
;	COMDAT ?__autoclassinit@Mat@cv@@QAEXI@Z
_TEXT	SEGMENT
_this$ = -4						; size = 4
_$initVBases$ = 8					; size = 4
?__autoclassinit@Mat@cv@@QAEXI@Z PROC			; cv::Mat::__autoclassinit, COMDAT
; _this$ = ecx
  00000	55		 push	 ebp
  00001	8b ec		 mov	 ebp, esp
  00003	51		 push	 ecx
  00004	89 4d fc	 mov	 DWORD PTR _this$[ebp], ecx
  00007	8b 45 fc	 mov	 eax, DWORD PTR _this$[ebp]
  0000a	c7 40 10 00 00
	00 00		 mov	 DWORD PTR [eax+16], 0
  00011	8b 4d fc	 mov	 ecx, DWORD PTR _this$[ebp]
  00014	c7 41 14 00 00
	00 00		 mov	 DWORD PTR [ecx+20], 0
  0001b	8b 55 fc	 mov	 edx, DWORD PTR _this$[ebp]
  0001e	c7 42 18 00 00
	00 00		 mov	 DWORD PTR [edx+24], 0
  00025	8b 45 fc	 mov	 eax, DWORD PTR _this$[ebp]
  00028	c7 40 1c 00 00
	00 00		 mov	 DWORD PTR [eax+28], 0
  0002f	8b 4d fc	 mov	 ecx, DWORD PTR _this$[ebp]
  00032	c7 41 20 00 00
	00 00		 mov	 DWORD PTR [ecx+32], 0
  00039	8b 55 fc	 mov	 edx, DWORD PTR _this$[ebp]
  0003c	c7 42 24 00 00
	00 00		 mov	 DWORD PTR [edx+36], 0
  00043	8b e5		 mov	 esp, ebp
  00045	5d		 pop	 ebp
  00046	c2 04 00	 ret	 4
?__autoclassinit@Mat@cv@@QAEXI@Z ENDP			; cv::Mat::__autoclassinit
_TEXT	ENDS
; Function compile flags: /Odtp
; File e:\work_wm\hxijy_code\endoscopemfc2012_menu_changepara_youhua_savepic_usb_1114_twothread_svepic_save5\src\endoscopemfc\endoscopemfc.cpp
;	COMDAT ?GetMessageMap@CEndoScopeMFCApp@@MBEPBUAFX_MSGMAP@@XZ
_TEXT	SEGMENT
_this$ = -4						; size = 4
?GetMessageMap@CEndoScopeMFCApp@@MBEPBUAFX_MSGMAP@@XZ PROC ; CEndoScopeMFCApp::GetMessageMap, COMDAT
; _this$ = ecx

; 17   : BEGIN_MESSAGE_MAP(CEndoScopeMFCApp, CWinApp)

  00000	55		 push	 ebp
  00001	8b ec		 mov	 ebp, esp
  00003	51		 push	 ecx
  00004	89 4d fc	 mov	 DWORD PTR _this$[ebp], ecx
  00007	e8 00 00 00 00	 call	 ?GetThisMessageMap@CEndoScopeMFCApp@@KGPBUAFX_MSGMAP@@XZ ; CEndoScopeMFCApp::GetThisMessageMap
  0000c	8b e5		 mov	 esp, ebp
  0000e	5d		 pop	 ebp
  0000f	c3		 ret	 0
?GetMessageMap@CEndoScopeMFCApp@@MBEPBUAFX_MSGMAP@@XZ ENDP ; CEndoScopeMFCApp::GetMessageMap
_TEXT	ENDS
; Function compile flags: /Odtp
; File e:\work_wm\hxijy_code\endoscopemfc2012_menu_changepara_youhua_savepic_usb_1114_twothread_svepic_save5\src\endoscopemfc\endoscopemfc.cpp
;	COMDAT ?GetThisMessageMap@CEndoScopeMFCApp@@KGPBUAFX_MSGMAP@@XZ
_TEXT	SEGMENT
?GetThisMessageMap@CEndoScopeMFCApp@@KGPBUAFX_MSGMAP@@XZ PROC ; CEndoScopeMFCApp::GetThisMessageMap, COMDAT

; 17   : BEGIN_MESSAGE_MAP(CEndoScopeMFCApp, CWinApp)

  00000	55		 push	 ebp
  00001	8b ec		 mov	 ebp, esp

; 18   : 	ON_COMMAND(ID_HELP, &CWinApp::OnHelp)
; 19   : END_MESSAGE_MAP()

  00003	b8 00 00 00 00	 mov	 eax, OFFSET ?messageMap@?1??GetThisMessageMap@CEndoScopeMFCApp@@KGPBUAFX_MSGMAP@@XZ@4U3@B
  00008	5d		 pop	 ebp
  00009	c3		 ret	 0
?GetThisMessageMap@CEndoScopeMFCApp@@KGPBUAFX_MSGMAP@@XZ ENDP ; CEndoScopeMFCApp::GetThisMessageMap
_TEXT	ENDS
; Function compile flags: /Odtp
; File e:\work_wm\hxijy_code\endoscopemfc2012_menu_changepara_youhua_savepic_usb_1114_twothread_svepic_save5\src\endoscopemfc\endoscopemfc.cpp
;	COMDAT ??0CEndoScopeMFCApp@@QAE@XZ
_TEXT	SEGMENT
_this$ = -4						; size = 4
??0CEndoScopeMFCApp@@QAE@XZ PROC			; CEndoScopeMFCApp::CEndoScopeMFCApp, COMDAT
; _this$ = ecx

; 25   : {

  00000	55		 push	 ebp
  00001	8b ec		 mov	 ebp, esp
  00003	51		 push	 ecx
  00004	89 4d fc	 mov	 DWORD PTR _this$[ebp], ecx
  00007	6a 00		 push	 0
  00009	8b 4d fc	 mov	 ecx, DWORD PTR _this$[ebp]
  0000c	ff 15 00 00 00
	00		 call	 DWORD PTR __imp_??0CWinApp@@QAE@PBD@Z
  00012	8b 45 fc	 mov	 eax, DWORD PTR _this$[ebp]
  00015	c7 00 00 00 00
	00		 mov	 DWORD PTR [eax], OFFSET ??_7CEndoScopeMFCApp@@6B@

; 26   : 	// 
; 27   : 	m_dwRestartManagerSupportFlags = AFX_RESTART_MANAGER_SUPPORT_RESTART;

  0001b	8b 4d fc	 mov	 ecx, DWORD PTR _this$[ebp]
  0001e	c7 81 ac 00 00
	00 01 00 00 00	 mov	 DWORD PTR [ecx+172], 1

; 28   : 
; 29   : 	// TODO: 
; 30   : 	//  InitInstance 
; 31   : }

  00028	8b 45 fc	 mov	 eax, DWORD PTR _this$[ebp]
  0002b	8b e5		 mov	 esp, ebp
  0002d	5d		 pop	 ebp
  0002e	c3		 ret	 0
??0CEndoScopeMFCApp@@QAE@XZ ENDP			; CEndoScopeMFCApp::CEndoScopeMFCApp
_TEXT	ENDS
; Function compile flags: /Odtp
;	COMDAT ??_GCEndoScopeMFCApp@@UAEPAXI@Z
_TEXT	SEGMENT
_this$ = -4						; size = 4
___flags$ = 8						; size = 4
??_GCEndoScopeMFCApp@@UAEPAXI@Z PROC			; CEndoScopeMFCApp::`scalar deleting destructor', COMDAT
; _this$ = ecx
  00000	55		 push	 ebp
  00001	8b ec		 mov	 ebp, esp
  00003	51		 push	 ecx
  00004	89 4d fc	 mov	 DWORD PTR _this$[ebp], ecx
  00007	8b 4d fc	 mov	 ecx, DWORD PTR _this$[ebp]
  0000a	e8 00 00 00 00	 call	 ??1CEndoScopeMFCApp@@UAE@XZ
  0000f	8b 45 08	 mov	 eax, DWORD PTR ___flags$[ebp]
  00012	83 e0 01	 and	 eax, 1
  00015	74 09		 je	 SHORT $LN1@scalar
  00017	8b 4d fc	 mov	 ecx, DWORD PTR _this$[ebp]
  0001a	51		 push	 ecx
  0001b	e8 00 00 00 00	 call	 ??3CObject@@SGXPAX@Z	; CObject::operator delete
$LN1@scalar:
  00020	8b 45 fc	 mov	 eax, DWORD PTR _this$[ebp]
  00023	8b e5		 mov	 esp, ebp
  00025	5d		 pop	 ebp
  00026	c2 04 00	 ret	 4
??_GCEndoScopeMFCApp@@UAEPAXI@Z ENDP			; CEndoScopeMFCApp::`scalar deleting destructor'
_TEXT	ENDS
; Function compile flags: /Odtp
;	COMDAT ??1CEndoScopeMFCApp@@UAE@XZ
_TEXT	SEGMENT
_this$ = -4						; size = 4
??1CEndoScopeMFCApp@@UAE@XZ PROC			; CEndoScopeMFCApp::~CEndoScopeMFCApp, COMDAT
; _this$ = ecx
  00000	55		 push	 ebp
  00001	8b ec		 mov	 ebp, esp
  00003	51		 push	 ecx
  00004	89 4d fc	 mov	 DWORD PTR _this$[ebp], ecx
  00007	8b 4d fc	 mov	 ecx, DWORD PTR _this$[ebp]
  0000a	ff 15 00 00 00
	00		 call	 DWORD PTR __imp_??1CWinApp@@UAE@XZ
  00010	8b e5		 mov	 esp, ebp
  00012	5d		 pop	 ebp
  00013	c3		 ret	 0
??1CEndoScopeMFCApp@@UAE@XZ ENDP			; CEndoScopeMFCApp::~CEndoScopeMFCApp
_TEXT	ENDS
; Function compile flags: /Odtp
; File e:\work_wm\hxijy_code\endoscopemfc2012_menu_changepara_youhua_savepic_usb_1114_twothread_svepic_save5\src\endoscopemfc\endoscopemfc.cpp
;	COMDAT ??__EtheApp@@YAXXZ
text$yc	SEGMENT
??__EtheApp@@YAXXZ PROC					; `dynamic initializer for 'theApp'', COMDAT

; 36   : CEndoScopeMFCApp theApp;

  00000	55		 push	 ebp
  00001	8b ec		 mov	 ebp, esp
  00003	6a 01		 push	 1
  00005	b9 00 00 00 00	 mov	 ecx, OFFSET ?theApp@@3VCEndoScopeMFCApp@@A ; theApp
  0000a	e8 00 00 00 00	 call	 ?__autoclassinit@CEndoScopeMFCApp@@QAEXI@Z
  0000f	b9 00 00 00 00	 mov	 ecx, OFFSET ?theApp@@3VCEndoScopeMFCApp@@A ; theApp
  00014	e8 00 00 00 00	 call	 ??0CEndoScopeMFCApp@@QAE@XZ ; CEndoScopeMFCApp::CEndoScopeMFCApp
  00019	68 00 00 00 00	 push	 OFFSET ??__FtheApp@@YAXXZ ; `dynamic atexit destructor for 'theApp''
  0001e	e8 00 00 00 00	 call	 _atexit
  00023	83 c4 04	 add	 esp, 4
  00026	5d		 pop	 ebp
  00027	c3		 ret	 0
??__EtheApp@@YAXXZ ENDP					; `dynamic initializer for 'theApp''
text$yc	ENDS
; Function compile flags: /Odtp
;	COMDAT ??__FtheApp@@YAXXZ
text$yd	SEGMENT
??__FtheApp@@YAXXZ PROC					; `dynamic atexit destructor for 'theApp'', COMDAT
  00000	55		 push	 ebp
  00001	8b ec		 mov	 ebp, esp
  00003	b9 00 00 00 00	 mov	 ecx, OFFSET ?theApp@@3VCEndoScopeMFCApp@@A ; theApp
  00008	e8 00 00 00 00	 call	 ??1CEndoScopeMFCApp@@UAE@XZ
  0000d	5d		 pop	 ebp
  0000e	c3		 ret	 0
??__FtheApp@@YAXXZ ENDP					; `dynamic atexit destructor for 'theApp''
text$yd	ENDS
; Function compile flags: /Odtp
;	COMDAT ?__autoclassinit@CEndoScopeMFCApp@@QAEXI@Z
_TEXT	SEGMENT
_this$ = -4						; size = 4
_$initVBases$ = 8					; size = 4
?__autoclassinit@CEndoScopeMFCApp@@QAEXI@Z PROC		; CEndoScopeMFCApp::__autoclassinit, COMDAT
; _this$ = ecx
  00000	55		 push	 ebp
  00001	8b ec		 mov	 ebp, esp
  00003	51		 push	 ecx
  00004	89 4d fc	 mov	 DWORD PTR _this$[ebp], ecx
  00007	6a 00		 push	 0
  00009	8b 4d fc	 mov	 ecx, DWORD PTR _this$[ebp]
  0000c	e8 00 00 00 00	 call	 ?__autoclassinit@CWinApp@@QAEXI@Z
  00011	8b e5		 mov	 esp, ebp
  00013	5d		 pop	 ebp
  00014	c2 04 00	 ret	 4
?__autoclassinit@CEndoScopeMFCApp@@QAEXI@Z ENDP		; CEndoScopeMFCApp::__autoclassinit
_TEXT	ENDS
; Function compile flags: /Odtp
;	COMDAT ?__autoclassinit@CWinApp@@QAEXI@Z
_TEXT	SEGMENT
_this$ = -4						; size = 4
_$initVBases$ = 8					; size = 4
?__autoclassinit@CWinApp@@QAEXI@Z PROC			; CWinApp::__autoclassinit, COMDAT
; _this$ = ecx
  00000	55		 push	 ebp
  00001	8b ec		 mov	 ebp, esp
  00003	51		 push	 ecx
  00004	89 4d fc	 mov	 DWORD PTR _this$[ebp], ecx
  00007	6a 00		 push	 0
  00009	8b 4d fc	 mov	 ecx, DWORD PTR _this$[ebp]
  0000c	e8 00 00 00 00	 call	 ?__autoclassinit@CWinThread@@QAEXI@Z
  00011	8b 45 fc	 mov	 eax, DWORD PTR _this$[ebp]
  00014	c7 40 44 00 00
	00 00		 mov	 DWORD PTR [eax+68], 0
  0001b	8b 4d fc	 mov	 ecx, DWORD PTR _this$[ebp]
  0001e	c7 41 48 00 00
	00 00		 mov	 DWORD PTR [ecx+72], 0
  00025	8b 55 fc	 mov	 edx, DWORD PTR _this$[ebp]
  00028	c7 42 50 00 00
	00 00		 mov	 DWORD PTR [edx+80], 0
  0002f	8b 45 fc	 mov	 eax, DWORD PTR _this$[ebp]
  00032	c7 40 54 00 00
	00 00		 mov	 DWORD PTR [eax+84], 0
  00039	8b 4d fc	 mov	 ecx, DWORD PTR _this$[ebp]
  0003c	c7 41 58 00 00
	00 00		 mov	 DWORD PTR [ecx+88], 0
  00043	8b 55 fc	 mov	 edx, DWORD PTR _this$[ebp]
  00046	c7 42 5c 00 00
	00 00		 mov	 DWORD PTR [edx+92], 0
  0004d	8b 45 fc	 mov	 eax, DWORD PTR _this$[ebp]
  00050	c7 40 64 00 00
	00 00		 mov	 DWORD PTR [eax+100], 0
  00057	8b 4d fc	 mov	 ecx, DWORD PTR _this$[ebp]
  0005a	c7 41 68 00 00
	00 00		 mov	 DWORD PTR [ecx+104], 0
  00061	8b 55 fc	 mov	 edx, DWORD PTR _this$[ebp]
  00064	c7 42 6c 00 00
	00 00		 mov	 DWORD PTR [edx+108], 0
  0006b	8b 45 fc	 mov	 eax, DWORD PTR _this$[ebp]
  0006e	c7 40 74 00 00
	00 00		 mov	 DWORD PTR [eax+116], 0
  00075	8b 4d fc	 mov	 ecx, DWORD PTR _this$[ebp]
  00078	c7 41 78 00 00
	00 00		 mov	 DWORD PTR [ecx+120], 0
  0007f	8b 55 fc	 mov	 edx, DWORD PTR _this$[ebp]
  00082	c7 82 80 00 00
	00 00 00 00 00	 mov	 DWORD PTR [edx+128], 0
  0008c	8b 45 fc	 mov	 eax, DWORD PTR _this$[ebp]
  0008f	c7 80 88 00 00
	00 00 00 00 00	 mov	 DWORD PTR [eax+136], 0
  00099	8b 4d fc	 mov	 ecx, DWORD PTR _this$[ebp]
  0009c	c7 81 8c 00 00
	00 00 00 00 00	 mov	 DWORD PTR [ecx+140], 0
  000a6	8b 55 fc	 mov	 edx, DWORD PTR _this$[ebp]
  000a9	c7 82 90 00 00
	00 00 00 00 00	 mov	 DWORD PTR [edx+144], 0
  000b3	8b 45 fc	 mov	 eax, DWORD PTR _this$[ebp]
  000b6	c7 80 94 00 00
	00 00 00 00 00	 mov	 DWORD PTR [eax+148], 0
  000c0	8b 4d fc	 mov	 ecx, DWORD PTR _this$[ebp]
  000c3	c7 81 a4 00 00
	00 00 00 00 00	 mov	 DWORD PTR [ecx+164], 0
  000cd	8b 55 fc	 mov	 edx, DWORD PTR _this$[ebp]
  000d0	c7 82 c4 00 00
	00 00 00 00 00	 mov	 DWORD PTR [edx+196], 0
  000da	8b 45 fc	 mov	 eax, DWORD PTR _this$[ebp]
  000dd	c7 80 c8 00 00
	00 00 00 00 00	 mov	 DWORD PTR [eax+200], 0
  000e7	8b e5		 mov	 esp, ebp
  000e9	5d		 pop	 ebp
  000ea	c2 04 00	 ret	 4
?__autoclassinit@CWinApp@@QAEXI@Z ENDP			; CWinApp::__autoclassinit
_TEXT	ENDS
; Function compile flags: /Odtp
;	COMDAT ?__autoclassinit@CWinThread@@QAEXI@Z
_TEXT	SEGMENT
_this$ = -4						; size = 4
_$initVBases$ = 8					; size = 4
?__autoclassinit@CWinThread@@QAEXI@Z PROC		; CWinThread::__autoclassinit, COMDAT
; _this$ = ecx
  00000	55		 push	 ebp
  00001	8b ec		 mov	 ebp, esp
  00003	51		 push	 ecx
  00004	89 4d fc	 mov	 DWORD PTR _this$[ebp], ecx
  00007	6a 00		 push	 0
  00009	8b 4d fc	 mov	 ecx, DWORD PTR _this$[ebp]
  0000c	e8 00 00 00 00	 call	 ?__autoclassinit@CCmdTarget@@QAEXI@Z
  00011	8b 45 fc	 mov	 eax, DWORD PTR _this$[ebp]
  00014	c7 40 20 00 00
	00 00		 mov	 DWORD PTR [eax+32], 0
  0001b	8b 4d fc	 mov	 ecx, DWORD PTR _this$[ebp]
  0001e	c7 41 24 00 00
	00 00		 mov	 DWORD PTR [ecx+36], 0
  00025	8b 55 fc	 mov	 edx, DWORD PTR _this$[ebp]
  00028	c7 42 2c 00 00
	00 00		 mov	 DWORD PTR [edx+44], 0
  0002f	8b 45 fc	 mov	 eax, DWORD PTR _this$[ebp]
  00032	c7 40 34 00 00
	00 00		 mov	 DWORD PTR [eax+52], 0
  00039	8b 4d fc	 mov	 ecx, DWORD PTR _this$[ebp]
  0003c	c7 41 38 00 00
	00 00		 mov	 DWORD PTR [ecx+56], 0
  00043	8b 55 fc	 mov	 edx, DWORD PTR _this$[ebp]
  00046	c7 42 3c 00 00
	00 00		 mov	 DWORD PTR [edx+60], 0
  0004d	8b 45 fc	 mov	 eax, DWORD PTR _this$[ebp]
  00050	c7 40 40 00 00
	00 00		 mov	 DWORD PTR [eax+64], 0
  00057	8b e5		 mov	 esp, ebp
  00059	5d		 pop	 ebp
  0005a	c2 04 00	 ret	 4
?__autoclassinit@CWinThread@@QAEXI@Z ENDP		; CWinThread::__autoclassinit
_TEXT	ENDS
; Function compile flags: /Odtp
; File e:\work_wm\hxijy_code\endoscopemfc2012_menu_changepara_youhua_savepic_usb_1114_twothread_svepic_save5\src\endoscopemfc\endoscopemfc.cpp
;	COMDAT ?ExceptionHandler@@YGJPAU_EXCEPTION_POINTERS@@@Z
_TEXT	SEGMENT
_proId$ = -28						; size = 4
_hproc$ = -24						; size = 4
_hfile$ = -20						; size = 4
_minidumpInfo$1 = -16					; size = 12
__$ArrayPad$ = -4					; size = 4
_ExceptionInfo$ = 8					; size = 4
?ExceptionHandler@@YGJPAU_EXCEPTION_POINTERS@@@Z PROC	; ExceptionHandler, COMDAT

; 43   : {

  00000	55		 push	 ebp
  00001	8b ec		 mov	 ebp, esp
  00003	83 ec 1c	 sub	 esp, 28			; 0000001cH
  00006	a1 00 00 00 00	 mov	 eax, DWORD PTR ___security_cookie
  0000b	33 c5		 xor	 eax, ebp
  0000d	89 45 fc	 mov	 DWORD PTR __$ArrayPad$[ebp], eax

; 44   : 	//MessageBoxA(NULL, "Crash", "Error", MB_OK);
; 45   : 	//HANDLE
; 46   : 	HANDLE hproc = GetCurrentProcess();

  00010	ff 15 00 00 00
	00		 call	 DWORD PTR __imp__GetCurrentProcess@0
  00016	89 45 e8	 mov	 DWORD PTR _hproc$[ebp], eax

; 47   : 	//ID
; 48   : 	int proId = GetCurrentProcessId();

  00019	ff 15 00 00 00
	00		 call	 DWORD PTR __imp__GetCurrentProcessId@0
  0001f	89 45 e4	 mov	 DWORD PTR _proId$[ebp], eax

; 49   : 	//Windows API
; 50   : 	HANDLE hfile = CreateFile(_T("ErrorInformation.DMP"), GENERIC_WRITE, FILE_SHARE_READ, NULL, CREATE_ALWAYS, FILE_ATTRIBUTE_NORMAL, NULL);

  00022	6a 00		 push	 0
  00024	68 80 00 00 00	 push	 128			; 00000080H
  00029	6a 02		 push	 2
  0002b	6a 00		 push	 0
  0002d	6a 01		 push	 1
  0002f	68 00 00 00 40	 push	 1073741824		; 40000000H
  00034	68 00 00 00 00	 push	 OFFSET $SG4294960467
  00039	ff 15 00 00 00
	00		 call	 DWORD PTR __imp__CreateFileA@28
  0003f	89 45 ec	 mov	 DWORD PTR _hfile$[ebp], eax

; 51   : 	if (hfile)

  00042	83 7d ec 00	 cmp	 DWORD PTR _hfile$[ebp], 0
  00046	74 3f		 je	 SHORT $LN1@ExceptionH

; 52   : 	{
; 53   : 		_MINIDUMP_EXCEPTION_INFORMATION minidumpInfo;
; 54   : 		minidumpInfo.ClientPointers = FALSE;

  00048	c7 45 f8 00 00
	00 00		 mov	 DWORD PTR _minidumpInfo$1[ebp+8], 0

; 55   : 		minidumpInfo.ExceptionPointers = ExceptionInfo;

  0004f	8b 45 08	 mov	 eax, DWORD PTR _ExceptionInfo$[ebp]
  00052	89 45 f4	 mov	 DWORD PTR _minidumpInfo$1[ebp+4], eax

; 56   : 		minidumpInfo.ThreadId = GetCurrentThreadId();

  00055	ff 15 00 00 00
	00		 call	 DWORD PTR __imp__GetCurrentThreadId@0
  0005b	89 45 f0	 mov	 DWORD PTR _minidumpInfo$1[ebp], eax

; 57   : 		MiniDumpWriteDump(hproc, GetCurrentProcessId(), hfile, MiniDumpNormal, &minidumpInfo, NULL, NULL);

  0005e	6a 00		 push	 0
  00060	6a 00		 push	 0
  00062	8d 4d f0	 lea	 ecx, DWORD PTR _minidumpInfo$1[ebp]
  00065	51		 push	 ecx
  00066	6a 00		 push	 0
  00068	8b 55 ec	 mov	 edx, DWORD PTR _hfile$[ebp]
  0006b	52		 push	 edx
  0006c	ff 15 00 00 00
	00		 call	 DWORD PTR __imp__GetCurrentProcessId@0
  00072	50		 push	 eax
  00073	8b 45 e8	 mov	 eax, DWORD PTR _hproc$[ebp]
  00076	50		 push	 eax
  00077	ff 15 00 00 00
	00		 call	 DWORD PTR __imp__MiniDumpWriteDump@28

; 58   : 		CloseHandle(hfile);

  0007d	8b 4d ec	 mov	 ecx, DWORD PTR _hfile$[ebp]
  00080	51		 push	 ecx
  00081	ff 15 00 00 00
	00		 call	 DWORD PTR __imp__CloseHandle@4
$LN1@ExceptionH:

; 59   : 	}
; 60   : 	return 0;

  00087	33 c0		 xor	 eax, eax

; 61   : }

  00089	8b 4d fc	 mov	 ecx, DWORD PTR __$ArrayPad$[ebp]
  0008c	33 cd		 xor	 ecx, ebp
  0008e	e8 00 00 00 00	 call	 @__security_check_cookie@4
  00093	8b e5		 mov	 esp, ebp
  00095	5d		 pop	 ebp
  00096	c2 04 00	 ret	 4
?ExceptionHandler@@YGJPAU_EXCEPTION_POINTERS@@@Z ENDP	; ExceptionHandler
_TEXT	ENDS
; Function compile flags: /Odtp
; File e:\work_wm\hxijy_code\endoscopemfc2012_menu_changepara_youhua_savepic_usb_1114_twothread_svepic_save5\src\endoscopemfc\endoscopemfc.cpp
;	COMDAT ?InitInstance@CEndoScopeMFCApp@@UAEHXZ
_TEXT	SEGMENT
$T2 = -1248						; size = 4
$T3 = -1244						; size = 4
tv157 = -1240						; size = 4
$T4 = -1236						; size = 4
tv82 = -1232						; size = 4
_pShellManager$ = -1228					; size = 4
_this$ = -1224						; size = 4
$T5 = -1220						; size = 4
$T6 = -1216						; size = 4
_nResponse$ = -1212					; size = 4
_dlg$ = -1208						; size = 1184
_InitCtrls$ = -24					; size = 8
__$ArrayPad$ = -16					; size = 4
__$EHRec$ = -12						; size = 12
?InitInstance@CEndoScopeMFCApp@@UAEHXZ PROC		; CEndoScopeMFCApp::InitInstance, COMDAT
; _this$ = ecx

; 67   : {

  00000	55		 push	 ebp
  00001	8b ec		 mov	 ebp, esp
  00003	6a ff		 push	 -1
  00005	68 00 00 00 00	 push	 __ehhandler$?InitInstance@CEndoScopeMFCApp@@UAEHXZ
  0000a	64 a1 00 00 00
	00		 mov	 eax, DWORD PTR fs:0
  00010	50		 push	 eax
  00011	81 ec d4 04 00
	00		 sub	 esp, 1236		; 000004d4H
  00017	a1 00 00 00 00	 mov	 eax, DWORD PTR ___security_cookie
  0001c	33 c5		 xor	 eax, ebp
  0001e	89 45 f0	 mov	 DWORD PTR __$ArrayPad$[ebp], eax
  00021	50		 push	 eax
  00022	8d 45 f4	 lea	 eax, DWORD PTR __$EHRec$[ebp]
  00025	64 a3 00 00 00
	00		 mov	 DWORD PTR fs:0, eax
  0002b	89 8d 38 fb ff
	ff		 mov	 DWORD PTR _this$[ebp], ecx

; 68   : 	//  Windows XP 
; 69   : 	//  ComCtl32.dll  6 
; 70   : 	// InitCommonControlsEx()  
; 71   : 	INITCOMMONCONTROLSEX InitCtrls;
; 72   : 	InitCtrls.dwSize = sizeof(InitCtrls);

  00031	c7 45 e8 08 00
	00 00		 mov	 DWORD PTR _InitCtrls$[ebp], 8

; 73   : 	// 
; 74   : 	// 
; 75   : 	InitCtrls.dwICC = ICC_WIN95_CLASSES;

  00038	c7 45 ec ff 00
	00 00		 mov	 DWORD PTR _InitCtrls$[ebp+4], 255 ; 000000ffH

; 76   : 	InitCommonControlsEx(&InitCtrls);

  0003f	8d 45 e8	 lea	 eax, DWORD PTR _InitCtrls$[ebp]
  00042	50		 push	 eax
  00043	ff 15 00 00 00
	00		 call	 DWORD PTR __imp__InitCommonControlsEx@4

; 77   : 
; 78   : 	CWinApp::InitInstance();

  00049	8b 8d 38 fb ff
	ff		 mov	 ecx, DWORD PTR _this$[ebp]
  0004f	ff 15 00 00 00
	00		 call	 DWORD PTR __imp_?InitInstance@CWinApp@@UAEHXZ

; 79   : 	ReadConfig();

  00055	e8 00 00 00 00	 call	 ?ReadConfig@@YA_NXZ	; ReadConfig

; 80   : 	SetUnhandledExceptionFilter(ExceptionHandler);//

  0005a	68 00 00 00 00	 push	 OFFSET ?ExceptionHandler@@YGJPAU_EXCEPTION_POINTERS@@@Z ; ExceptionHandler
  0005f	ff 15 00 00 00
	00		 call	 DWORD PTR __imp__SetUnhandledExceptionFilter@4

; 81   : 	CoInitialize(NULL);

  00065	6a 00		 push	 0
  00067	ff 15 00 00 00
	00		 call	 DWORD PTR __imp__CoInitialize@4

; 82   : 
; 83   : 	AfxEnableControlContainer();

  0006d	6a 00		 push	 0
  0006f	ff 15 00 00 00
	00		 call	 DWORD PTR __imp_?AfxEnableControlContainer@@YAXPAVCOccManager@@@Z
  00075	83 c4 04	 add	 esp, 4

; 84   : 
; 85   : 	//  shell 
; 86   : 	//  shell  shell 
; 87   : 	CShellManager *pShellManager = new CShellManager;

  00078	6a 0c		 push	 12			; 0000000cH
  0007a	e8 00 00 00 00	 call	 ??2CObject@@SGPAXI@Z	; CObject::operator new
  0007f	89 85 40 fb ff
	ff		 mov	 DWORD PTR $T6[ebp], eax
  00085	c7 45 fc 00 00
	00 00		 mov	 DWORD PTR __$EHRec$[ebp+8], 0
  0008c	83 bd 40 fb ff
	ff 00		 cmp	 DWORD PTR $T6[ebp], 0
  00093	74 21		 je	 SHORT $LN9@InitInstan
  00095	6a 01		 push	 1
  00097	8b 8d 40 fb ff
	ff		 mov	 ecx, DWORD PTR $T6[ebp]
  0009d	e8 00 00 00 00	 call	 ?__autoclassinit@CShellManager@@QAEXI@Z
  000a2	8b 8d 40 fb ff
	ff		 mov	 ecx, DWORD PTR $T6[ebp]
  000a8	ff 15 00 00 00
	00		 call	 DWORD PTR __imp_??0CShellManager@@QAE@XZ
  000ae	89 85 30 fb ff
	ff		 mov	 DWORD PTR tv82[ebp], eax
  000b4	eb 0a		 jmp	 SHORT $LN10@InitInstan
$LN9@InitInstan:
  000b6	c7 85 30 fb ff
	ff 00 00 00 00	 mov	 DWORD PTR tv82[ebp], 0
$LN10@InitInstan:
  000c0	8b 8d 30 fb ff
	ff		 mov	 ecx, DWORD PTR tv82[ebp]
  000c6	89 8d 20 fb ff
	ff		 mov	 DWORD PTR $T2[ebp], ecx
  000cc	c7 45 fc ff ff
	ff ff		 mov	 DWORD PTR __$EHRec$[ebp+8], -1
  000d3	8b 95 20 fb ff
	ff		 mov	 edx, DWORD PTR $T2[ebp]
  000d9	89 95 34 fb ff
	ff		 mov	 DWORD PTR _pShellManager$[ebp], edx

; 88   : 
; 89   : 	// Windows Native MFC 
; 90   : 	CMFCVisualManager::SetDefaultManager(RUNTIME_CLASS(CMFCVisualManagerWindows));

  000df	ff 15 00 00 00
	00		 call	 DWORD PTR __imp_?GetThisClass@CMFCVisualManagerWindows@@SGPAUCRuntimeClass@@XZ
  000e5	50		 push	 eax
  000e6	ff 15 00 00 00
	00		 call	 DWORD PTR __imp_?SetDefaultManager@CMFCVisualManager@@SGXPAUCRuntimeClass@@@Z

; 91   : 
; 92   : 	// 
; 93   : 	// 
; 94   : 	// 
; 95   : 	// 
; 96   : 	// 
; 97   : 	// TODO: 
; 98   : 	// 
; 99   : 	SetRegistryKey(_T(""));

  000ec	68 00 00 00 00	 push	 OFFSET $SG4294960466
  000f1	8b 8d 38 fb ff
	ff		 mov	 ecx, DWORD PTR _this$[ebp]
  000f7	ff 15 00 00 00
	00		 call	 DWORD PTR __imp_?SetRegistryKey@CWinApp@@IAEXPBD@Z

; 100  : 
; 101  : 	CEndoScopeMFCDlg dlg;

  000fd	6a 01		 push	 1
  000ff	8d 8d 48 fb ff
	ff		 lea	 ecx, DWORD PTR _dlg$[ebp]
  00105	e8 00 00 00 00	 call	 ?__autoclassinit@CEndoScopeMFCDlg@@QAEXI@Z
  0010a	6a 00		 push	 0
  0010c	8d 8d 48 fb ff
	ff		 lea	 ecx, DWORD PTR _dlg$[ebp]
  00112	e8 00 00 00 00	 call	 ??0CEndoScopeMFCDlg@@QAE@PAVCWnd@@@Z ; CEndoScopeMFCDlg::CEndoScopeMFCDlg
  00117	c7 45 fc 01 00
	00 00		 mov	 DWORD PTR __$EHRec$[ebp+8], 1

; 102  : 	m_pMainWnd = &dlg;

  0011e	8b 85 38 fb ff
	ff		 mov	 eax, DWORD PTR _this$[ebp]
  00124	8d 8d 48 fb ff
	ff		 lea	 ecx, DWORD PTR _dlg$[ebp]
  0012a	89 48 20	 mov	 DWORD PTR [eax+32], ecx

; 103  : 	INT_PTR nResponse = dlg.DoModal();

  0012d	8d 8d 48 fb ff
	ff		 lea	 ecx, DWORD PTR _dlg$[ebp]
  00133	ff 15 00 00 00
	00		 call	 DWORD PTR __imp_?DoModal@CDialog@@UAEHXZ
  00139	89 85 44 fb ff
	ff		 mov	 DWORD PTR _nResponse$[ebp], eax

; 104  : 	if (nResponse == IDOK)
; 105  : 	{
; 106  : 		// TODO: 
; 107  : 		//  
; 108  : 	}
; 109  : 	else if (nResponse == IDCANCEL)
; 110  : 	{
; 111  : 		// TODO: 
; 112  : 		//  
; 113  : 	}
; 114  : 	else if (nResponse == -1)
; 115  : 	{
; 116  : 		TRACE(traceAppMsg, 0, ": \n");
; 117  : 		TRACE(traceAppMsg, 0, ":  MFC  #define _AFX_NO_MFC_CONTROLS_IN_DIALOGS\n");
; 118  : 	}
; 119  : 
; 120  : 	//  shell 
; 121  : 	if (pShellManager != nullptr)

  0013f	83 bd 34 fb ff
	ff 00		 cmp	 DWORD PTR _pShellManager$[ebp], 0
  00146	74 48		 je	 SHORT $LN1@InitInstan

; 122  : 	{
; 123  : 		delete pShellManager;

  00148	8b 95 34 fb ff
	ff		 mov	 edx, DWORD PTR _pShellManager$[ebp]
  0014e	89 95 24 fb ff
	ff		 mov	 DWORD PTR $T3[ebp], edx
  00154	8b 85 24 fb ff
	ff		 mov	 eax, DWORD PTR $T3[ebp]
  0015a	89 85 3c fb ff
	ff		 mov	 DWORD PTR $T5[ebp], eax
  00160	83 bd 3c fb ff
	ff 00		 cmp	 DWORD PTR $T5[ebp], 0
  00167	74 1d		 je	 SHORT $LN11@InitInstan
  00169	6a 01		 push	 1
  0016b	8b 8d 3c fb ff
	ff		 mov	 ecx, DWORD PTR $T5[ebp]
  00171	8b 11		 mov	 edx, DWORD PTR [ecx]
  00173	8b 8d 3c fb ff
	ff		 mov	 ecx, DWORD PTR $T5[ebp]
  00179	8b 42 04	 mov	 eax, DWORD PTR [edx+4]
  0017c	ff d0		 call	 eax
  0017e	89 85 28 fb ff
	ff		 mov	 DWORD PTR tv157[ebp], eax
  00184	eb 0a		 jmp	 SHORT $LN1@InitInstan
$LN11@InitInstan:
  00186	c7 85 28 fb ff
	ff 00 00 00 00	 mov	 DWORD PTR tv157[ebp], 0
$LN1@InitInstan:

; 124  : 	}
; 125  : 
; 126  : #if !defined(_AFXDLL) && !defined(_AFX_NO_MFC_CONTROLS_IN_DIALOGS)
; 127  : 	ControlBarCleanUp();
; 128  : #endif
; 129  : 
; 130  : 	//  FALSE 
; 131  : 	//  
; 132  : 	return FALSE;

  00190	c7 85 2c fb ff
	ff 00 00 00 00	 mov	 DWORD PTR $T4[ebp], 0
  0019a	c7 45 fc ff ff
	ff ff		 mov	 DWORD PTR __$EHRec$[ebp+8], -1
  001a1	8d 8d 48 fb ff
	ff		 lea	 ecx, DWORD PTR _dlg$[ebp]
  001a7	e8 00 00 00 00	 call	 ??1CEndoScopeMFCDlg@@UAE@XZ ; CEndoScopeMFCDlg::~CEndoScopeMFCDlg
  001ac	8b 85 2c fb ff
	ff		 mov	 eax, DWORD PTR $T4[ebp]

; 133  : }

  001b2	8b 4d f4	 mov	 ecx, DWORD PTR __$EHRec$[ebp]
  001b5	64 89 0d 00 00
	00 00		 mov	 DWORD PTR fs:0, ecx
  001bc	59		 pop	 ecx
  001bd	8b 4d f0	 mov	 ecx, DWORD PTR __$ArrayPad$[ebp]
  001c0	33 cd		 xor	 ecx, ebp
  001c2	e8 00 00 00 00	 call	 @__security_check_cookie@4
  001c7	8b e5		 mov	 esp, ebp
  001c9	5d		 pop	 ebp
  001ca	c3		 ret	 0
_TEXT	ENDS
;	COMDAT text$x
text$x	SEGMENT
__unwindfunclet$?InitInstance@CEndoScopeMFCApp@@UAEHXZ$0:
  00000	8b 85 40 fb ff
	ff		 mov	 eax, DWORD PTR $T6[ebp]
  00006	50		 push	 eax
  00007	e8 00 00 00 00	 call	 ??3CObject@@SGXPAX@Z	; CObject::operator delete
  0000c	c3		 ret	 0
__unwindfunclet$?InitInstance@CEndoScopeMFCApp@@UAEHXZ$1:
  0000d	8d 8d 48 fb ff
	ff		 lea	 ecx, DWORD PTR _dlg$[ebp]
  00013	e9 00 00 00 00	 jmp	 ??1CEndoScopeMFCDlg@@UAE@XZ ; CEndoScopeMFCDlg::~CEndoScopeMFCDlg
__ehhandler$?InitInstance@CEndoScopeMFCApp@@UAEHXZ:
  00018	8b 54 24 08	 mov	 edx, DWORD PTR [esp+8]
  0001c	8d 42 0c	 lea	 eax, DWORD PTR [edx+12]
  0001f	8b 8a 28 fb ff
	ff		 mov	 ecx, DWORD PTR [edx-1240]
  00025	33 c8		 xor	 ecx, eax
  00027	e8 00 00 00 00	 call	 @__security_check_cookie@4
  0002c	8b 4a fc	 mov	 ecx, DWORD PTR [edx-4]
  0002f	33 c8		 xor	 ecx, eax
  00031	e8 00 00 00 00	 call	 @__security_check_cookie@4
  00036	b8 00 00 00 00	 mov	 eax, OFFSET __ehfuncinfo$?InitInstance@CEndoScopeMFCApp@@UAEHXZ
  0003b	e9 00 00 00 00	 jmp	 ___CxxFrameHandler3
text$x	ENDS
?InitInstance@CEndoScopeMFCApp@@UAEHXZ ENDP		; CEndoScopeMFCApp::InitInstance
; Function compile flags: /Odtp
;	COMDAT ?__autoclassinit@CShellManager@@QAEXI@Z
_TEXT	SEGMENT
_this$ = -4						; size = 4
_$initVBases$ = 8					; size = 4
?__autoclassinit@CShellManager@@QAEXI@Z PROC		; CShellManager::__autoclassinit, COMDAT
; _this$ = ecx
  00000	55		 push	 ebp
  00001	8b ec		 mov	 ebp, esp
  00003	51		 push	 ecx
  00004	89 4d fc	 mov	 DWORD PTR _this$[ebp], ecx
  00007	8b 45 fc	 mov	 eax, DWORD PTR _this$[ebp]
  0000a	c7 40 04 00 00
	00 00		 mov	 DWORD PTR [eax+4], 0
  00011	8b 4d fc	 mov	 ecx, DWORD PTR _this$[ebp]
  00014	c7 41 08 00 00
	00 00		 mov	 DWORD PTR [ecx+8], 0
  0001b	8b e5		 mov	 esp, ebp
  0001d	5d		 pop	 ebp
  0001e	c2 04 00	 ret	 4
?__autoclassinit@CShellManager@@QAEXI@Z ENDP		; CShellManager::__autoclassinit
_TEXT	ENDS
; Function compile flags: /Odtp
;	COMDAT ?__autoclassinit@CEndoScopeMFCDlg@@QAEXI@Z
_TEXT	SEGMENT
_this$ = -4						; size = 4
_$initVBases$ = 8					; size = 4
?__autoclassinit@CEndoScopeMFCDlg@@QAEXI@Z PROC		; CEndoScopeMFCDlg::__autoclassinit, COMDAT
; _this$ = ecx
  00000	55		 push	 ebp
  00001	8b ec		 mov	 ebp, esp
  00003	51		 push	 ecx
  00004	89 4d fc	 mov	 DWORD PTR _this$[ebp], ecx
  00007	6a 00		 push	 0
  00009	8b 4d fc	 mov	 ecx, DWORD PTR _this$[ebp]
  0000c	e8 00 00 00 00	 call	 ?__autoclassinit@CDialogEx@@QAEXI@Z
  00011	8b 45 fc	 mov	 eax, DWORD PTR _this$[ebp]
  00014	c7 80 b8 00 00
	00 00 00 00 00	 mov	 DWORD PTR [eax+184], 0
  0001e	6a 01		 push	 1
  00020	8b 4d fc	 mov	 ecx, DWORD PTR _this$[ebp]
  00023	81 c1 bc 00 00
	00		 add	 ecx, 188		; 000000bcH
  00029	e8 00 00 00 00	 call	 ?__autoclassinit@CStatic@@QAEXI@Z
  0002e	8b 4d fc	 mov	 ecx, DWORD PTR _this$[ebp]
  00031	c7 81 30 01 00
	00 00 00 00 00	 mov	 DWORD PTR [ecx+304], 0
  0003b	8b 55 fc	 mov	 edx, DWORD PTR _this$[ebp]
  0003e	c7 82 54 01 00
	00 00 00 00 00	 mov	 DWORD PTR [edx+340], 0
  00048	6a 01		 push	 1
  0004a	8b 4d fc	 mov	 ecx, DWORD PTR _this$[ebp]
  0004d	81 c1 70 01 00
	00		 add	 ecx, 368		; 00000170H
  00053	e8 00 00 00 00	 call	 ?__autoclassinit@Mat@cv@@QAEXI@Z
  00058	8b 45 fc	 mov	 eax, DWORD PTR _this$[ebp]
  0005b	c7 80 bc 01 00
	00 00 00 00 00	 mov	 DWORD PTR [eax+444], 0
  00065	8b 4d fc	 mov	 ecx, DWORD PTR _this$[ebp]
  00068	c7 81 c0 01 00
	00 00 00 00 00	 mov	 DWORD PTR [ecx+448], 0
  00072	8b 55 fc	 mov	 edx, DWORD PTR _this$[ebp]
  00075	c7 82 c4 01 00
	00 00 00 00 00	 mov	 DWORD PTR [edx+452], 0
  0007f	8b 45 fc	 mov	 eax, DWORD PTR _this$[ebp]
  00082	c7 80 c8 01 00
	00 00 00 00 00	 mov	 DWORD PTR [eax+456], 0
  0008c	8b 4d fc	 mov	 ecx, DWORD PTR _this$[ebp]
  0008f	c7 81 04 02 00
	00 00 00 00 00	 mov	 DWORD PTR [ecx+516], 0
  00099	8b 55 fc	 mov	 edx, DWORD PTR _this$[ebp]
  0009c	c7 82 08 02 00
	00 00 00 00 00	 mov	 DWORD PTR [edx+520], 0
  000a6	8b 45 fc	 mov	 eax, DWORD PTR _this$[ebp]
  000a9	c7 80 0c 02 00
	00 00 00 00 00	 mov	 DWORD PTR [eax+524], 0
  000b3	8b 4d fc	 mov	 ecx, DWORD PTR _this$[ebp]
  000b6	c7 81 10 02 00
	00 00 00 00 00	 mov	 DWORD PTR [ecx+528], 0
  000c0	6a 01		 push	 1
  000c2	8b 4d fc	 mov	 ecx, DWORD PTR _this$[ebp]
  000c5	81 c1 18 02 00
	00		 add	 ecx, 536		; 00000218H
  000cb	e8 00 00 00 00	 call	 ?__autoclassinit@CEDSCapture@@QAEXI@Z
  000d0	6a 01		 push	 1
  000d2	8b 4d fc	 mov	 ecx, DWORD PTR _this$[ebp]
  000d5	81 c1 f0 02 00
	00		 add	 ecx, 752		; 000002f0H
  000db	e8 00 00 00 00	 call	 ?__autoclassinit@CAboutDlg@@QAEXI@Z
  000e0	8b 55 fc	 mov	 edx, DWORD PTR _this$[ebp]
  000e3	c7 82 b4 03 00
	00 00 00 00 00	 mov	 DWORD PTR [edx+948], 0
  000ed	6a 01		 push	 1
  000ef	8b 4d fc	 mov	 ecx, DWORD PTR _this$[ebp]
  000f2	81 c1 bc 03 00
	00		 add	 ecx, 956		; 000003bcH
  000f8	e8 00 00 00 00	 call	 ?__autoclassinit@Mat@cv@@QAEXI@Z
  000fd	6a 01		 push	 1
  000ff	8b 4d fc	 mov	 ecx, DWORD PTR _this$[ebp]
  00102	81 c1 f4 03 00
	00		 add	 ecx, 1012		; 000003f4H
  00108	e8 00 00 00 00	 call	 ?__autoclassinit@Mat@cv@@QAEXI@Z
  0010d	6a 01		 push	 1
  0010f	8b 4d fc	 mov	 ecx, DWORD PTR _this$[ebp]
  00112	81 c1 2c 04 00
	00		 add	 ecx, 1068		; 0000042cH
  00118	e8 00 00 00 00	 call	 ?__autoclassinit@Mat@cv@@QAEXI@Z
  0011d	6a 01		 push	 1
  0011f	8b 4d fc	 mov	 ecx, DWORD PTR _this$[ebp]
  00122	81 c1 84 04 00
	00		 add	 ecx, 1156		; 00000484H
  00128	e8 00 00 00 00	 call	 ?__autoclassinit@?$list@PAEV?$allocator@PAE@std@@@std@@QAEXI@Z
  0012d	6a 01		 push	 1
  0012f	8b 4d fc	 mov	 ecx, DWORD PTR _this$[ebp]
  00132	81 c1 8c 04 00
	00		 add	 ecx, 1164		; 0000048cH
  00138	e8 00 00 00 00	 call	 ?__autoclassinit@?$list@PAEV?$allocator@PAE@std@@@std@@QAEXI@Z
  0013d	6a 01		 push	 1
  0013f	8b 4d fc	 mov	 ecx, DWORD PTR _this$[ebp]
  00142	81 c1 94 04 00
	00		 add	 ecx, 1172		; 00000494H
  00148	e8 00 00 00 00	 call	 ?__autoclassinit@?$list@PAEV?$allocator@PAE@std@@@std@@QAEXI@Z
  0014d	8b e5		 mov	 esp, ebp
  0014f	5d		 pop	 ebp
  00150	c2 04 00	 ret	 4
?__autoclassinit@CEndoScopeMFCDlg@@QAEXI@Z ENDP		; CEndoScopeMFCDlg::__autoclassinit
_TEXT	ENDS
; Function compile flags: /Odtp
;	COMDAT ?__autoclassinit@CDialogEx@@QAEXI@Z
_TEXT	SEGMENT
_this$ = -4						; size = 4
_$initVBases$ = 8					; size = 4
?__autoclassinit@CDialogEx@@QAEXI@Z PROC		; CDialogEx::__autoclassinit, COMDAT
; _this$ = ecx
  00000	55		 push	 ebp
  00001	8b ec		 mov	 ebp, esp
  00003	51		 push	 ecx
  00004	89 4d fc	 mov	 DWORD PTR _this$[ebp], ecx
  00007	6a 00		 push	 0
  00009	8b 4d fc	 mov	 ecx, DWORD PTR _this$[ebp]
  0000c	e8 00 00 00 00	 call	 ?__autoclassinit@CDialog@@QAEXI@Z
  00011	8b 45 fc	 mov	 eax, DWORD PTR _this$[ebp]
  00014	c7 80 94 00 00
	00 00 00 00 00	 mov	 DWORD PTR [eax+148], 0
  0001e	6a 01		 push	 1
  00020	8b 4d fc	 mov	 ecx, DWORD PTR _this$[ebp]
  00023	81 c1 a0 00 00
	00		 add	 ecx, 160		; 000000a0H
  00029	e8 00 00 00 00	 call	 ?__autoclassinit@CBrush@@QAEXI@Z
  0002e	8b e5		 mov	 esp, ebp
  00030	5d		 pop	 ebp
  00031	c2 04 00	 ret	 4
?__autoclassinit@CDialogEx@@QAEXI@Z ENDP		; CDialogEx::__autoclassinit
_TEXT	ENDS
; Function compile flags: /Odtp
;	COMDAT ?__autoclassinit@CStatic@@QAEXI@Z
_TEXT	SEGMENT
_this$ = -4						; size = 4
_$initVBases$ = 8					; size = 4
?__autoclassinit@CStatic@@QAEXI@Z PROC			; CStatic::__autoclassinit, COMDAT
; _this$ = ecx
  00000	55		 push	 ebp
  00001	8b ec		 mov	 ebp, esp
  00003	51		 push	 ecx
  00004	89 4d fc	 mov	 DWORD PTR _this$[ebp], ecx
  00007	6a 00		 push	 0
  00009	8b 4d fc	 mov	 ecx, DWORD PTR _this$[ebp]
  0000c	e8 00 00 00 00	 call	 ?__autoclassinit@CWnd@@QAEXI@Z
  00011	8b e5		 mov	 esp, ebp
  00013	5d		 pop	 ebp
  00014	c2 04 00	 ret	 4
?__autoclassinit@CStatic@@QAEXI@Z ENDP			; CStatic::__autoclassinit
_TEXT	ENDS
; Function compile flags: /Odtp
;	COMDAT ?__autoclassinit@CEDSCapture@@QAEXI@Z
_TEXT	SEGMENT
_this$ = -4						; size = 4
_$initVBases$ = 8					; size = 4
?__autoclassinit@CEDSCapture@@QAEXI@Z PROC		; CEDSCapture::__autoclassinit, COMDAT
; _this$ = ecx
  00000	55		 push	 ebp
  00001	8b ec		 mov	 ebp, esp
  00003	51		 push	 ecx
  00004	89 4d fc	 mov	 DWORD PTR _this$[ebp], ecx
  00007	6a 00		 push	 0
  00009	8b 4d fc	 mov	 ecx, DWORD PTR _this$[ebp]
  0000c	e8 00 00 00 00	 call	 ?__autoclassinit@CWnd@@QAEXI@Z
  00011	6a 01		 push	 1
  00013	8b 4d fc	 mov	 ecx, DWORD PTR _this$[ebp]
  00016	83 c1 7c	 add	 ecx, 124		; 0000007cH
  00019	e8 00 00 00 00	 call	 ?__autoclassinit@?$vector@PAUIBaseFilter@@V?$allocator@PAUIBaseFilter@@@std@@@std@@QAEXI@Z
  0001e	8b 45 fc	 mov	 eax, DWORD PTR _this$[ebp]
  00021	c7 80 88 00 00
	00 00 00 00 00	 mov	 DWORD PTR [eax+136], 0
  0002b	8b 4d fc	 mov	 ecx, DWORD PTR _this$[ebp]
  0002e	c7 81 98 00 00
	00 00 00 00 00	 mov	 DWORD PTR [ecx+152], 0
  00038	6a 01		 push	 1
  0003a	8b 4d fc	 mov	 ecx, DWORD PTR _this$[ebp]
  0003d	81 c1 a4 00 00
	00		 add	 ecx, 164		; 000000a4H
  00043	e8 00 00 00 00	 call	 ?__autoclassinit@CEDSGrabberCB@@QAEXI@Z
  00048	8b 55 fc	 mov	 edx, DWORD PTR _this$[ebp]
  0004b	c7 82 c0 00 00
	00 00 00 00 00	 mov	 DWORD PTR [edx+192], 0
  00055	8b 45 fc	 mov	 eax, DWORD PTR _this$[ebp]
  00058	c7 80 c4 00 00
	00 00 00 00 00	 mov	 DWORD PTR [eax+196], 0
  00062	8b 4d fc	 mov	 ecx, DWORD PTR _this$[ebp]
  00065	c7 81 c8 00 00
	00 00 00 00 00	 mov	 DWORD PTR [ecx+200], 0
  0006f	8b 55 fc	 mov	 edx, DWORD PTR _this$[ebp]
  00072	c7 82 cc 00 00
	00 00 00 00 00	 mov	 DWORD PTR [edx+204], 0
  0007c	8b 45 fc	 mov	 eax, DWORD PTR _this$[ebp]
  0007f	c7 80 d0 00 00
	00 00 00 00 00	 mov	 DWORD PTR [eax+208], 0
  00089	6a 01		 push	 1
  0008b	8b 4d fc	 mov	 ecx, DWORD PTR _this$[ebp]
  0008e	81 c1 d4 00 00
	00		 add	 ecx, 212		; 000000d4H
  00094	e8 00 00 00 00	 call	 ?__autoclassinit@?$CComPtr@UISampleGrabber@@@ATL@@QAEXI@Z
  00099	8b e5		 mov	 esp, ebp
  0009b	5d		 pop	 ebp
  0009c	c2 04 00	 ret	 4
?__autoclassinit@CEDSCapture@@QAEXI@Z ENDP		; CEDSCapture::__autoclassinit
_TEXT	ENDS
; Function compile flags: /Odtp
;	COMDAT ?__autoclassinit@CAboutDlg@@QAEXI@Z
_TEXT	SEGMENT
_this$ = -4						; size = 4
_$initVBases$ = 8					; size = 4
?__autoclassinit@CAboutDlg@@QAEXI@Z PROC		; CAboutDlg::__autoclassinit, COMDAT
; _this$ = ecx
  00000	55		 push	 ebp
  00001	8b ec		 mov	 ebp, esp
  00003	51		 push	 ecx
  00004	89 4d fc	 mov	 DWORD PTR _this$[ebp], ecx
  00007	6a 00		 push	 0
  00009	8b 4d fc	 mov	 ecx, DWORD PTR _this$[ebp]
  0000c	e8 00 00 00 00	 call	 ?__autoclassinit@CDialogEx@@QAEXI@Z
  00011	8b e5		 mov	 esp, ebp
  00013	5d		 pop	 ebp
  00014	c2 04 00	 ret	 4
?__autoclassinit@CAboutDlg@@QAEXI@Z ENDP		; CAboutDlg::__autoclassinit
_TEXT	ENDS
; Function compile flags: /Odtp
;	COMDAT ?__autoclassinit@?$list@PAEV?$allocator@PAE@std@@@std@@QAEXI@Z
_TEXT	SEGMENT
_this$ = -4						; size = 4
_$initVBases$ = 8					; size = 4
?__autoclassinit@?$list@PAEV?$allocator@PAE@std@@@std@@QAEXI@Z PROC ; std::list<unsigned char *,std::allocator<unsigned char *> >::__autoclassinit, COMDAT
; _this$ = ecx
  00000	55		 push	 ebp
  00001	8b ec		 mov	 ebp, esp
  00003	51		 push	 ecx
  00004	89 4d fc	 mov	 DWORD PTR _this$[ebp], ecx
  00007	6a 00		 push	 0
  00009	8b 4d fc	 mov	 ecx, DWORD PTR _this$[ebp]
  0000c	e8 00 00 00 00	 call	 ?__autoclassinit@?$_List_buy@PAEV?$allocator@PAE@std@@@std@@QAEXI@Z
  00011	8b e5		 mov	 esp, ebp
  00013	5d		 pop	 ebp
  00014	c2 04 00	 ret	 4
?__autoclassinit@?$list@PAEV?$allocator@PAE@std@@@std@@QAEXI@Z ENDP ; std::list<unsigned char *,std::allocator<unsigned char *> >::__autoclassinit
_TEXT	ENDS
; Function compile flags: /Odtp
;	COMDAT ?__autoclassinit@CDialog@@QAEXI@Z
_TEXT	SEGMENT
_this$ = -4						; size = 4
_$initVBases$ = 8					; size = 4
?__autoclassinit@CDialog@@QAEXI@Z PROC			; CDialog::__autoclassinit, COMDAT
; _this$ = ecx
  00000	55		 push	 ebp
  00001	8b ec		 mov	 ebp, esp
  00003	51		 push	 ecx
  00004	89 4d fc	 mov	 DWORD PTR _this$[ebp], ecx
  00007	6a 00		 push	 0
  00009	8b 4d fc	 mov	 ecx, DWORD PTR _this$[ebp]
  0000c	e8 00 00 00 00	 call	 ?__autoclassinit@CWnd@@QAEXI@Z
  00011	8b 45 fc	 mov	 eax, DWORD PTR _this$[ebp]
  00014	c7 40 78 00 00
	00 00		 mov	 DWORD PTR [eax+120], 0
  0001b	8b 4d fc	 mov	 ecx, DWORD PTR _this$[ebp]
  0001e	c7 41 7c 00 00
	00 00		 mov	 DWORD PTR [ecx+124], 0
  00025	8b 55 fc	 mov	 edx, DWORD PTR _this$[ebp]
  00028	c7 82 80 00 00
	00 00 00 00 00	 mov	 DWORD PTR [edx+128], 0
  00032	8b 45 fc	 mov	 eax, DWORD PTR _this$[ebp]
  00035	c7 80 84 00 00
	00 00 00 00 00	 mov	 DWORD PTR [eax+132], 0
  0003f	8b 4d fc	 mov	 ecx, DWORD PTR _this$[ebp]
  00042	c7 81 88 00 00
	00 00 00 00 00	 mov	 DWORD PTR [ecx+136], 0
  0004c	8b 55 fc	 mov	 edx, DWORD PTR _this$[ebp]
  0004f	c7 82 8c 00 00
	00 00 00 00 00	 mov	 DWORD PTR [edx+140], 0
  00059	8b 45 fc	 mov	 eax, DWORD PTR _this$[ebp]
  0005c	c7 80 90 00 00
	00 00 00 00 00	 mov	 DWORD PTR [eax+144], 0
  00066	8b e5		 mov	 esp, ebp
  00068	5d		 pop	 ebp
  00069	c2 04 00	 ret	 4
?__autoclassinit@CDialog@@QAEXI@Z ENDP			; CDialog::__autoclassinit
_TEXT	ENDS
; Function compile flags: /Odtp
;	COMDAT ?__autoclassinit@CBrush@@QAEXI@Z
_TEXT	SEGMENT
_this$ = -4						; size = 4
_$initVBases$ = 8					; size = 4
?__autoclassinit@CBrush@@QAEXI@Z PROC			; CBrush::__autoclassinit, COMDAT
; _this$ = ecx
  00000	55		 push	 ebp
  00001	8b ec		 mov	 ebp, esp
  00003	51		 push	 ecx
  00004	89 4d fc	 mov	 DWORD PTR _this$[ebp], ecx
  00007	6a 00		 push	 0
  00009	8b 4d fc	 mov	 ecx, DWORD PTR _this$[ebp]
  0000c	e8 00 00 00 00	 call	 ?__autoclassinit@CGdiObject@@QAEXI@Z
  00011	8b e5		 mov	 esp, ebp
  00013	5d		 pop	 ebp
  00014	c2 04 00	 ret	 4
?__autoclassinit@CBrush@@QAEXI@Z ENDP			; CBrush::__autoclassinit
_TEXT	ENDS
; Function compile flags: /Odtp
;	COMDAT ?__autoclassinit@?$vector@PAUIBaseFilter@@V?$allocator@PAUIBaseFilter@@@std@@@std@@QAEXI@Z
_TEXT	SEGMENT
_this$ = -4						; size = 4
_$initVBases$ = 8					; size = 4
?__autoclassinit@?$vector@PAUIBaseFilter@@V?$allocator@PAUIBaseFilter@@@std@@@std@@QAEXI@Z PROC ; std::vector<IBaseFilter *,std::allocator<IBaseFilter *> >::__autoclassinit, COMDAT
; _this$ = ecx
  00000	55		 push	 ebp
  00001	8b ec		 mov	 ebp, esp
  00003	51		 push	 ecx
  00004	89 4d fc	 mov	 DWORD PTR _this$[ebp], ecx
  00007	6a 00		 push	 0
  00009	8b 4d fc	 mov	 ecx, DWORD PTR _this$[ebp]
  0000c	e8 00 00 00 00	 call	 ?__autoclassinit@?$_Vector_alloc@$0A@U?$_Vec_base_types@PAUIBaseFilter@@V?$allocator@PAUIBaseFilter@@@std@@@std@@@std@@QAEXI@Z
  00011	8b e5		 mov	 esp, ebp
  00013	5d		 pop	 ebp
  00014	c2 04 00	 ret	 4
?__autoclassinit@?$vector@PAUIBaseFilter@@V?$allocator@PAUIBaseFilter@@@std@@@std@@QAEXI@Z ENDP ; std::vector<IBaseFilter *,std::allocator<IBaseFilter *> >::__autoclassinit
_TEXT	ENDS
; Function compile flags: /Odtp
;	COMDAT ?__autoclassinit@CEDSGrabberCB@@QAEXI@Z
_TEXT	SEGMENT
_this$ = -4						; size = 4
_$initVBases$ = 8					; size = 4
?__autoclassinit@CEDSGrabberCB@@QAEXI@Z PROC		; CEDSGrabberCB::__autoclassinit, COMDAT
; _this$ = ecx
  00000	55		 push	 ebp
  00001	8b ec		 mov	 ebp, esp
  00003	51		 push	 ecx
  00004	89 4d fc	 mov	 DWORD PTR _this$[ebp], ecx
  00007	8b 45 fc	 mov	 eax, DWORD PTR _this$[ebp]
  0000a	c7 40 14 00 00
	00 00		 mov	 DWORD PTR [eax+20], 0
  00011	8b e5		 mov	 esp, ebp
  00013	5d		 pop	 ebp
  00014	c2 04 00	 ret	 4
?__autoclassinit@CEDSGrabberCB@@QAEXI@Z ENDP		; CEDSGrabberCB::__autoclassinit
_TEXT	ENDS
; Function compile flags: /Odtp
;	COMDAT ?__autoclassinit@?$CComPtr@UISampleGrabber@@@ATL@@QAEXI@Z
_TEXT	SEGMENT
_this$ = -4						; size = 4
_$initVBases$ = 8					; size = 4
?__autoclassinit@?$CComPtr@UISampleGrabber@@@ATL@@QAEXI@Z PROC ; ATL::CComPtr<ISampleGrabber>::__autoclassinit, COMDAT
; _this$ = ecx
  00000	55		 push	 ebp
  00001	8b ec		 mov	 ebp, esp
  00003	51		 push	 ecx
  00004	89 4d fc	 mov	 DWORD PTR _this$[ebp], ecx
  00007	6a 00		 push	 0
  00009	8b 4d fc	 mov	 ecx, DWORD PTR _this$[ebp]
  0000c	e8 00 00 00 00	 call	 ?__autoclassinit@?$CComPtrBase@UISampleGrabber@@@ATL@@QAEXI@Z
  00011	8b e5		 mov	 esp, ebp
  00013	5d		 pop	 ebp
  00014	c2 04 00	 ret	 4
?__autoclassinit@?$CComPtr@UISampleGrabber@@@ATL@@QAEXI@Z ENDP ; ATL::CComPtr<ISampleGrabber>::__autoclassinit
_TEXT	ENDS
; Function compile flags: /Odtp
;	COMDAT ?__autoclassinit@?$_List_buy@PAEV?$allocator@PAE@std@@@std@@QAEXI@Z
_TEXT	SEGMENT
_this$ = -4						; size = 4
_$initVBases$ = 8					; size = 4
?__autoclassinit@?$_List_buy@PAEV?$allocator@PAE@std@@@std@@QAEXI@Z PROC ; std::_List_buy<unsigned char *,std::allocator<unsigned char *> >::__autoclassinit, COMDAT
; _this$ = ecx
  00000	55		 push	 ebp
  00001	8b ec		 mov	 ebp, esp
  00003	51		 push	 ecx
  00004	89 4d fc	 mov	 DWORD PTR _this$[ebp], ecx
  00007	6a 00		 push	 0
  00009	8b 4d fc	 mov	 ecx, DWORD PTR _this$[ebp]
  0000c	e8 00 00 00 00	 call	 ?__autoclassinit@?$_List_alloc@$0A@U?$_List_base_types@PAEV?$allocator@PAE@std@@@std@@@std@@QAEXI@Z
  00011	8b e5		 mov	 esp, ebp
  00013	5d		 pop	 ebp
  00014	c2 04 00	 ret	 4
?__autoclassinit@?$_List_buy@PAEV?$allocator@PAE@std@@@std@@QAEXI@Z ENDP ; std::_List_buy<unsigned char *,std::allocator<unsigned char *> >::__autoclassinit
_TEXT	ENDS
; Function compile flags: /Odtp
;	COMDAT ?__autoclassinit@?$_Vector_alloc@$0A@U?$_Vec_base_types@PAUIBaseFilter@@V?$allocator@PAUIBaseFilter@@@std@@@std@@@std@@QAEXI@Z
_TEXT	SEGMENT
_this$ = -4						; size = 4
_$initVBases$ = 8					; size = 4
?__autoclassinit@?$_Vector_alloc@$0A@U?$_Vec_base_types@PAUIBaseFilter@@V?$allocator@PAUIBaseFilter@@@std@@@std@@@std@@QAEXI@Z PROC ; std::_Vector_alloc<0,std::_Vec_base_types<IBaseFilter *,std::allocator<IBaseFilter *> > >::__autoclassinit, COMDAT
; _this$ = ecx
  00000	55		 push	 ebp
  00001	8b ec		 mov	 ebp, esp
  00003	51		 push	 ecx
  00004	89 4d fc	 mov	 DWORD PTR _this$[ebp], ecx
  00007	6a 00		 push	 0
  00009	8b 4d fc	 mov	 ecx, DWORD PTR _this$[ebp]
  0000c	e8 00 00 00 00	 call	 ?__autoclassinit@?$_Vector_val@U?$_Simple_types@PAUIBaseFilter@@@std@@@std@@QAEXI@Z
  00011	8b e5		 mov	 esp, ebp
  00013	5d		 pop	 ebp
  00014	c2 04 00	 ret	 4
?__autoclassinit@?$_Vector_alloc@$0A@U?$_Vec_base_types@PAUIBaseFilter@@V?$allocator@PAUIBaseFilter@@@std@@@std@@@std@@QAEXI@Z ENDP ; std::_Vector_alloc<0,std::_Vec_base_types<IBaseFilter *,std::allocator<IBaseFilter *> > >::__autoclassinit
_TEXT	ENDS
; Function compile flags: /Odtp
;	COMDAT ?__autoclassinit@?$CComPtrBase@UISampleGrabber@@@ATL@@QAEXI@Z
_TEXT	SEGMENT
_this$ = -4						; size = 4
_$initVBases$ = 8					; size = 4
?__autoclassinit@?$CComPtrBase@UISampleGrabber@@@ATL@@QAEXI@Z PROC ; ATL::CComPtrBase<ISampleGrabber>::__autoclassinit, COMDAT
; _this$ = ecx
  00000	55		 push	 ebp
  00001	8b ec		 mov	 ebp, esp
  00003	51		 push	 ecx
  00004	89 4d fc	 mov	 DWORD PTR _this$[ebp], ecx
  00007	8b 45 fc	 mov	 eax, DWORD PTR _this$[ebp]
  0000a	c7 00 00 00 00
	00		 mov	 DWORD PTR [eax], 0
  00010	8b e5		 mov	 esp, ebp
  00012	5d		 pop	 ebp
  00013	c2 04 00	 ret	 4
?__autoclassinit@?$CComPtrBase@UISampleGrabber@@@ATL@@QAEXI@Z ENDP ; ATL::CComPtrBase<ISampleGrabber>::__autoclassinit
_TEXT	ENDS
; Function compile flags: /Odtp
;	COMDAT ?__autoclassinit@?$_List_alloc@$0A@U?$_List_base_types@PAEV?$allocator@PAE@std@@@std@@@std@@QAEXI@Z
_TEXT	SEGMENT
_this$ = -4						; size = 4
_$initVBases$ = 8					; size = 4
?__autoclassinit@?$_List_alloc@$0A@U?$_List_base_types@PAEV?$allocator@PAE@std@@@std@@@std@@QAEXI@Z PROC ; std::_List_alloc<0,std::_List_base_types<unsigned char *,std::allocator<unsigned char *> > >::__autoclassinit, COMDAT
; _this$ = ecx
  00000	55		 push	 ebp
  00001	8b ec		 mov	 ebp, esp
  00003	51		 push	 ecx
  00004	89 4d fc	 mov	 DWORD PTR _this$[ebp], ecx
  00007	6a 00		 push	 0
  00009	8b 4d fc	 mov	 ecx, DWORD PTR _this$[ebp]
  0000c	e8 00 00 00 00	 call	 ?__autoclassinit@?$_List_val@U?$_List_simple_types@PAE@std@@@std@@QAEXI@Z
  00011	8b e5		 mov	 esp, ebp
  00013	5d		 pop	 ebp
  00014	c2 04 00	 ret	 4
?__autoclassinit@?$_List_alloc@$0A@U?$_List_base_types@PAEV?$allocator@PAE@std@@@std@@@std@@QAEXI@Z ENDP ; std::_List_alloc<0,std::_List_base_types<unsigned char *,std::allocator<unsigned char *> > >::__autoclassinit
_TEXT	ENDS
; Function compile flags: /Odtp
;	COMDAT ?__autoclassinit@?$_Vector_val@U?$_Simple_types@PAUIBaseFilter@@@std@@@std@@QAEXI@Z
_TEXT	SEGMENT
_this$ = -4						; size = 4
_$initVBases$ = 8					; size = 4
?__autoclassinit@?$_Vector_val@U?$_Simple_types@PAUIBaseFilter@@@std@@@std@@QAEXI@Z PROC ; std::_Vector_val<std::_Simple_types<IBaseFilter *> >::__autoclassinit, COMDAT
; _this$ = ecx
  00000	55		 push	 ebp
  00001	8b ec		 mov	 ebp, esp
  00003	51		 push	 ecx
  00004	89 4d fc	 mov	 DWORD PTR _this$[ebp], ecx
  00007	8b 45 fc	 mov	 eax, DWORD PTR _this$[ebp]
  0000a	c7 00 00 00 00
	00		 mov	 DWORD PTR [eax], 0
  00010	8b 4d fc	 mov	 ecx, DWORD PTR _this$[ebp]
  00013	c7 41 04 00 00
	00 00		 mov	 DWORD PTR [ecx+4], 0
  0001a	8b 55 fc	 mov	 edx, DWORD PTR _this$[ebp]
  0001d	c7 42 08 00 00
	00 00		 mov	 DWORD PTR [edx+8], 0
  00024	8b e5		 mov	 esp, ebp
  00026	5d		 pop	 ebp
  00027	c2 04 00	 ret	 4
?__autoclassinit@?$_Vector_val@U?$_Simple_types@PAUIBaseFilter@@@std@@@std@@QAEXI@Z ENDP ; std::_Vector_val<std::_Simple_types<IBaseFilter *> >::__autoclassinit
_TEXT	ENDS
; Function compile flags: /Odtp
;	COMDAT ?__autoclassinit@?$_List_val@U?$_List_simple_types@PAE@std@@@std@@QAEXI@Z
_TEXT	SEGMENT
_this$ = -4						; size = 4
_$initVBases$ = 8					; size = 4
?__autoclassinit@?$_List_val@U?$_List_simple_types@PAE@std@@@std@@QAEXI@Z PROC ; std::_List_val<std::_List_simple_types<unsigned char *> >::__autoclassinit, COMDAT
; _this$ = ecx
  00000	55		 push	 ebp
  00001	8b ec		 mov	 ebp, esp
  00003	51		 push	 ecx
  00004	89 4d fc	 mov	 DWORD PTR _this$[ebp], ecx
  00007	8b 45 fc	 mov	 eax, DWORD PTR _this$[ebp]
  0000a	c7 00 00 00 00
	00		 mov	 DWORD PTR [eax], 0
  00010	8b e5		 mov	 esp, ebp
  00012	5d		 pop	 ebp
  00013	c2 04 00	 ret	 4
?__autoclassinit@?$_List_val@U?$_List_simple_types@PAE@std@@@std@@QAEXI@Z ENDP ; std::_List_val<std::_List_simple_types<unsigned char *> >::__autoclassinit
_TEXT	ENDS
; Function compile flags: /Odtp
; File e:\work_wm\hxijy_code\endoscopemfc2012_menu_changepara_youhua_savepic_usb_1114_twothread_svepic_save5\src\endoscopemfc\endoscopemfc.cpp
;	COMDAT ?ExitInstance@CEndoScopeMFCApp@@UAEHXZ
_TEXT	SEGMENT
_this$ = -4						; size = 4
?ExitInstance@CEndoScopeMFCApp@@UAEHXZ PROC		; CEndoScopeMFCApp::ExitInstance, COMDAT
; _this$ = ecx

; 136  : {

  00000	55		 push	 ebp
  00001	8b ec		 mov	 ebp, esp
  00003	51		 push	 ecx
  00004	89 4d fc	 mov	 DWORD PTR _this$[ebp], ecx

; 137  : 	CoUninitialize();

  00007	ff 15 00 00 00
	00		 call	 DWORD PTR __imp__CoUninitialize@0

; 138  : 	return CWinApp::ExitInstance();

  0000d	8b 4d fc	 mov	 ecx, DWORD PTR _this$[ebp]
  00010	ff 15 00 00 00
	00		 call	 DWORD PTR __imp_?ExitInstance@CWinApp@@UAEHXZ

; 139  : }

  00016	8b e5		 mov	 esp, ebp
  00018	5d		 pop	 ebp
  00019	c3		 ret	 0
?ExitInstance@CEndoScopeMFCApp@@UAEHXZ ENDP		; CEndoScopeMFCApp::ExitInstance
_TEXT	ENDS
; Function compile flags: /Odtp
; File d:\program files\microsoft visual studio 11.0\vc\atlmfc\include\afxwin.h
;	COMDAT ?GetApplicationRecoveryPingInterval@CWinApp@@UAEKXZ
_TEXT	SEGMENT
_this$ = -4						; size = 4
?GetApplicationRecoveryPingInterval@CWinApp@@UAEKXZ PROC ; CWinApp::GetApplicationRecoveryPingInterval, COMDAT
; _this$ = ecx

; 5502 : 	virtual DWORD GetApplicationRecoveryPingInterval() { return RECOVERY_DEFAULT_PING_INTERVAL; }  // Ping interval for RegisterApplicationRecoveryCallback

  00000	55		 push	 ebp
  00001	8b ec		 mov	 ebp, esp
  00003	51		 push	 ecx
  00004	89 4d fc	 mov	 DWORD PTR _this$[ebp], ecx
  00007	b8 88 13 00 00	 mov	 eax, 5000		; 00001388H
  0000c	8b e5		 mov	 esp, ebp
  0000e	5d		 pop	 ebp
  0000f	c3		 ret	 0
?GetApplicationRecoveryPingInterval@CWinApp@@UAEKXZ ENDP ; CWinApp::GetApplicationRecoveryPingInterval
_TEXT	ENDS
; Function compile flags: /Odtp
; File d:\program files\microsoft visual studio 11.0\vc\atlmfc\include\afxwin.h
;	COMDAT ?GetApplicationRecoveryParameter@CWinApp@@UAEPAXXZ
_TEXT	SEGMENT
_this$ = -4						; size = 4
?GetApplicationRecoveryParameter@CWinApp@@UAEPAXXZ PROC	; CWinApp::GetApplicationRecoveryParameter, COMDAT
; _this$ = ecx

; 5501 : 	virtual LPVOID GetApplicationRecoveryParameter() { return NULL; }  // Parameter to be passed along to RegisterApplicationRecoveryCallback

  00000	55		 push	 ebp
  00001	8b ec		 mov	 ebp, esp
  00003	51		 push	 ecx
  00004	89 4d fc	 mov	 DWORD PTR _this$[ebp], ecx
  00007	33 c0		 xor	 eax, eax
  00009	8b e5		 mov	 esp, ebp
  0000b	5d		 pop	 ebp
  0000c	c3		 ret	 0
?GetApplicationRecoveryParameter@CWinApp@@UAEPAXXZ ENDP	; CWinApp::GetApplicationRecoveryParameter
_TEXT	ENDS
; Function compile flags: /Odtp
; File d:\program files\microsoft visual studio 11.0\vc\atlmfc\include\afxwin.h
;	COMDAT ?GetApplicationRestartFlags@CWinApp@@UAEKXZ
_TEXT	SEGMENT
_this$ = -4						; size = 4
?GetApplicationRestartFlags@CWinApp@@UAEKXZ PROC	; CWinApp::GetApplicationRestartFlags, COMDAT
; _this$ = ecx

; 5500 : 	virtual DWORD GetApplicationRestartFlags() { return 0; }  // Flags for RegisterApplicationRestart: default is none of RESTART_NO_CRASH/RESTART_NO_HANG/RESTART_NO_PATCH/RESTART_NO_REBOOT

  00000	55		 push	 ebp
  00001	8b ec		 mov	 ebp, esp
  00003	51		 push	 ecx
  00004	89 4d fc	 mov	 DWORD PTR _this$[ebp], ecx
  00007	33 c0		 xor	 eax, eax
  00009	8b e5		 mov	 esp, ebp
  0000b	5d		 pop	 ebp
  0000c	c3		 ret	 0
?GetApplicationRestartFlags@CWinApp@@UAEKXZ ENDP	; CWinApp::GetApplicationRestartFlags
_TEXT	ENDS
; Function compile flags: /Odtp
; File d:\program files\microsoft visual studio 11.0\vc\atlmfc\include\afxwin.h
;	COMDAT ?RestoreAutosavedFilesAtRestart@CWinApp@@UBEHXZ
_TEXT	SEGMENT
_this$ = -4						; size = 4
?RestoreAutosavedFilesAtRestart@CWinApp@@UBEHXZ PROC	; CWinApp::RestoreAutosavedFilesAtRestart, COMDAT
; _this$ = ecx

; 5498 : 	virtual BOOL RestoreAutosavedFilesAtRestart() const { return m_dwRestartManagerSupportFlags & AFX_RESTART_MANAGER_RESTORE_AUTOSAVED_FILES; }

  00000	55		 push	 ebp
  00001	8b ec		 mov	 ebp, esp
  00003	51		 push	 ecx
  00004	89 4d fc	 mov	 DWORD PTR _this$[ebp], ecx
  00007	8b 45 fc	 mov	 eax, DWORD PTR _this$[ebp]
  0000a	8b 80 ac 00 00
	00		 mov	 eax, DWORD PTR [eax+172]
  00010	83 e0 20	 and	 eax, 32			; 00000020H
  00013	8b e5		 mov	 esp, ebp
  00015	5d		 pop	 ebp
  00016	c3		 ret	 0
?RestoreAutosavedFilesAtRestart@CWinApp@@UBEHXZ ENDP	; CWinApp::RestoreAutosavedFilesAtRestart
_TEXT	ENDS
; Function compile flags: /Odtp
; File d:\program files\microsoft visual studio 11.0\vc\atlmfc\include\afxwin.h
;	COMDAT ?ReopenPreviousFilesAtRestart@CWinApp@@UBEHXZ
_TEXT	SEGMENT
_this$ = -4						; size = 4
?ReopenPreviousFilesAtRestart@CWinApp@@UBEHXZ PROC	; CWinApp::ReopenPreviousFilesAtRestart, COMDAT
; _this$ = ecx

; 5497 : 	virtual BOOL ReopenPreviousFilesAtRestart() const { return m_dwRestartManagerSupportFlags & AFX_RESTART_MANAGER_REOPEN_PREVIOUS_FILES; }

  00000	55		 push	 ebp
  00001	8b ec		 mov	 ebp, esp
  00003	51		 push	 ecx
  00004	89 4d fc	 mov	 DWORD PTR _this$[ebp], ecx
  00007	8b 45 fc	 mov	 eax, DWORD PTR _this$[ebp]
  0000a	8b 80 ac 00 00
	00		 mov	 eax, DWORD PTR [eax+172]
  00010	83 e0 10	 and	 eax, 16			; 00000010H
  00013	8b e5		 mov	 esp, ebp
  00015	5d		 pop	 ebp
  00016	c3		 ret	 0
?ReopenPreviousFilesAtRestart@CWinApp@@UBEHXZ ENDP	; CWinApp::ReopenPreviousFilesAtRestart
_TEXT	ENDS
; Function compile flags: /Odtp
; File d:\program files\microsoft visual studio 11.0\vc\atlmfc\include\afxwin.h
;	COMDAT ?SupportsAutosaveAtInterval@CWinApp@@UBEHXZ
_TEXT	SEGMENT
_this$ = -4						; size = 4
?SupportsAutosaveAtInterval@CWinApp@@UBEHXZ PROC	; CWinApp::SupportsAutosaveAtInterval, COMDAT
; _this$ = ecx

; 5496 : 	virtual BOOL SupportsAutosaveAtInterval() const { return m_dwRestartManagerSupportFlags & AFX_RESTART_MANAGER_AUTOSAVE_AT_INTERVAL; }

  00000	55		 push	 ebp
  00001	8b ec		 mov	 ebp, esp
  00003	51		 push	 ecx
  00004	89 4d fc	 mov	 DWORD PTR _this$[ebp], ecx
  00007	8b 45 fc	 mov	 eax, DWORD PTR _this$[ebp]
  0000a	8b 80 ac 00 00
	00		 mov	 eax, DWORD PTR [eax+172]
  00010	83 e0 08	 and	 eax, 8
  00013	8b e5		 mov	 esp, ebp
  00015	5d		 pop	 ebp
  00016	c3		 ret	 0
?SupportsAutosaveAtInterval@CWinApp@@UBEHXZ ENDP	; CWinApp::SupportsAutosaveAtInterval
_TEXT	ENDS
; Function compile flags: /Odtp
; File d:\program files\microsoft visual studio 11.0\vc\atlmfc\include\afxwin.h
;	COMDAT ?SupportsAutosaveAtRestart@CWinApp@@UBEHXZ
_TEXT	SEGMENT
_this$ = -4						; size = 4
?SupportsAutosaveAtRestart@CWinApp@@UBEHXZ PROC		; CWinApp::SupportsAutosaveAtRestart, COMDAT
; _this$ = ecx

; 5495 : 	virtual BOOL SupportsAutosaveAtRestart() const { return m_dwRestartManagerSupportFlags & AFX_RESTART_MANAGER_AUTOSAVE_AT_RESTART; }

  00000	55		 push	 ebp
  00001	8b ec		 mov	 ebp, esp
  00003	51		 push	 ecx
  00004	89 4d fc	 mov	 DWORD PTR _this$[ebp], ecx
  00007	8b 45 fc	 mov	 eax, DWORD PTR _this$[ebp]
  0000a	8b 80 ac 00 00
	00		 mov	 eax, DWORD PTR [eax+172]
  00010	83 e0 04	 and	 eax, 4
  00013	8b e5		 mov	 esp, ebp
  00015	5d		 pop	 ebp
  00016	c3		 ret	 0
?SupportsAutosaveAtRestart@CWinApp@@UBEHXZ ENDP		; CWinApp::SupportsAutosaveAtRestart
_TEXT	ENDS
; Function compile flags: /Odtp
; File d:\program files\microsoft visual studio 11.0\vc\atlmfc\include\afxwin.h
;	COMDAT ?SupportsApplicationRecovery@CWinApp@@UBEHXZ
_TEXT	SEGMENT
_this$ = -4						; size = 4
?SupportsApplicationRecovery@CWinApp@@UBEHXZ PROC	; CWinApp::SupportsApplicationRecovery, COMDAT
; _this$ = ecx

; 5494 : 	virtual BOOL SupportsApplicationRecovery() const { return m_dwRestartManagerSupportFlags & AFX_RESTART_MANAGER_SUPPORT_RECOVERY; }

  00000	55		 push	 ebp
  00001	8b ec		 mov	 ebp, esp
  00003	51		 push	 ecx
  00004	89 4d fc	 mov	 DWORD PTR _this$[ebp], ecx
  00007	8b 45 fc	 mov	 eax, DWORD PTR _this$[ebp]
  0000a	8b 80 ac 00 00
	00		 mov	 eax, DWORD PTR [eax+172]
  00010	83 e0 02	 and	 eax, 2
  00013	8b e5		 mov	 esp, ebp
  00015	5d		 pop	 ebp
  00016	c3		 ret	 0
?SupportsApplicationRecovery@CWinApp@@UBEHXZ ENDP	; CWinApp::SupportsApplicationRecovery
_TEXT	ENDS
; Function compile flags: /Odtp
; File d:\program files\microsoft visual studio 11.0\vc\atlmfc\include\afxwin.h
;	COMDAT ?SupportsRestartManager@CWinApp@@UBEHXZ
_TEXT	SEGMENT
_this$ = -4						; size = 4
?SupportsRestartManager@CWinApp@@UBEHXZ PROC		; CWinApp::SupportsRestartManager, COMDAT
; _this$ = ecx

; 5493 : 	virtual BOOL SupportsRestartManager() const { return m_dwRestartManagerSupportFlags & AFX_RESTART_MANAGER_SUPPORT_RESTART; }

  00000	55		 push	 ebp
  00001	8b ec		 mov	 ebp, esp
  00003	51		 push	 ecx
  00004	89 4d fc	 mov	 DWORD PTR _this$[ebp], ecx
  00007	8b 45 fc	 mov	 eax, DWORD PTR _this$[ebp]
  0000a	8b 80 ac 00 00
	00		 mov	 eax, DWORD PTR [eax+172]
  00010	83 e0 01	 and	 eax, 1
  00013	8b e5		 mov	 esp, ebp
  00015	5d		 pop	 ebp
  00016	c3		 ret	 0
?SupportsRestartManager@CWinApp@@UBEHXZ ENDP		; CWinApp::SupportsRestartManager
_TEXT	ENDS
; Function compile flags: /Odtp
;	COMDAT ?__autoclassinit@CGdiObject@@QAEXI@Z
_TEXT	SEGMENT
_this$ = -4						; size = 4
_$initVBases$ = 8					; size = 4
?__autoclassinit@CGdiObject@@QAEXI@Z PROC		; CGdiObject::__autoclassinit, COMDAT
; _this$ = ecx
  00000	55		 push	 ebp
  00001	8b ec		 mov	 ebp, esp
  00003	51		 push	 ecx
  00004	89 4d fc	 mov	 DWORD PTR _this$[ebp], ecx
  00007	8b 45 fc	 mov	 eax, DWORD PTR _this$[ebp]
  0000a	c7 40 04 00 00
	00 00		 mov	 DWORD PTR [eax+4], 0
  00011	8b e5		 mov	 esp, ebp
  00013	5d		 pop	 ebp
  00014	c2 04 00	 ret	 4
?__autoclassinit@CGdiObject@@QAEXI@Z ENDP		; CGdiObject::__autoclassinit
_TEXT	ENDS
; Function compile flags: /Odtp
;	COMDAT ?__autoclassinit@CWnd@@QAEXI@Z
_TEXT	SEGMENT
_this$ = -4						; size = 4
_$initVBases$ = 8					; size = 4
?__autoclassinit@CWnd@@QAEXI@Z PROC			; CWnd::__autoclassinit, COMDAT
; _this$ = ecx
  00000	55		 push	 ebp
  00001	8b ec		 mov	 ebp, esp
  00003	51		 push	 ecx
  00004	89 4d fc	 mov	 DWORD PTR _this$[ebp], ecx
  00007	6a 00		 push	 0
  00009	8b 4d fc	 mov	 ecx, DWORD PTR _this$[ebp]
  0000c	e8 00 00 00 00	 call	 ?__autoclassinit@CCmdTarget@@QAEXI@Z
  00011	8b 45 fc	 mov	 eax, DWORD PTR _this$[ebp]
  00014	c7 40 20 00 00
	00 00		 mov	 DWORD PTR [eax+32], 0
  0001b	8b 4d fc	 mov	 ecx, DWORD PTR _this$[ebp]
  0001e	c7 41 28 00 00
	00 00		 mov	 DWORD PTR [ecx+40], 0
  00025	8b 55 fc	 mov	 edx, DWORD PTR _this$[ebp]
  00028	c7 42 2c 00 00
	00 00		 mov	 DWORD PTR [edx+44], 0
  0002f	8b 45 fc	 mov	 eax, DWORD PTR _this$[ebp]
  00032	c7 40 50 00 00
	00 00		 mov	 DWORD PTR [eax+80], 0
  00039	8b 4d fc	 mov	 ecx, DWORD PTR _this$[ebp]
  0003c	c7 41 54 00 00
	00 00		 mov	 DWORD PTR [ecx+84], 0
  00043	8b 55 fc	 mov	 edx, DWORD PTR _this$[ebp]
  00046	c7 42 5c 00 00
	00 00		 mov	 DWORD PTR [edx+92], 0
  0004d	8b 45 fc	 mov	 eax, DWORD PTR _this$[ebp]
  00050	c7 40 64 00 00
	00 00		 mov	 DWORD PTR [eax+100], 0
  00057	8b 4d fc	 mov	 ecx, DWORD PTR _this$[ebp]
  0005a	c7 41 68 00 00
	00 00		 mov	 DWORD PTR [ecx+104], 0
  00061	8b 55 fc	 mov	 edx, DWORD PTR _this$[ebp]
  00064	c7 42 6c 00 00
	00 00		 mov	 DWORD PTR [edx+108], 0
  0006b	8b 45 fc	 mov	 eax, DWORD PTR _this$[ebp]
  0006e	c7 40 70 00 00
	00 00		 mov	 DWORD PTR [eax+112], 0
  00075	8b e5		 mov	 esp, ebp
  00077	5d		 pop	 ebp
  00078	c2 04 00	 ret	 4
?__autoclassinit@CWnd@@QAEXI@Z ENDP			; CWnd::__autoclassinit
_TEXT	ENDS
; Function compile flags: /Odtp
; File d:\program files\microsoft visual studio 11.0\vc\atlmfc\include\afx.inl
;	COMDAT ??2CObject@@SGPAXI@Z
_TEXT	SEGMENT
_nSize$ = 8						; size = 4
??2CObject@@SGPAXI@Z PROC				; CObject::operator new, COMDAT

; 106  : 	{ return ::operator new(nSize); }

  00000	55		 push	 ebp
  00001	8b ec		 mov	 ebp, esp
  00003	8b 45 08	 mov	 eax, DWORD PTR _nSize$[ebp]
  00006	50		 push	 eax
  00007	ff 15 00 00 00
	00		 call	 DWORD PTR __imp_??2@YAPAXI@Z
  0000d	83 c4 04	 add	 esp, 4
  00010	5d		 pop	 ebp
  00011	c2 04 00	 ret	 4
??2CObject@@SGPAXI@Z ENDP				; CObject::operator new
_TEXT	ENDS
; Function compile flags: /Odtp
;	COMDAT ?__autoclassinit@CCmdTarget@@QAEXI@Z
_TEXT	SEGMENT
_this$ = -4						; size = 4
_$initVBases$ = 8					; size = 4
?__autoclassinit@CCmdTarget@@QAEXI@Z PROC		; CCmdTarget::__autoclassinit, COMDAT
; _this$ = ecx
  00000	55		 push	 ebp
  00001	8b ec		 mov	 ebp, esp
  00003	51		 push	 ecx
  00004	89 4d fc	 mov	 DWORD PTR _this$[ebp], ecx
  00007	8b 45 fc	 mov	 eax, DWORD PTR _this$[ebp]
  0000a	c7 40 08 00 00
	00 00		 mov	 DWORD PTR [eax+8], 0
  00011	8b 4d fc	 mov	 ecx, DWORD PTR _this$[ebp]
  00014	c7 41 1c 00 00
	00 00		 mov	 DWORD PTR [ecx+28], 0
  0001b	8b e5		 mov	 esp, ebp
  0001d	5d		 pop	 ebp
  0001e	c2 04 00	 ret	 4
?__autoclassinit@CCmdTarget@@QAEXI@Z ENDP		; CCmdTarget::__autoclassinit
_TEXT	ENDS
END
