; Listing generated by Microsoft (R) Optimizing Compiler Version 17.00.50727.1 

	TITLE	E:\work_wm\HXIJY_code\endoscopemfc2012_menu_changepara_youhua_savepic_USB_1114_twothread_svepic_save5\src\EndoScopeMFC\Login.cpp
	.686P
	.XMM
	include listing.inc
	.model	flat

INCLUDELIB OLDNAMES

PUBLIC	??_R2Login@@8					; Login::`RTTI Base Class Array'
PUBLIC	??_R1A@?0A@EA@Login@@8				; Login::`RTTI Base Class Descriptor at (0,-1,0,64)'
PUBLIC	??_R3Login@@8					; Login::`RTTI Class Hierarchy Descriptor'
PUBLIC	??_R0?AVLogin@@@8				; Login `RTTI Type Descriptor'
PUBLIC	??_R4Login@@6B@					; Login::`RTTI Complete Object Locator'
PUBLIC	??_R0?AVCEdit@@@8				; CEdit `RTTI Type Descriptor'
PUBLIC	??_R1A@?0A@EA@CEdit@@8				; CEdit::`RTTI Base Class Descriptor at (0,-1,0,64)'
PUBLIC	??_R2CEdit@@8					; CEdit::`RTTI Base Class Array'
PUBLIC	??_R3CEdit@@8					; CEdit::`RTTI Class Hierarchy Descriptor'
PUBLIC	??_R4CEdit@@6B@					; CEdit::`RTTI Complete Object Locator'
PUBLIC	??_7CEdit@@6B@					; CEdit::`vftable'
PUBLIC	??_7Login@@6B@					; Login::`vftable'
PUBLIC	?classLogin@Login@@2UCRuntimeClass@@B		; Login::classLogin
EXTRN	?GetRuntimeClass@CEdit@@UBEPAUCRuntimeClass@@XZ:PROC ; CEdit::GetRuntimeClass
EXTRN	__imp_?UpdateData@CWnd@@QAEHH@Z:PROC
EXTRN	__imp_?DDX_Control@@YGXPAVCDataExchange@@HAAVCWnd@@@Z:PROC
EXTRN	__imp_??1CEdit@@UAE@XZ:PROC
EXTRN	__imp_?GetRuntimeClass@CEdit@@UBEPAUCRuntimeClass@@XZ:PROC
;	COMDAT ?classLogin@Login@@2UCRuntimeClass@@B
CONST	SEGMENT
?classLogin@Login@@2UCRuntimeClass@@B DD FLAT:$SG4294953199 ; Login::classLogin
	DD	0280H
	DD	0ffffH
	DD	00H
	DD	FLAT:?_GetBaseClass@Login@@KGPAUCRuntimeClass@@XZ
	DD	00H
	DD	00H
CONST	ENDS
;	COMDAT ??_7Login@@6B@
CONST	SEGMENT
??_7Login@@6B@ DD FLAT:??_R4Login@@6B@			; Login::`vftable'
	DD	FLAT:?GetRuntimeClass@Login@@UBEPAUCRuntimeClass@@XZ
	DD	FLAT:??_ELogin@@UAEPAXI@Z
	DD	FLAT:?Serialize@CObject@@UAEXAAVCArchive@@@Z
	DD	FLAT:?AssertValid@CObject@@UBEXXZ
	DD	FLAT:?Dump@CObject@@UBEXAAVCDumpContext@@@Z
	DD	FLAT:?OnCmdMsg@CDialog@@UAEHIHPAXPAUAFX_CMDHANDLERINFO@@@Z
	DD	FLAT:?OnFinalRelease@CWnd@@UAEXXZ
	DD	FLAT:?IsInvokeAllowed@CCmdTarget@@UAEHJ@Z
	DD	FLAT:?GetDispatchIID@CCmdTarget@@UAEHPAU_GUID@@@Z
	DD	FLAT:?GetTypeInfoCount@CCmdTarget@@UAEIXZ
	DD	FLAT:?GetTypeLibCache@CCmdTarget@@UAEPAVCTypeLibCache@@XZ
	DD	FLAT:?GetTypeLib@CCmdTarget@@UAEJKPAPAUITypeLib@@@Z
	DD	FLAT:?GetMessageMap@Login@@MBEPBUAFX_MSGMAP@@XZ
	DD	FLAT:?GetCommandMap@CCmdTarget@@MBEPBUAFX_OLECMDMAP@@XZ
	DD	FLAT:?GetDispatchMap@CCmdTarget@@MBEPBUAFX_DISPMAP@@XZ
	DD	FLAT:?GetConnectionMap@CCmdTarget@@MBEPBUAFX_CONNECTIONMAP@@XZ
	DD	FLAT:?GetInterfaceMap@CWnd@@MBEPBUAFX_INTERFACEMAP@@XZ
	DD	FLAT:?GetEventSinkMap@CCmdTarget@@MBEPBUAFX_EVENTSINKMAP@@XZ
	DD	FLAT:?OnCreateAggregates@CCmdTarget@@UAEHXZ
	DD	FLAT:?GetInterfaceHook@CCmdTarget@@UAEPAUIUnknown@@PBX@Z
	DD	FLAT:?GetExtraConnectionPoints@CCmdTarget@@MAEHPAVCPtrArray@@@Z
	DD	FLAT:?GetConnectionHook@CCmdTarget@@MAEPAUIConnectionPoint@@ABU_GUID@@@Z
	DD	FLAT:?PreSubclassWindow@CWnd@@UAEXXZ
	DD	FLAT:?Create@CWnd@@UAEHPBD0KABUtagRECT@@PAV1@IPAUCCreateContext@@@Z
	DD	FLAT:?CreateEx@CWnd@@UAEHKPBD0KABUtagRECT@@PAV1@IPAX@Z
	DD	FLAT:?CreateEx@CWnd@@UAEHKPBD0KHHHHPAUHWND__@@PAUHMENU__@@PAX@Z
	DD	FLAT:?DestroyWindow@CWnd@@UAEHXZ
	DD	FLAT:?PreCreateWindow@CWnd@@UAEHAAUtagCREATESTRUCTA@@@Z
	DD	FLAT:?CalcWindowRect@CWnd@@UAEXPAUtagRECT@@I@Z
	DD	FLAT:?GetMenu@CWnd@@UBEPAVCMenu@@XZ
	DD	FLAT:?SetMenu@CWnd@@UAEHPAVCMenu@@@Z
	DD	FLAT:?OnToolHitTest@CWnd@@UBEHVCPoint@@PAUtagTOOLINFOA@@@Z
	DD	FLAT:?GetScrollBarCtrl@CWnd@@UBEPAVCScrollBar@@H@Z
	DD	FLAT:?WinHelpA@CWnd@@UAEXKI@Z
	DD	FLAT:?HtmlHelpA@CWnd@@UAEXKI@Z
	DD	FLAT:?WinHelpInternal@CWnd@@UAEXKI@Z
	DD	FLAT:?ContinueModal@CWnd@@UAEHXZ
	DD	FLAT:?EndModalLoop@CWnd@@UAEXH@Z
	DD	FLAT:?OnDrawIconicThumbnailOrLivePreview@CWnd@@UAEXAAVCDC@@VCRect@@VCSize@@HAAH@Z
	DD	FLAT:?EnsureStdObj@CWnd@@UAEJXZ
	DD	FLAT:?get_accParent@CWnd@@UAEJPAPAUIDispatch@@@Z
	DD	FLAT:?get_accChildCount@CWnd@@UAEJPAJ@Z
	DD	FLAT:?get_accChild@CWnd@@UAEJUtagVARIANT@@PAPAUIDispatch@@@Z
	DD	FLAT:?get_accName@CWnd@@UAEJUtagVARIANT@@PAPA_W@Z
	DD	FLAT:?get_accValue@CWnd@@UAEJUtagVARIANT@@PAPA_W@Z
	DD	FLAT:?get_accDescription@CWnd@@UAEJUtagVARIANT@@PAPA_W@Z
	DD	FLAT:?get_accRole@CWnd@@UAEJUtagVARIANT@@PAU2@@Z
	DD	FLAT:?get_accState@CWnd@@UAEJUtagVARIANT@@PAU2@@Z
	DD	FLAT:?get_accHelp@CWnd@@UAEJUtagVARIANT@@PAPA_W@Z
	DD	FLAT:?get_accHelpTopic@CWnd@@UAEJPAPA_WUtagVARIANT@@PAJ@Z
	DD	FLAT:?get_accKeyboardShortcut@CWnd@@UAEJUtagVARIANT@@PAPA_W@Z
	DD	FLAT:?get_accFocus@CWnd@@UAEJPAUtagVARIANT@@@Z
	DD	FLAT:?get_accSelection@CWnd@@UAEJPAUtagVARIANT@@@Z
	DD	FLAT:?get_accDefaultAction@CWnd@@UAEJUtagVARIANT@@PAPA_W@Z
	DD	FLAT:?accSelect@CWnd@@UAEJJUtagVARIANT@@@Z
	DD	FLAT:?accLocation@CWnd@@UAEJPAJ000UtagVARIANT@@@Z
	DD	FLAT:?accNavigate@CWnd@@UAEJJUtagVARIANT@@PAU2@@Z
	DD	FLAT:?accHitTest@CWnd@@UAEJJJPAUtagVARIANT@@@Z
	DD	FLAT:?accDoDefaultAction@CWnd@@UAEJUtagVARIANT@@@Z
	DD	FLAT:?put_accName@CWnd@@UAEJUtagVARIANT@@PA_W@Z
	DD	FLAT:?put_accValue@CWnd@@UAEJUtagVARIANT@@PA_W@Z
	DD	FLAT:?SetProxy@CWnd@@UAEJPAUIAccessibleProxy@@@Z
	DD	FLAT:?CreateAccessibleProxy@CWnd@@UAEJIJPAJ@Z
	DD	FLAT:?OnCommand@CDialogEx@@MAEHIJ@Z
	DD	FLAT:?OnNotify@CWnd@@MAEHIJPAJ@Z
	DD	FLAT:?GetSuperWndProcAddr@CWnd@@MAEPAP6GJPAUHWND__@@IIJ@ZXZ
	DD	FLAT:?DoDataExchange@Login@@MAEXPAVCDataExchange@@@Z
	DD	FLAT:?BeginModalState@CWnd@@UAEXXZ
	DD	FLAT:?EndModalState@CWnd@@UAEXXZ
	DD	FLAT:?PreTranslateMessage@CDialogEx@@UAEHPAUtagMSG@@@Z
	DD	FLAT:?OnAmbientProperty@CWnd@@UAEHPAVCOleControlSite@@JPAUtagVARIANT@@@Z
	DD	FLAT:?WindowProc@CWnd@@MAEJIIJ@Z
	DD	FLAT:?OnWndMsg@CWnd@@MAEHIIJPAJ@Z
	DD	FLAT:?DefWindowProcA@CWnd@@MAEJIIJ@Z
	DD	FLAT:?PostNcDestroy@CWnd@@MAEXXZ
	DD	FLAT:?OnChildNotify@CWnd@@MAEHIIJPAJ@Z
	DD	FLAT:?OnTouchInputs@CWnd@@MAEHIPAUtagTOUCHINPUT@@@Z
	DD	FLAT:?OnTouchInput@CWnd@@MAEHVCPoint@@HHPAUtagTOUCHINPUT@@@Z
	DD	FLAT:?GetGestureStatus@CWnd@@MAEKVCPoint@@@Z
	DD	FLAT:?OnGestureZoom@CWnd@@MAEHVCPoint@@J@Z
	DD	FLAT:?OnGesturePan@CWnd@@MAEHVCPoint@@0@Z
	DD	FLAT:?OnGestureRotate@CWnd@@MAEHVCPoint@@N@Z
	DD	FLAT:?OnGestureTwoFingerTap@CWnd@@MAEHVCPoint@@@Z
	DD	FLAT:?OnGesturePressAndTap@CWnd@@MAEHVCPoint@@J@Z
	DD	FLAT:?CheckAutoCenter@CDialog@@UAEHXZ
	DD	FLAT:?IsFrameWnd@CWnd@@UBEHXZ
	DD	FLAT:?CreateControlContainer@CWnd@@MAEHPAPAVCOleControlContainer@@@Z
	DD	FLAT:?CreateControlSite@CWnd@@MAEHPAVCOleControlContainer@@PAPAVCOleControlSite@@IABU_GUID@@@Z
	DD	FLAT:?SetOccDialogInfo@CDialog@@MAEHPAU_AFX_OCC_DIALOG_INFO@@@Z
	DD	FLAT:?GetOccDialogInfo@CDialog@@MAEPAU_AFX_OCC_DIALOG_INFO@@XZ
	DD	FLAT:?Create@CDialog@@UAEHIPAVCWnd@@@Z
	DD	FLAT:?Create@CDialog@@UAEHPBDPAVCWnd@@@Z
	DD	FLAT:?CreateIndirect@CDialog@@UAEHPAXPAVCWnd@@@Z
	DD	FLAT:?CreateIndirect@CDialog@@UAEHPBUDLGTEMPLATE@@PAVCWnd@@PAX@Z
	DD	FLAT:?DoModal@CDialog@@UAEHXZ
	DD	FLAT:?OnInitDialog@Login@@UAEHXZ
	DD	FLAT:?OnSetFont@CDialog@@UAEXPAVCFont@@@Z
	DD	FLAT:?OnOK@CDialog@@MAEXXZ
	DD	FLAT:?OnCancel@CDialog@@MAEXXZ
	DD	FLAT:?PreInitDialog@CDialog@@MAEXXZ
CONST	ENDS
;	COMDAT ??_7CEdit@@6B@
CONST	SEGMENT
??_7CEdit@@6B@ DD FLAT:??_R4CEdit@@6B@			; CEdit::`vftable'
	DD	FLAT:?GetRuntimeClass@CEdit@@UBEPAUCRuntimeClass@@XZ
	DD	FLAT:??_ECEdit@@UAEPAXI@Z
	DD	FLAT:?Serialize@CObject@@UAEXAAVCArchive@@@Z
	DD	FLAT:?AssertValid@CObject@@UBEXXZ
	DD	FLAT:?Dump@CObject@@UBEXAAVCDumpContext@@@Z
	DD	FLAT:?OnCmdMsg@CCmdTarget@@UAEHIHPAXPAUAFX_CMDHANDLERINFO@@@Z
	DD	FLAT:?OnFinalRelease@CWnd@@UAEXXZ
	DD	FLAT:?IsInvokeAllowed@CCmdTarget@@UAEHJ@Z
	DD	FLAT:?GetDispatchIID@CCmdTarget@@UAEHPAU_GUID@@@Z
	DD	FLAT:?GetTypeInfoCount@CCmdTarget@@UAEIXZ
	DD	FLAT:?GetTypeLibCache@CCmdTarget@@UAEPAVCTypeLibCache@@XZ
	DD	FLAT:?GetTypeLib@CCmdTarget@@UAEJKPAPAUITypeLib@@@Z
	DD	FLAT:?GetMessageMap@CWnd@@MBEPBUAFX_MSGMAP@@XZ
	DD	FLAT:?GetCommandMap@CCmdTarget@@MBEPBUAFX_OLECMDMAP@@XZ
	DD	FLAT:?GetDispatchMap@CCmdTarget@@MBEPBUAFX_DISPMAP@@XZ
	DD	FLAT:?GetConnectionMap@CCmdTarget@@MBEPBUAFX_CONNECTIONMAP@@XZ
	DD	FLAT:?GetInterfaceMap@CWnd@@MBEPBUAFX_INTERFACEMAP@@XZ
	DD	FLAT:?GetEventSinkMap@CCmdTarget@@MBEPBUAFX_EVENTSINKMAP@@XZ
	DD	FLAT:?OnCreateAggregates@CCmdTarget@@UAEHXZ
	DD	FLAT:?GetInterfaceHook@CCmdTarget@@UAEPAUIUnknown@@PBX@Z
	DD	FLAT:?GetExtraConnectionPoints@CCmdTarget@@MAEHPAVCPtrArray@@@Z
	DD	FLAT:?GetConnectionHook@CCmdTarget@@MAEPAUIConnectionPoint@@ABU_GUID@@@Z
	DD	FLAT:?PreSubclassWindow@CWnd@@UAEXXZ
	DD	FLAT:?Create@CWnd@@UAEHPBD0KABUtagRECT@@PAV1@IPAUCCreateContext@@@Z
	DD	FLAT:?CreateEx@CWnd@@UAEHKPBD0KABUtagRECT@@PAV1@IPAX@Z
	DD	FLAT:?CreateEx@CWnd@@UAEHKPBD0KHHHHPAUHWND__@@PAUHMENU__@@PAX@Z
	DD	FLAT:?DestroyWindow@CWnd@@UAEHXZ
	DD	FLAT:?PreCreateWindow@CWnd@@UAEHAAUtagCREATESTRUCTA@@@Z
	DD	FLAT:?CalcWindowRect@CWnd@@UAEXPAUtagRECT@@I@Z
	DD	FLAT:?GetMenu@CWnd@@UBEPAVCMenu@@XZ
	DD	FLAT:?SetMenu@CWnd@@UAEHPAVCMenu@@@Z
	DD	FLAT:?OnToolHitTest@CWnd@@UBEHVCPoint@@PAUtagTOOLINFOA@@@Z
	DD	FLAT:?GetScrollBarCtrl@CWnd@@UBEPAVCScrollBar@@H@Z
	DD	FLAT:?WinHelpA@CWnd@@UAEXKI@Z
	DD	FLAT:?HtmlHelpA@CWnd@@UAEXKI@Z
	DD	FLAT:?WinHelpInternal@CWnd@@UAEXKI@Z
	DD	FLAT:?ContinueModal@CWnd@@UAEHXZ
	DD	FLAT:?EndModalLoop@CWnd@@UAEXH@Z
	DD	FLAT:?OnDrawIconicThumbnailOrLivePreview@CWnd@@UAEXAAVCDC@@VCRect@@VCSize@@HAAH@Z
	DD	FLAT:?EnsureStdObj@CWnd@@UAEJXZ
	DD	FLAT:?get_accParent@CWnd@@UAEJPAPAUIDispatch@@@Z
	DD	FLAT:?get_accChildCount@CWnd@@UAEJPAJ@Z
	DD	FLAT:?get_accChild@CWnd@@UAEJUtagVARIANT@@PAPAUIDispatch@@@Z
	DD	FLAT:?get_accName@CWnd@@UAEJUtagVARIANT@@PAPA_W@Z
	DD	FLAT:?get_accValue@CWnd@@UAEJUtagVARIANT@@PAPA_W@Z
	DD	FLAT:?get_accDescription@CWnd@@UAEJUtagVARIANT@@PAPA_W@Z
	DD	FLAT:?get_accRole@CWnd@@UAEJUtagVARIANT@@PAU2@@Z
	DD	FLAT:?get_accState@CWnd@@UAEJUtagVARIANT@@PAU2@@Z
	DD	FLAT:?get_accHelp@CWnd@@UAEJUtagVARIANT@@PAPA_W@Z
	DD	FLAT:?get_accHelpTopic@CWnd@@UAEJPAPA_WUtagVARIANT@@PAJ@Z
	DD	FLAT:?get_accKeyboardShortcut@CWnd@@UAEJUtagVARIANT@@PAPA_W@Z
	DD	FLAT:?get_accFocus@CWnd@@UAEJPAUtagVARIANT@@@Z
	DD	FLAT:?get_accSelection@CWnd@@UAEJPAUtagVARIANT@@@Z
	DD	FLAT:?get_accDefaultAction@CWnd@@UAEJUtagVARIANT@@PAPA_W@Z
	DD	FLAT:?accSelect@CWnd@@UAEJJUtagVARIANT@@@Z
	DD	FLAT:?accLocation@CWnd@@UAEJPAJ000UtagVARIANT@@@Z
	DD	FLAT:?accNavigate@CWnd@@UAEJJUtagVARIANT@@PAU2@@Z
	DD	FLAT:?accHitTest@CWnd@@UAEJJJPAUtagVARIANT@@@Z
	DD	FLAT:?accDoDefaultAction@CWnd@@UAEJUtagVARIANT@@@Z
	DD	FLAT:?put_accName@CWnd@@UAEJUtagVARIANT@@PA_W@Z
	DD	FLAT:?put_accValue@CWnd@@UAEJUtagVARIANT@@PA_W@Z
	DD	FLAT:?SetProxy@CWnd@@UAEJPAUIAccessibleProxy@@@Z
	DD	FLAT:?CreateAccessibleProxy@CWnd@@UAEJIJPAJ@Z
	DD	FLAT:?OnCommand@CWnd@@MAEHIJ@Z
	DD	FLAT:?OnNotify@CWnd@@MAEHIJPAJ@Z
	DD	FLAT:?GetSuperWndProcAddr@CWnd@@MAEPAP6GJPAUHWND__@@IIJ@ZXZ
	DD	FLAT:?DoDataExchange@CWnd@@MAEXPAVCDataExchange@@@Z
	DD	FLAT:?BeginModalState@CWnd@@UAEXXZ
	DD	FLAT:?EndModalState@CWnd@@UAEXXZ
	DD	FLAT:?PreTranslateMessage@CWnd@@UAEHPAUtagMSG@@@Z
	DD	FLAT:?OnAmbientProperty@CWnd@@UAEHPAVCOleControlSite@@JPAUtagVARIANT@@@Z
	DD	FLAT:?WindowProc@CWnd@@MAEJIIJ@Z
	DD	FLAT:?OnWndMsg@CWnd@@MAEHIIJPAJ@Z
	DD	FLAT:?DefWindowProcA@CWnd@@MAEJIIJ@Z
	DD	FLAT:?PostNcDestroy@CWnd@@MAEXXZ
	DD	FLAT:?OnChildNotify@CWnd@@MAEHIIJPAJ@Z
	DD	FLAT:?OnTouchInputs@CWnd@@MAEHIPAUtagTOUCHINPUT@@@Z
	DD	FLAT:?OnTouchInput@CWnd@@MAEHVCPoint@@HHPAUtagTOUCHINPUT@@@Z
	DD	FLAT:?GetGestureStatus@CWnd@@MAEKVCPoint@@@Z
	DD	FLAT:?OnGestureZoom@CWnd@@MAEHVCPoint@@J@Z
	DD	FLAT:?OnGesturePan@CWnd@@MAEHVCPoint@@0@Z
	DD	FLAT:?OnGestureRotate@CWnd@@MAEHVCPoint@@N@Z
	DD	FLAT:?OnGestureTwoFingerTap@CWnd@@MAEHVCPoint@@@Z
	DD	FLAT:?OnGesturePressAndTap@CWnd@@MAEHVCPoint@@J@Z
	DD	FLAT:?CheckAutoCenter@CWnd@@UAEHXZ
	DD	FLAT:?IsFrameWnd@CWnd@@UBEHXZ
	DD	FLAT:?CreateControlContainer@CWnd@@MAEHPAPAVCOleControlContainer@@@Z
	DD	FLAT:?CreateControlSite@CWnd@@MAEHPAVCOleControlContainer@@PAPAVCOleControlSite@@IABU_GUID@@@Z
	DD	FLAT:?SetOccDialogInfo@CWnd@@MAEHPAU_AFX_OCC_DIALOG_INFO@@@Z
	DD	FLAT:?GetOccDialogInfo@CWnd@@MAEPAU_AFX_OCC_DIALOG_INFO@@XZ
CONST	ENDS
;	COMDAT ??_R4CEdit@@6B@
rdata$r	SEGMENT
??_R4CEdit@@6B@ DD 00H					; CEdit::`RTTI Complete Object Locator'
	DD	00H
	DD	00H
	DD	FLAT:??_R0?AVCEdit@@@8
	DD	FLAT:??_R3CEdit@@8
rdata$r	ENDS
;	COMDAT ??_R3CEdit@@8
rdata$r	SEGMENT
??_R3CEdit@@8 DD 00H					; CEdit::`RTTI Class Hierarchy Descriptor'
	DD	00H
	DD	04H
	DD	FLAT:??_R2CEdit@@8
rdata$r	ENDS
;	COMDAT ??_R2CEdit@@8
rdata$r	SEGMENT
??_R2CEdit@@8 DD FLAT:??_R1A@?0A@EA@CEdit@@8		; CEdit::`RTTI Base Class Array'
	DD	FLAT:??_R1A@?0A@EA@CWnd@@8
	DD	FLAT:??_R1A@?0A@EA@CCmdTarget@@8
	DD	FLAT:??_R1A@?0A@EA@CObject@@8
rdata$r	ENDS
;	COMDAT ??_R1A@?0A@EA@CEdit@@8
rdata$r	SEGMENT
??_R1A@?0A@EA@CEdit@@8 DD FLAT:??_R0?AVCEdit@@@8	; CEdit::`RTTI Base Class Descriptor at (0,-1,0,64)'
	DD	03H
	DD	00H
	DD	0ffffffffH
	DD	00H
	DD	040H
	DD	FLAT:??_R3CEdit@@8
rdata$r	ENDS
;	COMDAT ??_R0?AVCEdit@@@8
_DATA	SEGMENT
??_R0?AVCEdit@@@8 DD FLAT:??_7type_info@@6B@		; CEdit `RTTI Type Descriptor'
	DD	00H
	DB	'.?AVCEdit@@', 00H
_DATA	ENDS
;	COMDAT ?_messageEntries@?1??GetThisMessageMap@Login@@KGPBUAFX_MSGMAP@@XZ@4QBUAFX_MSGMAP_ENTRY@@B
CONST	SEGMENT
?_messageEntries@?1??GetThisMessageMap@Login@@KGPBUAFX_MSGMAP@@XZ@4QBUAFX_MSGMAP_ENTRY@@B DD 0111H ; `Login::GetThisMessageMap'::`2'::_messageEntries
	DD	00H
	DD	0413H
	DD	0413H
	DD	03aH
	DD	FLAT:?OnBnClickedBtnSetpsw@Login@@QAEXXZ
	DD	0111H
	DD	00H
	DD	01H
	DD	01H
	DD	03aH
	DD	FLAT:?OnBnClickedOk@Login@@QAEXXZ
	DD	00H
	DD	00H
	DD	00H
	DD	00H
	DD	00H
	DD	00H
CONST	ENDS
;	COMDAT ?messageMap@?1??GetThisMessageMap@Login@@KGPBUAFX_MSGMAP@@XZ@4U3@B
CONST	SEGMENT
?messageMap@?1??GetThisMessageMap@Login@@KGPBUAFX_MSGMAP@@XZ@4U3@B DD FLAT:?GetThisMessageMap@CDialogEx@@KGPBUAFX_MSGMAP@@XZ ; `Login::GetThisMessageMap'::`2'::messageMap
	DD	FLAT:?_messageEntries@?1??GetThisMessageMap@Login@@KGPBUAFX_MSGMAP@@XZ@4QBUAFX_MSGMAP_ENTRY@@B
CONST	ENDS
;	COMDAT ??_R4Login@@6B@
rdata$r	SEGMENT
??_R4Login@@6B@ DD 00H					; Login::`RTTI Complete Object Locator'
	DD	00H
	DD	00H
	DD	FLAT:??_R0?AVLogin@@@8
	DD	FLAT:??_R3Login@@8
rdata$r	ENDS
;	COMDAT ??_R0?AVLogin@@@8
_DATA	SEGMENT
??_R0?AVLogin@@@8 DD FLAT:??_7type_info@@6B@		; Login `RTTI Type Descriptor'
	DD	00H
	DB	'.?AVLogin@@', 00H
_DATA	ENDS
;	COMDAT ??_R3Login@@8
rdata$r	SEGMENT
??_R3Login@@8 DD 00H					; Login::`RTTI Class Hierarchy Descriptor'
	DD	00H
	DD	06H
	DD	FLAT:??_R2Login@@8
rdata$r	ENDS
;	COMDAT ??_R1A@?0A@EA@Login@@8
rdata$r	SEGMENT
??_R1A@?0A@EA@Login@@8 DD FLAT:??_R0?AVLogin@@@8	; Login::`RTTI Base Class Descriptor at (0,-1,0,64)'
	DD	05H
	DD	00H
	DD	0ffffffffH
	DD	00H
	DD	040H
	DD	FLAT:??_R3Login@@8
rdata$r	ENDS
;	COMDAT ??_R2Login@@8
rdata$r	SEGMENT
??_R2Login@@8 DD FLAT:??_R1A@?0A@EA@Login@@8		; Login::`RTTI Base Class Array'
	DD	FLAT:??_R1A@?0A@EA@CDialogEx@@8
	DD	FLAT:??_R1A@?0A@EA@CDialog@@8
	DD	FLAT:??_R1A@?0A@EA@CWnd@@8
	DD	FLAT:??_R1A@?0A@EA@CCmdTarget@@8
	DD	FLAT:??_R1A@?0A@EA@CObject@@8
$SG4294953197 DB 00H
$SG4294953194 DB 00H
$SG4294953188 DB 00H
$SG4294953185 DB 00H
	ORG $+2
$SG4294953199 DB 'Login', 00H
	ORG $+2
$SG4294953198 DB '\config.ini', 00H
$SG4294953196 DB 'USERNAME', 00H
	ORG $+3
$SG4294953195 DB 'LOGIN', 00H
	ORG $+2
$SG4294953193 DB 'PASSWORD', 00H
	ORG $+3
$SG4294953192 DB 'LOGIN', 00H
	ORG $+2
$SG4294953191 DB 0ceH, 0c2H, 0dcH, 0b0H, 0ccH, 0e1H, 0caH, 0beH, 00H
	ORG $+3
$SG4294953190 DB 0c3H, 0dcH, 0c2H, 0ebH, 0d0H, 0deH, 0b8H, 0c4H, 0b3H, 0c9H
	DB	0b9H, 0a6H, 00H
	ORG $+3
$SG4294953189 DB '\config.ini', 00H
$SG4294953187 DB 'USERNAME', 00H
	ORG $+3
$SG4294953186 DB 'LOGIN', 00H
	ORG $+2
$SG4294953184 DB 'PASSWORD', 00H
	ORG $+3
$SG4294953183 DB 'LOGIN', 00H
	ORG $+2
$SG4294953182 DB 0b5H, 0c7H, 0c2H, 0bcH, 0ccH, 0e1H, 0caH, 0beH, 00H
	ORG $+3
$SG4294953181 DB 0d3H, 0c3H, 0bbH, 0a7H, 0c3H, 0fbH, 0bbH, 0f2H, 0c3H, 0dcH
	DB	0c2H, 0ebH, 0b4H, 0edH, 0ceH, 0f3H, 00H
	ORG $+3
$SG4294953180 DB '123', 00H
PUBLIC	??0CEdit@@QAE@XZ				; CEdit::CEdit
PUBLIC	??_GCEdit@@UAEPAXI@Z				; CEdit::`scalar deleting destructor'
PUBLIC	??8ATL@@YA_NABV?$CStringT@DV?$StrTraitMFC_DLL@DV?$ChTraitsCRT@D@ATL@@@@@0@PBD@Z ; ATL::operator==
PUBLIC	?OnInitDialog@Login@@UAEHXZ			; Login::OnInitDialog
PUBLIC	?OnBnClickedOk@Login@@QAEXXZ			; Login::OnBnClickedOk
PUBLIC	?__autoclassinit@CSetPSW@@QAEXI@Z		; CSetPSW::__autoclassinit
PUBLIC	?OnBnClickedBtnSetpsw@Login@@QAEXXZ		; Login::OnBnClickedBtnSetpsw
PUBLIC	?GetThisMessageMap@Login@@KGPBUAFX_MSGMAP@@XZ	; Login::GetThisMessageMap
PUBLIC	?GetMessageMap@Login@@MBEPBUAFX_MSGMAP@@XZ	; Login::GetMessageMap
PUBLIC	?DoDataExchange@Login@@MAEXPAVCDataExchange@@@Z	; Login::DoDataExchange
PUBLIC	??_GLogin@@UAEPAXI@Z				; Login::`scalar deleting destructor'
PUBLIC	?GetRuntimeClass@Login@@UBEPAUCRuntimeClass@@XZ	; Login::GetRuntimeClass
PUBLIC	?_GetBaseClass@Login@@KGPAUCRuntimeClass@@XZ	; Login::_GetBaseClass
PUBLIC	??0Login@@QAE@PAVCWnd@@@Z			; Login::Login
PUBLIC	??1Login@@UAE@XZ				; Login::~Login
EXTRN	??_ECEdit@@UAEPAXI@Z:PROC			; CEdit::`vector deleting destructor'
EXTRN	??_ELogin@@UAEPAXI@Z:PROC			; Login::`vector deleting destructor'
;	COMDAT xdata$x
xdata$x	SEGMENT
__ehfuncinfo$??1Login@@UAE@XZ DD 019930522H
	DD	03H
	DD	FLAT:__unwindtable$??1Login@@UAE@XZ
	DD	2 DUP(00H)
	DD	2 DUP(00H)
	DD	00H
	DD	01H
__unwindtable$??1Login@@UAE@XZ DD 0ffffffffH
	DD	FLAT:__unwindfunclet$??1Login@@UAE@XZ$0
	DD	00H
	DD	FLAT:__unwindfunclet$??1Login@@UAE@XZ$1
	DD	01H
	DD	FLAT:__unwindfunclet$??1Login@@UAE@XZ$2
xdata$x	ENDS
;	COMDAT xdata$x
xdata$x	SEGMENT
__ehfuncinfo$??0Login@@QAE@PAVCWnd@@@Z DD 019930522H
	DD	08H
	DD	FLAT:__unwindtable$??0Login@@QAE@PAVCWnd@@@Z
	DD	2 DUP(00H)
	DD	2 DUP(00H)
	DD	00H
	DD	01H
	ORG $+4
__unwindtable$??0Login@@QAE@PAVCWnd@@@Z DD 0ffffffffH
	DD	FLAT:__unwindfunclet$??0Login@@QAE@PAVCWnd@@@Z$0
	DD	00H
	DD	FLAT:__unwindfunclet$??0Login@@QAE@PAVCWnd@@@Z$1
	DD	01H
	DD	FLAT:__unwindfunclet$??0Login@@QAE@PAVCWnd@@@Z$2
	DD	02H
	DD	FLAT:__unwindfunclet$??0Login@@QAE@PAVCWnd@@@Z$3
	DD	03H
	DD	FLAT:__unwindfunclet$??0Login@@QAE@PAVCWnd@@@Z$4
	DD	04H
	DD	FLAT:__unwindfunclet$??0Login@@QAE@PAVCWnd@@@Z$5
	DD	05H
	DD	FLAT:__unwindfunclet$??0Login@@QAE@PAVCWnd@@@Z$6
	DD	06H
	DD	FLAT:__unwindfunclet$??0Login@@QAE@PAVCWnd@@@Z$7
xdata$x	ENDS
;	COMDAT xdata$x
xdata$x	SEGMENT
__ehfuncinfo$?OnBnClickedBtnSetpsw@Login@@QAEXXZ DD 019930522H
	DD	01H
	DD	FLAT:__unwindtable$?OnBnClickedBtnSetpsw@Login@@QAEXXZ
	DD	2 DUP(00H)
	DD	2 DUP(00H)
	DD	00H
	DD	01H
__unwindtable$?OnBnClickedBtnSetpsw@Login@@QAEXXZ DD 0ffffffffH
	DD	FLAT:__unwindfunclet$?OnBnClickedBtnSetpsw@Login@@QAEXXZ$0
xdata$x	ENDS
;	COMDAT xdata$x
xdata$x	SEGMENT
__ehfuncinfo$?OnBnClickedOk@Login@@QAEXXZ DD 019930522H
	DD	05H
	DD	FLAT:__unwindtable$?OnBnClickedOk@Login@@QAEXXZ
	DD	2 DUP(00H)
	DD	2 DUP(00H)
	DD	00H
	DD	01H
__unwindtable$?OnBnClickedOk@Login@@QAEXXZ DD 0ffffffffH
	DD	FLAT:__unwindfunclet$?OnBnClickedOk@Login@@QAEXXZ$0
	DD	00H
	DD	FLAT:__unwindfunclet$?OnBnClickedOk@Login@@QAEXXZ$1
	DD	00H
	DD	FLAT:__unwindfunclet$?OnBnClickedOk@Login@@QAEXXZ$2
	DD	02H
	DD	FLAT:__unwindfunclet$?OnBnClickedOk@Login@@QAEXXZ$3
	DD	03H
	DD	FLAT:__unwindfunclet$?OnBnClickedOk@Login@@QAEXXZ$4
xdata$x	ENDS
;	COMDAT xdata$x
xdata$x	SEGMENT
__ehfuncinfo$?OnInitDialog@Login@@UAEHXZ DD 019930522H
	DD	01H
	DD	FLAT:__unwindtable$?OnInitDialog@Login@@UAEHXZ
	DD	2 DUP(00H)
	DD	2 DUP(00H)
	DD	00H
	DD	01H
__unwindtable$?OnInitDialog@Login@@UAEHXZ DD 0ffffffffH
	DD	FLAT:__unwindfunclet$?OnInitDialog@Login@@UAEHXZ$0
; Function compile flags: /Odtp
; File e:\work_wm\hxijy_code\endoscopemfc2012_menu_changepara_youhua_savepic_usb_1114_twothread_svepic_save5\src\endoscopemfc\login.cpp
;	COMDAT ??1Login@@UAE@XZ
_TEXT	SEGMENT
_this$ = -16						; size = 4
__$EHRec$ = -12						; size = 12
??1Login@@UAE@XZ PROC					; Login::~Login, COMDAT
; _this$ = ecx

; 33   : {

  00000	55		 push	 ebp
  00001	8b ec		 mov	 ebp, esp
  00003	6a ff		 push	 -1
  00005	68 00 00 00 00	 push	 __ehhandler$??1Login@@UAE@XZ
  0000a	64 a1 00 00 00
	00		 mov	 eax, DWORD PTR fs:0
  00010	50		 push	 eax
  00011	51		 push	 ecx
  00012	a1 00 00 00 00	 mov	 eax, DWORD PTR ___security_cookie
  00017	33 c5		 xor	 eax, ebp
  00019	50		 push	 eax
  0001a	8d 45 f4	 lea	 eax, DWORD PTR __$EHRec$[ebp]
  0001d	64 a3 00 00 00
	00		 mov	 DWORD PTR fs:0, eax
  00023	89 4d f0	 mov	 DWORD PTR _this$[ebp], ecx
  00026	8b 45 f0	 mov	 eax, DWORD PTR _this$[ebp]
  00029	c7 00 00 00 00
	00		 mov	 DWORD PTR [eax], OFFSET ??_7Login@@6B@
  0002f	c7 45 fc 02 00
	00 00		 mov	 DWORD PTR __$EHRec$[ebp+8], 2

; 34   : }

  00036	8b 4d f0	 mov	 ecx, DWORD PTR _this$[ebp]
  00039	81 c1 7c 02 00
	00		 add	 ecx, 636		; 0000027cH
  0003f	ff 15 00 00 00
	00		 call	 DWORD PTR __imp_??1?$CStringT@DV?$StrTraitMFC_DLL@DV?$ChTraitsCRT@D@ATL@@@@@ATL@@QAE@XZ
  00045	8b 4d f0	 mov	 ecx, DWORD PTR _this$[ebp]
  00048	81 c1 78 02 00
	00		 add	 ecx, 632		; 00000278H
  0004e	ff 15 00 00 00
	00		 call	 DWORD PTR __imp_??1?$CStringT@DV?$StrTraitMFC_DLL@DV?$ChTraitsCRT@D@ATL@@@@@ATL@@QAE@XZ
  00054	8b 4d f0	 mov	 ecx, DWORD PTR _this$[ebp]
  00057	81 c1 04 02 00
	00		 add	 ecx, 516		; 00000204H
  0005d	ff 15 00 00 00
	00		 call	 DWORD PTR __imp_??1CStatic@@UAE@XZ
  00063	c6 45 fc 01	 mov	 BYTE PTR __$EHRec$[ebp+8], 1
  00067	8b 4d f0	 mov	 ecx, DWORD PTR _this$[ebp]
  0006a	81 c1 90 01 00
	00		 add	 ecx, 400		; 00000190H
  00070	ff 15 00 00 00
	00		 call	 DWORD PTR __imp_??1CEdit@@UAE@XZ
  00076	c6 45 fc 00	 mov	 BYTE PTR __$EHRec$[ebp+8], 0
  0007a	8b 4d f0	 mov	 ecx, DWORD PTR _this$[ebp]
  0007d	81 c1 b8 00 00
	00		 add	 ecx, 184		; 000000b8H
  00083	ff 15 00 00 00
	00		 call	 DWORD PTR __imp_??1CEdit@@UAE@XZ
  00089	c7 45 fc ff ff
	ff ff		 mov	 DWORD PTR __$EHRec$[ebp+8], -1
  00090	8b 4d f0	 mov	 ecx, DWORD PTR _this$[ebp]
  00093	e8 00 00 00 00	 call	 ??1CDialogEx@@UAE@XZ
  00098	8b 4d f4	 mov	 ecx, DWORD PTR __$EHRec$[ebp]
  0009b	64 89 0d 00 00
	00 00		 mov	 DWORD PTR fs:0, ecx
  000a2	59		 pop	 ecx
  000a3	8b e5		 mov	 esp, ebp
  000a5	5d		 pop	 ebp
  000a6	c3		 ret	 0
_TEXT	ENDS
;	COMDAT text$x
text$x	SEGMENT
__unwindfunclet$??1Login@@UAE@XZ$0:
  00000	8b 4d f0	 mov	 ecx, DWORD PTR _this$[ebp]
  00003	e9 00 00 00 00	 jmp	 ??1CDialogEx@@UAE@XZ
__unwindfunclet$??1Login@@UAE@XZ$1:
  00008	8b 4d f0	 mov	 ecx, DWORD PTR _this$[ebp]
  0000b	81 c1 b8 00 00
	00		 add	 ecx, 184		; 000000b8H
  00011	ff 25 00 00 00
	00		 jmp	 DWORD PTR __imp_??1CEdit@@UAE@XZ
__unwindfunclet$??1Login@@UAE@XZ$2:
  00017	8b 4d f0	 mov	 ecx, DWORD PTR _this$[ebp]
  0001a	81 c1 90 01 00
	00		 add	 ecx, 400		; 00000190H
  00020	ff 25 00 00 00
	00		 jmp	 DWORD PTR __imp_??1CEdit@@UAE@XZ
__ehhandler$??1Login@@UAE@XZ:
  00026	8b 54 24 08	 mov	 edx, DWORD PTR [esp+8]
  0002a	8d 42 0c	 lea	 eax, DWORD PTR [edx+12]
  0002d	8b 4a f8	 mov	 ecx, DWORD PTR [edx-8]
  00030	33 c8		 xor	 ecx, eax
  00032	e8 00 00 00 00	 call	 @__security_check_cookie@4
  00037	b8 00 00 00 00	 mov	 eax, OFFSET __ehfuncinfo$??1Login@@UAE@XZ
  0003c	e9 00 00 00 00	 jmp	 ___CxxFrameHandler3
text$x	ENDS
??1Login@@UAE@XZ ENDP					; Login::~Login
; Function compile flags: /Odtp
; File e:\work_wm\hxijy_code\endoscopemfc2012_menu_changepara_youhua_savepic_usb_1114_twothread_svepic_save5\src\endoscopemfc\login.cpp
;	COMDAT ??0Login@@QAE@PAVCWnd@@@Z
_TEXT	SEGMENT
$T2 = -44						; size = 4
tv140 = -40						; size = 4
tv213 = -36						; size = 4
_nPos$ = -32						; size = 4
_this$ = -28						; size = 4
_ConfigPath$ = -24					; size = 4
_sPath$ = -20						; size = 4
__$ArrayPad$ = -16					; size = 4
__$EHRec$ = -12						; size = 12
_pParent$ = 8						; size = 4
??0Login@@QAE@PAVCWnd@@@Z PROC				; Login::Login, COMDAT
; _this$ = ecx

; 17   : {

  00000	55		 push	 ebp
  00001	8b ec		 mov	 ebp, esp
  00003	6a ff		 push	 -1
  00005	68 00 00 00 00	 push	 __ehhandler$??0Login@@QAE@PAVCWnd@@@Z
  0000a	64 a1 00 00 00
	00		 mov	 eax, DWORD PTR fs:0
  00010	50		 push	 eax
  00011	83 ec 20	 sub	 esp, 32			; 00000020H
  00014	a1 00 00 00 00	 mov	 eax, DWORD PTR ___security_cookie
  00019	33 c5		 xor	 eax, ebp
  0001b	89 45 f0	 mov	 DWORD PTR __$ArrayPad$[ebp], eax
  0001e	50		 push	 eax
  0001f	8d 45 f4	 lea	 eax, DWORD PTR __$EHRec$[ebp]
  00022	64 a3 00 00 00
	00		 mov	 DWORD PTR fs:0, eax
  00028	89 4d e4	 mov	 DWORD PTR _this$[ebp], ecx
  0002b	8b 45 08	 mov	 eax, DWORD PTR _pParent$[ebp]
  0002e	50		 push	 eax
  0002f	68 83 00 00 00	 push	 131			; 00000083H
  00034	8b 4d e4	 mov	 ecx, DWORD PTR _this$[ebp]
  00037	ff 15 00 00 00
	00		 call	 DWORD PTR __imp_??0CDialogEx@@QAE@IPAVCWnd@@@Z
  0003d	c7 45 fc 00 00
	00 00		 mov	 DWORD PTR __$EHRec$[ebp+8], 0
  00044	8b 4d e4	 mov	 ecx, DWORD PTR _this$[ebp]
  00047	c7 01 00 00 00
	00		 mov	 DWORD PTR [ecx], OFFSET ??_7Login@@6B@
  0004d	8b 4d e4	 mov	 ecx, DWORD PTR _this$[ebp]
  00050	81 c1 b8 00 00
	00		 add	 ecx, 184		; 000000b8H
  00056	e8 00 00 00 00	 call	 ??0CEdit@@QAE@XZ	; CEdit::CEdit
  0005b	c6 45 fc 01	 mov	 BYTE PTR __$EHRec$[ebp+8], 1
  0005f	8b 4d e4	 mov	 ecx, DWORD PTR _this$[ebp]
  00062	81 c1 90 01 00
	00		 add	 ecx, 400		; 00000190H
  00068	e8 00 00 00 00	 call	 ??0CEdit@@QAE@XZ	; CEdit::CEdit
  0006d	c6 45 fc 02	 mov	 BYTE PTR __$EHRec$[ebp+8], 2
  00071	8b 4d e4	 mov	 ecx, DWORD PTR _this$[ebp]
  00074	81 c1 04 02 00
	00		 add	 ecx, 516		; 00000204H
  0007a	e8 00 00 00 00	 call	 ??0CStatic@@QAE@XZ	; CStatic::CStatic
  0007f	c6 45 fc 03	 mov	 BYTE PTR __$EHRec$[ebp+8], 3
  00083	8b 4d e4	 mov	 ecx, DWORD PTR _this$[ebp]
  00086	81 c1 78 02 00
	00		 add	 ecx, 632		; 00000278H
  0008c	ff 15 00 00 00
	00		 call	 DWORD PTR __imp_??0?$CStringT@DV?$StrTraitMFC_DLL@DV?$ChTraitsCRT@D@ATL@@@@@ATL@@QAE@XZ
  00092	c6 45 fc 04	 mov	 BYTE PTR __$EHRec$[ebp+8], 4
  00096	8b 4d e4	 mov	 ecx, DWORD PTR _this$[ebp]
  00099	81 c1 7c 02 00
	00		 add	 ecx, 636		; 0000027cH
  0009f	ff 15 00 00 00
	00		 call	 DWORD PTR __imp_??0?$CStringT@DV?$StrTraitMFC_DLL@DV?$ChTraitsCRT@D@ATL@@@@@ATL@@QAE@XZ
  000a5	c6 45 fc 05	 mov	 BYTE PTR __$EHRec$[ebp+8], 5

; 18   : 	CString sPath;

  000a9	8d 4d ec	 lea	 ecx, DWORD PTR _sPath$[ebp]
  000ac	ff 15 00 00 00
	00		 call	 DWORD PTR __imp_??0?$CStringT@DV?$StrTraitMFC_DLL@DV?$ChTraitsCRT@D@ATL@@@@@ATL@@QAE@XZ
  000b2	c6 45 fc 06	 mov	 BYTE PTR __$EHRec$[ebp+8], 6

; 19   : 	GetModuleFileName(NULL, sPath.GetBufferSetLength(MAX_PATH + 1), MAX_PATH);

  000b6	68 04 01 00 00	 push	 260			; 00000104H
  000bb	68 05 01 00 00	 push	 261			; 00000105H
  000c0	8d 4d ec	 lea	 ecx, DWORD PTR _sPath$[ebp]
  000c3	ff 15 00 00 00
	00		 call	 DWORD PTR __imp_?GetBufferSetLength@?$CSimpleStringT@D$00@ATL@@QAEPADH@Z
  000c9	50		 push	 eax
  000ca	6a 00		 push	 0
  000cc	ff 15 00 00 00
	00		 call	 DWORD PTR __imp__GetModuleFileNameA@12

; 20   : 	sPath.ReleaseBuffer();

  000d2	6a ff		 push	 -1
  000d4	8d 4d ec	 lea	 ecx, DWORD PTR _sPath$[ebp]
  000d7	ff 15 00 00 00
	00		 call	 DWORD PTR __imp_?ReleaseBuffer@?$CSimpleStringT@D$00@ATL@@QAEXH@Z

; 21   : 
; 22   : 	int nPos;
; 23   : 	nPos = sPath.ReverseFind('\\');

  000dd	6a 5c		 push	 92			; 0000005cH
  000df	8d 4d ec	 lea	 ecx, DWORD PTR _sPath$[ebp]
  000e2	ff 15 00 00 00
	00		 call	 DWORD PTR __imp_?ReverseFind@?$CStringT@DV?$StrTraitMFC_DLL@DV?$ChTraitsCRT@D@ATL@@@@@ATL@@QBEHD@Z
  000e8	89 45 e0	 mov	 DWORD PTR _nPos$[ebp], eax

; 24   : 	sPath = sPath.Left(nPos);

  000eb	8b 55 e0	 mov	 edx, DWORD PTR _nPos$[ebp]
  000ee	52		 push	 edx
  000ef	8d 45 d4	 lea	 eax, DWORD PTR $T2[ebp]
  000f2	50		 push	 eax
  000f3	8d 4d ec	 lea	 ecx, DWORD PTR _sPath$[ebp]
  000f6	ff 15 00 00 00
	00		 call	 DWORD PTR __imp_?Left@?$CStringT@DV?$StrTraitMFC_DLL@DV?$ChTraitsCRT@D@ATL@@@@@ATL@@QBE?AV12@H@Z
  000fc	89 45 d8	 mov	 DWORD PTR tv140[ebp], eax
  000ff	8b 4d d8	 mov	 ecx, DWORD PTR tv140[ebp]
  00102	89 4d dc	 mov	 DWORD PTR tv213[ebp], ecx
  00105	c6 45 fc 07	 mov	 BYTE PTR __$EHRec$[ebp+8], 7
  00109	8b 55 dc	 mov	 edx, DWORD PTR tv213[ebp]
  0010c	52		 push	 edx
  0010d	8d 4d ec	 lea	 ecx, DWORD PTR _sPath$[ebp]
  00110	ff 15 00 00 00
	00		 call	 DWORD PTR __imp_??4?$CStringT@DV?$StrTraitMFC_DLL@DV?$ChTraitsCRT@D@ATL@@@@@ATL@@QAEAAV01@ABV01@@Z
  00116	c6 45 fc 06	 mov	 BYTE PTR __$EHRec$[ebp+8], 6
  0011a	8d 4d d4	 lea	 ecx, DWORD PTR $T2[ebp]
  0011d	ff 15 00 00 00
	00		 call	 DWORD PTR __imp_??1?$CStringT@DV?$StrTraitMFC_DLL@DV?$ChTraitsCRT@D@ATL@@@@@ATL@@QAE@XZ

; 25   : 
; 26   : 	CString ConfigPath = sPath + _T("\\config.ini");

  00123	68 00 00 00 00	 push	 OFFSET $SG4294953198
  00128	8d 45 ec	 lea	 eax, DWORD PTR _sPath$[ebp]
  0012b	50		 push	 eax
  0012c	8d 4d e8	 lea	 ecx, DWORD PTR _ConfigPath$[ebp]
  0012f	51		 push	 ecx
  00130	e8 00 00 00 00	 call	 ??HATL@@YA?AV?$CStringT@DV?$StrTraitMFC_DLL@DV?$ChTraitsCRT@D@ATL@@@@@0@ABV10@PBD@Z ; ATL::operator+
  00135	83 c4 0c	 add	 esp, 12			; 0000000cH

; 27   : 
; 28   : 	GetPrivateProfileString(_T("LOGIN"),_T("USERNAME"),"",m_susername,sizeof(m_susername),ConfigPath);

  00138	8d 4d e8	 lea	 ecx, DWORD PTR _ConfigPath$[ebp]
  0013b	ff 15 00 00 00
	00		 call	 DWORD PTR __imp_??B?$CSimpleStringT@D$00@ATL@@QBEPBDXZ
  00141	50		 push	 eax
  00142	6a 32		 push	 50			; 00000032H
  00144	8b 55 e4	 mov	 edx, DWORD PTR _this$[ebp]
  00147	81 c2 2c 01 00
	00		 add	 edx, 300		; 0000012cH
  0014d	52		 push	 edx
  0014e	68 00 00 00 00	 push	 OFFSET $SG4294953197
  00153	68 00 00 00 00	 push	 OFFSET $SG4294953196
  00158	68 00 00 00 00	 push	 OFFSET $SG4294953195
  0015d	ff 15 00 00 00
	00		 call	 DWORD PTR __imp__GetPrivateProfileStringA@24

; 29   : 	GetPrivateProfileString(_T("LOGIN"),_T("PASSWORD"),"",m_spassword,sizeof(m_spassword),ConfigPath);

  00163	8d 4d e8	 lea	 ecx, DWORD PTR _ConfigPath$[ebp]
  00166	ff 15 00 00 00
	00		 call	 DWORD PTR __imp_??B?$CSimpleStringT@D$00@ATL@@QBEPBDXZ
  0016c	50		 push	 eax
  0016d	6a 32		 push	 50			; 00000032H
  0016f	8b 45 e4	 mov	 eax, DWORD PTR _this$[ebp]
  00172	05 5e 01 00 00	 add	 eax, 350		; 0000015eH
  00177	50		 push	 eax
  00178	68 00 00 00 00	 push	 OFFSET $SG4294953194
  0017d	68 00 00 00 00	 push	 OFFSET $SG4294953193
  00182	68 00 00 00 00	 push	 OFFSET $SG4294953192
  00187	ff 15 00 00 00
	00		 call	 DWORD PTR __imp__GetPrivateProfileStringA@24

; 30   : }

  0018d	8d 4d e8	 lea	 ecx, DWORD PTR _ConfigPath$[ebp]
  00190	ff 15 00 00 00
	00		 call	 DWORD PTR __imp_??1?$CStringT@DV?$StrTraitMFC_DLL@DV?$ChTraitsCRT@D@ATL@@@@@ATL@@QAE@XZ
  00196	c6 45 fc 05	 mov	 BYTE PTR __$EHRec$[ebp+8], 5
  0019a	8d 4d ec	 lea	 ecx, DWORD PTR _sPath$[ebp]
  0019d	ff 15 00 00 00
	00		 call	 DWORD PTR __imp_??1?$CStringT@DV?$StrTraitMFC_DLL@DV?$ChTraitsCRT@D@ATL@@@@@ATL@@QAE@XZ
  001a3	c7 45 fc ff ff
	ff ff		 mov	 DWORD PTR __$EHRec$[ebp+8], -1
  001aa	8b 45 e4	 mov	 eax, DWORD PTR _this$[ebp]
  001ad	8b 4d f4	 mov	 ecx, DWORD PTR __$EHRec$[ebp]
  001b0	64 89 0d 00 00
	00 00		 mov	 DWORD PTR fs:0, ecx
  001b7	59		 pop	 ecx
  001b8	8b 4d f0	 mov	 ecx, DWORD PTR __$ArrayPad$[ebp]
  001bb	33 cd		 xor	 ecx, ebp
  001bd	e8 00 00 00 00	 call	 @__security_check_cookie@4
  001c2	8b e5		 mov	 esp, ebp
  001c4	5d		 pop	 ebp
  001c5	c2 04 00	 ret	 4
_TEXT	ENDS
;	COMDAT text$x
text$x	SEGMENT
__unwindfunclet$??0Login@@QAE@PAVCWnd@@@Z$0:
  00000	8b 4d e4	 mov	 ecx, DWORD PTR _this$[ebp]
  00003	e9 00 00 00 00	 jmp	 ??1CDialogEx@@UAE@XZ
__unwindfunclet$??0Login@@QAE@PAVCWnd@@@Z$1:
  00008	8b 4d e4	 mov	 ecx, DWORD PTR _this$[ebp]
  0000b	81 c1 b8 00 00
	00		 add	 ecx, 184		; 000000b8H
  00011	ff 25 00 00 00
	00		 jmp	 DWORD PTR __imp_??1CEdit@@UAE@XZ
__unwindfunclet$??0Login@@QAE@PAVCWnd@@@Z$2:
  00017	8b 4d e4	 mov	 ecx, DWORD PTR _this$[ebp]
  0001a	81 c1 90 01 00
	00		 add	 ecx, 400		; 00000190H
  00020	ff 25 00 00 00
	00		 jmp	 DWORD PTR __imp_??1CEdit@@UAE@XZ
__unwindfunclet$??0Login@@QAE@PAVCWnd@@@Z$3:
  00026	8b 4d e4	 mov	 ecx, DWORD PTR _this$[ebp]
  00029	81 c1 04 02 00
	00		 add	 ecx, 516		; 00000204H
  0002f	ff 25 00 00 00
	00		 jmp	 DWORD PTR __imp_??1CStatic@@UAE@XZ
__unwindfunclet$??0Login@@QAE@PAVCWnd@@@Z$4:
  00035	8b 4d e4	 mov	 ecx, DWORD PTR _this$[ebp]
  00038	81 c1 78 02 00
	00		 add	 ecx, 632		; 00000278H
  0003e	ff 25 00 00 00
	00		 jmp	 DWORD PTR __imp_??1?$CStringT@DV?$StrTraitMFC_DLL@DV?$ChTraitsCRT@D@ATL@@@@@ATL@@QAE@XZ
__unwindfunclet$??0Login@@QAE@PAVCWnd@@@Z$5:
  00044	8b 4d e4	 mov	 ecx, DWORD PTR _this$[ebp]
  00047	81 c1 7c 02 00
	00		 add	 ecx, 636		; 0000027cH
  0004d	ff 25 00 00 00
	00		 jmp	 DWORD PTR __imp_??1?$CStringT@DV?$StrTraitMFC_DLL@DV?$ChTraitsCRT@D@ATL@@@@@ATL@@QAE@XZ
__unwindfunclet$??0Login@@QAE@PAVCWnd@@@Z$6:
  00053	8d 4d ec	 lea	 ecx, DWORD PTR _sPath$[ebp]
  00056	ff 25 00 00 00
	00		 jmp	 DWORD PTR __imp_??1?$CStringT@DV?$StrTraitMFC_DLL@DV?$ChTraitsCRT@D@ATL@@@@@ATL@@QAE@XZ
__unwindfunclet$??0Login@@QAE@PAVCWnd@@@Z$7:
  0005c	8d 4d d4	 lea	 ecx, DWORD PTR $T2[ebp]
  0005f	ff 25 00 00 00
	00		 jmp	 DWORD PTR __imp_??1?$CStringT@DV?$StrTraitMFC_DLL@DV?$ChTraitsCRT@D@ATL@@@@@ATL@@QAE@XZ
__ehhandler$??0Login@@QAE@PAVCWnd@@@Z:
  00065	8b 54 24 08	 mov	 edx, DWORD PTR [esp+8]
  00069	8d 42 0c	 lea	 eax, DWORD PTR [edx+12]
  0006c	8b 4a dc	 mov	 ecx, DWORD PTR [edx-36]
  0006f	33 c8		 xor	 ecx, eax
  00071	e8 00 00 00 00	 call	 @__security_check_cookie@4
  00076	8b 4a fc	 mov	 ecx, DWORD PTR [edx-4]
  00079	33 c8		 xor	 ecx, eax
  0007b	e8 00 00 00 00	 call	 @__security_check_cookie@4
  00080	b8 00 00 00 00	 mov	 eax, OFFSET __ehfuncinfo$??0Login@@QAE@PAVCWnd@@@Z
  00085	e9 00 00 00 00	 jmp	 ___CxxFrameHandler3
text$x	ENDS
??0Login@@QAE@PAVCWnd@@@Z ENDP				; Login::Login
; Function compile flags: /Odtp
; File e:\work_wm\hxijy_code\endoscopemfc2012_menu_changepara_youhua_savepic_usb_1114_twothread_svepic_save5\src\endoscopemfc\login.cpp
;	COMDAT ?_GetBaseClass@Login@@KGPAUCRuntimeClass@@XZ
_TEXT	SEGMENT
?_GetBaseClass@Login@@KGPAUCRuntimeClass@@XZ PROC	; Login::_GetBaseClass, COMDAT

; 13   : IMPLEMENT_DYNAMIC(Login, CDialogEx)

  00000	55		 push	 ebp
  00001	8b ec		 mov	 ebp, esp
  00003	ff 15 00 00 00
	00		 call	 DWORD PTR __imp_?GetThisClass@CDialogEx@@SGPAUCRuntimeClass@@XZ
  00009	5d		 pop	 ebp
  0000a	c3		 ret	 0
?_GetBaseClass@Login@@KGPAUCRuntimeClass@@XZ ENDP	; Login::_GetBaseClass
_TEXT	ENDS
; Function compile flags: /Odtp
; File e:\work_wm\hxijy_code\endoscopemfc2012_menu_changepara_youhua_savepic_usb_1114_twothread_svepic_save5\src\endoscopemfc\login.cpp
;	COMDAT ?GetRuntimeClass@Login@@UBEPAUCRuntimeClass@@XZ
_TEXT	SEGMENT
_this$ = -4						; size = 4
?GetRuntimeClass@Login@@UBEPAUCRuntimeClass@@XZ PROC	; Login::GetRuntimeClass, COMDAT
; _this$ = ecx

; 13   : IMPLEMENT_DYNAMIC(Login, CDialogEx)

  00000	55		 push	 ebp
  00001	8b ec		 mov	 ebp, esp
  00003	51		 push	 ecx
  00004	89 4d fc	 mov	 DWORD PTR _this$[ebp], ecx
  00007	b8 00 00 00 00	 mov	 eax, OFFSET ?classLogin@Login@@2UCRuntimeClass@@B ; Login::classLogin
  0000c	8b e5		 mov	 esp, ebp
  0000e	5d		 pop	 ebp
  0000f	c3		 ret	 0
?GetRuntimeClass@Login@@UBEPAUCRuntimeClass@@XZ ENDP	; Login::GetRuntimeClass
_TEXT	ENDS
; Function compile flags: /Odtp
;	COMDAT ??_GLogin@@UAEPAXI@Z
_TEXT	SEGMENT
_this$ = -4						; size = 4
___flags$ = 8						; size = 4
??_GLogin@@UAEPAXI@Z PROC				; Login::`scalar deleting destructor', COMDAT
; _this$ = ecx
  00000	55		 push	 ebp
  00001	8b ec		 mov	 ebp, esp
  00003	51		 push	 ecx
  00004	89 4d fc	 mov	 DWORD PTR _this$[ebp], ecx
  00007	8b 4d fc	 mov	 ecx, DWORD PTR _this$[ebp]
  0000a	e8 00 00 00 00	 call	 ??1Login@@UAE@XZ	; Login::~Login
  0000f	8b 45 08	 mov	 eax, DWORD PTR ___flags$[ebp]
  00012	83 e0 01	 and	 eax, 1
  00015	74 09		 je	 SHORT $LN1@scalar
  00017	8b 4d fc	 mov	 ecx, DWORD PTR _this$[ebp]
  0001a	51		 push	 ecx
  0001b	e8 00 00 00 00	 call	 ??3CObject@@SGXPAX@Z	; CObject::operator delete
$LN1@scalar:
  00020	8b 45 fc	 mov	 eax, DWORD PTR _this$[ebp]
  00023	8b e5		 mov	 esp, ebp
  00025	5d		 pop	 ebp
  00026	c2 04 00	 ret	 4
??_GLogin@@UAEPAXI@Z ENDP				; Login::`scalar deleting destructor'
_TEXT	ENDS
; Function compile flags: /Odtp
; File e:\work_wm\hxijy_code\endoscopemfc2012_menu_changepara_youhua_savepic_usb_1114_twothread_svepic_save5\src\endoscopemfc\login.cpp
;	COMDAT ?DoDataExchange@Login@@MAEXPAVCDataExchange@@@Z
_TEXT	SEGMENT
_this$ = -4						; size = 4
_pDX$ = 8						; size = 4
?DoDataExchange@Login@@MAEXPAVCDataExchange@@@Z PROC	; Login::DoDataExchange, COMDAT
; _this$ = ecx

; 37   : {

  00000	55		 push	 ebp
  00001	8b ec		 mov	 ebp, esp
  00003	51		 push	 ecx
  00004	89 4d fc	 mov	 DWORD PTR _this$[ebp], ecx

; 38   : 	CDialogEx::DoDataExchange(pDX);

  00007	8b 45 08	 mov	 eax, DWORD PTR _pDX$[ebp]
  0000a	50		 push	 eax
  0000b	8b 4d fc	 mov	 ecx, DWORD PTR _this$[ebp]
  0000e	e8 00 00 00 00	 call	 ?DoDataExchange@CWnd@@MAEXPAVCDataExchange@@@Z ; CWnd::DoDataExchange

; 39   : 	DDX_Control(pDX, IDC_LOGIN_USERNAME, m_username);

  00013	8b 4d fc	 mov	 ecx, DWORD PTR _this$[ebp]
  00016	81 c1 b8 00 00
	00		 add	 ecx, 184		; 000000b8H
  0001c	51		 push	 ecx
  0001d	68 10 04 00 00	 push	 1040			; 00000410H
  00022	8b 55 08	 mov	 edx, DWORD PTR _pDX$[ebp]
  00025	52		 push	 edx
  00026	ff 15 00 00 00
	00		 call	 DWORD PTR __imp_?DDX_Control@@YGXPAVCDataExchange@@HAAVCWnd@@@Z

; 40   : 	DDX_Control(pDX, IDC_LOGIN_PASSWORD, m_password);

  0002c	8b 45 fc	 mov	 eax, DWORD PTR _this$[ebp]
  0002f	05 90 01 00 00	 add	 eax, 400		; 00000190H
  00034	50		 push	 eax
  00035	68 11 04 00 00	 push	 1041			; 00000411H
  0003a	8b 4d 08	 mov	 ecx, DWORD PTR _pDX$[ebp]
  0003d	51		 push	 ecx
  0003e	ff 15 00 00 00
	00		 call	 DWORD PTR __imp_?DDX_Control@@YGXPAVCDataExchange@@HAAVCWnd@@@Z

; 41   : }

  00044	8b e5		 mov	 esp, ebp
  00046	5d		 pop	 ebp
  00047	c2 04 00	 ret	 4
?DoDataExchange@Login@@MAEXPAVCDataExchange@@@Z ENDP	; Login::DoDataExchange
_TEXT	ENDS
; Function compile flags: /Odtp
; File e:\work_wm\hxijy_code\endoscopemfc2012_menu_changepara_youhua_savepic_usb_1114_twothread_svepic_save5\src\endoscopemfc\login.cpp
;	COMDAT ?GetMessageMap@Login@@MBEPBUAFX_MSGMAP@@XZ
_TEXT	SEGMENT
_this$ = -4						; size = 4
?GetMessageMap@Login@@MBEPBUAFX_MSGMAP@@XZ PROC		; Login::GetMessageMap, COMDAT
; _this$ = ecx

; 44   : BEGIN_MESSAGE_MAP(Login, CDialogEx)

  00000	55		 push	 ebp
  00001	8b ec		 mov	 ebp, esp
  00003	51		 push	 ecx
  00004	89 4d fc	 mov	 DWORD PTR _this$[ebp], ecx
  00007	e8 00 00 00 00	 call	 ?GetThisMessageMap@Login@@KGPBUAFX_MSGMAP@@XZ ; Login::GetThisMessageMap
  0000c	8b e5		 mov	 esp, ebp
  0000e	5d		 pop	 ebp
  0000f	c3		 ret	 0
?GetMessageMap@Login@@MBEPBUAFX_MSGMAP@@XZ ENDP		; Login::GetMessageMap
_TEXT	ENDS
; Function compile flags: /Odtp
; File e:\work_wm\hxijy_code\endoscopemfc2012_menu_changepara_youhua_savepic_usb_1114_twothread_svepic_save5\src\endoscopemfc\login.cpp
;	COMDAT ?GetThisMessageMap@Login@@KGPBUAFX_MSGMAP@@XZ
_TEXT	SEGMENT
?GetThisMessageMap@Login@@KGPBUAFX_MSGMAP@@XZ PROC	; Login::GetThisMessageMap, COMDAT

; 44   : BEGIN_MESSAGE_MAP(Login, CDialogEx)

  00000	55		 push	 ebp
  00001	8b ec		 mov	 ebp, esp

; 45   : 	ON_BN_CLICKED(IDC_BTN_SetPSW, &Login::OnBnClickedBtnSetpsw)
; 46   : 	ON_BN_CLICKED(IDOK, &Login::OnBnClickedOk)
; 47   : END_MESSAGE_MAP()

  00003	b8 00 00 00 00	 mov	 eax, OFFSET ?messageMap@?1??GetThisMessageMap@Login@@KGPBUAFX_MSGMAP@@XZ@4U3@B
  00008	5d		 pop	 ebp
  00009	c3		 ret	 0
?GetThisMessageMap@Login@@KGPBUAFX_MSGMAP@@XZ ENDP	; Login::GetThisMessageMap
_TEXT	ENDS
; Function compile flags: /Odtp
; File e:\work_wm\hxijy_code\endoscopemfc2012_menu_changepara_youhua_savepic_usb_1114_twothread_svepic_save5\src\endoscopemfc\login.cpp
;	COMDAT ?OnBnClickedBtnSetpsw@Login@@QAEXXZ
_TEXT	SEGMENT
_this$ = -204						; size = 4
_m_DlgSetPSW$ = -200					; size = 184
__$ArrayPad$ = -16					; size = 4
__$EHRec$ = -12						; size = 12
?OnBnClickedBtnSetpsw@Login@@QAEXXZ PROC		; Login::OnBnClickedBtnSetpsw, COMDAT
; _this$ = ecx

; 54   : {

  00000	55		 push	 ebp
  00001	8b ec		 mov	 ebp, esp
  00003	6a ff		 push	 -1
  00005	68 00 00 00 00	 push	 __ehhandler$?OnBnClickedBtnSetpsw@Login@@QAEXXZ
  0000a	64 a1 00 00 00
	00		 mov	 eax, DWORD PTR fs:0
  00010	50		 push	 eax
  00011	81 ec c0 00 00
	00		 sub	 esp, 192		; 000000c0H
  00017	a1 00 00 00 00	 mov	 eax, DWORD PTR ___security_cookie
  0001c	33 c5		 xor	 eax, ebp
  0001e	89 45 f0	 mov	 DWORD PTR __$ArrayPad$[ebp], eax
  00021	50		 push	 eax
  00022	8d 45 f4	 lea	 eax, DWORD PTR __$EHRec$[ebp]
  00025	64 a3 00 00 00
	00		 mov	 DWORD PTR fs:0, eax
  0002b	89 8d 34 ff ff
	ff		 mov	 DWORD PTR _this$[ebp], ecx

; 55   : 	// TODO: 在此添加控件通知处理程序代码
; 56   : 	CSetPSW m_DlgSetPSW;

  00031	6a 01		 push	 1
  00033	8d 8d 38 ff ff
	ff		 lea	 ecx, DWORD PTR _m_DlgSetPSW$[ebp]
  00039	e8 00 00 00 00	 call	 ?__autoclassinit@CSetPSW@@QAEXI@Z
  0003e	6a 00		 push	 0
  00040	8d 8d 38 ff ff
	ff		 lea	 ecx, DWORD PTR _m_DlgSetPSW$[ebp]
  00046	e8 00 00 00 00	 call	 ??0CSetPSW@@QAE@PAVCWnd@@@Z ; CSetPSW::CSetPSW
  0004b	c7 45 fc 00 00
	00 00		 mov	 DWORD PTR __$EHRec$[ebp+8], 0

; 57   : 	if (m_DlgSetPSW.DoModal() == IDOK)

  00052	8d 8d 38 ff ff
	ff		 lea	 ecx, DWORD PTR _m_DlgSetPSW$[ebp]
  00058	ff 15 00 00 00
	00		 call	 DWORD PTR __imp_?DoModal@CDialog@@UAEHXZ
  0005e	83 f8 01	 cmp	 eax, 1
  00061	75 17		 jne	 SHORT $LN1@OnBnClicke

; 58   : 	{
; 59   : 		::MessageBox(NULL, "密码修改成功", TEXT("温馨提示"), MB_OK | MB_TASKMODAL | MB_SETFOREGROUND);

  00063	68 00 20 01 00	 push	 73728			; 00012000H
  00068	68 00 00 00 00	 push	 OFFSET $SG4294953191
  0006d	68 00 00 00 00	 push	 OFFSET $SG4294953190
  00072	6a 00		 push	 0
  00074	ff 15 00 00 00
	00		 call	 DWORD PTR __imp__MessageBoxA@16
$LN1@OnBnClicke:

; 60   : 	}
; 61   : }

  0007a	c7 45 fc ff ff
	ff ff		 mov	 DWORD PTR __$EHRec$[ebp+8], -1
  00081	8d 8d 38 ff ff
	ff		 lea	 ecx, DWORD PTR _m_DlgSetPSW$[ebp]
  00087	e8 00 00 00 00	 call	 ??1CSetPSW@@UAE@XZ	; CSetPSW::~CSetPSW
  0008c	8b 4d f4	 mov	 ecx, DWORD PTR __$EHRec$[ebp]
  0008f	64 89 0d 00 00
	00 00		 mov	 DWORD PTR fs:0, ecx
  00096	59		 pop	 ecx
  00097	8b 4d f0	 mov	 ecx, DWORD PTR __$ArrayPad$[ebp]
  0009a	33 cd		 xor	 ecx, ebp
  0009c	e8 00 00 00 00	 call	 @__security_check_cookie@4
  000a1	8b e5		 mov	 esp, ebp
  000a3	5d		 pop	 ebp
  000a4	c3		 ret	 0
_TEXT	ENDS
;	COMDAT text$x
text$x	SEGMENT
__unwindfunclet$?OnBnClickedBtnSetpsw@Login@@QAEXXZ$0:
  00000	8d 8d 38 ff ff
	ff		 lea	 ecx, DWORD PTR _m_DlgSetPSW$[ebp]
  00006	e9 00 00 00 00	 jmp	 ??1CSetPSW@@UAE@XZ	; CSetPSW::~CSetPSW
__ehhandler$?OnBnClickedBtnSetpsw@Login@@QAEXXZ:
  0000b	8b 54 24 08	 mov	 edx, DWORD PTR [esp+8]
  0000f	8d 42 0c	 lea	 eax, DWORD PTR [edx+12]
  00012	8b 8a 3c ff ff
	ff		 mov	 ecx, DWORD PTR [edx-196]
  00018	33 c8		 xor	 ecx, eax
  0001a	e8 00 00 00 00	 call	 @__security_check_cookie@4
  0001f	8b 4a fc	 mov	 ecx, DWORD PTR [edx-4]
  00022	33 c8		 xor	 ecx, eax
  00024	e8 00 00 00 00	 call	 @__security_check_cookie@4
  00029	b8 00 00 00 00	 mov	 eax, OFFSET __ehfuncinfo$?OnBnClickedBtnSetpsw@Login@@QAEXXZ
  0002e	e9 00 00 00 00	 jmp	 ___CxxFrameHandler3
text$x	ENDS
?OnBnClickedBtnSetpsw@Login@@QAEXXZ ENDP		; Login::OnBnClickedBtnSetpsw
; Function compile flags: /Odtp
;	COMDAT ?__autoclassinit@CSetPSW@@QAEXI@Z
_TEXT	SEGMENT
_this$ = -4						; size = 4
_$initVBases$ = 8					; size = 4
?__autoclassinit@CSetPSW@@QAEXI@Z PROC			; CSetPSW::__autoclassinit, COMDAT
; _this$ = ecx
  00000	55		 push	 ebp
  00001	8b ec		 mov	 ebp, esp
  00003	51		 push	 ecx
  00004	89 4d fc	 mov	 DWORD PTR _this$[ebp], ecx
  00007	6a 00		 push	 0
  00009	8b 4d fc	 mov	 ecx, DWORD PTR _this$[ebp]
  0000c	e8 00 00 00 00	 call	 ?__autoclassinit@CDialogEx@@QAEXI@Z
  00011	8b e5		 mov	 esp, ebp
  00013	5d		 pop	 ebp
  00014	c2 04 00	 ret	 4
?__autoclassinit@CSetPSW@@QAEXI@Z ENDP			; CSetPSW::__autoclassinit
_TEXT	ENDS
; Function compile flags: /Odtp
; File e:\work_wm\hxijy_code\endoscopemfc2012_menu_changepara_youhua_savepic_usb_1114_twothread_svepic_save5\src\endoscopemfc\login.cpp
;	COMDAT ?OnBnClickedOk@Login@@QAEXXZ
_TEXT	SEGMENT
$T2 = -52						; size = 4
_nPos$ = -48						; size = 4
tv217 = -44						; size = 4
tv65 = -40						; size = 4
_this$ = -36						; size = 4
_ConfigPath$ = -32					; size = 4
_pss$ = -28						; size = 4
_usr$ = -24						; size = 4
_sPath$ = -20						; size = 4
__$ArrayPad$ = -16					; size = 4
__$EHRec$ = -12						; size = 12
?OnBnClickedOk@Login@@QAEXXZ PROC			; Login::OnBnClickedOk, COMDAT
; _this$ = ecx

; 65   : {

  00000	55		 push	 ebp
  00001	8b ec		 mov	 ebp, esp
  00003	6a ff		 push	 -1
  00005	68 00 00 00 00	 push	 __ehhandler$?OnBnClickedOk@Login@@QAEXXZ
  0000a	64 a1 00 00 00
	00		 mov	 eax, DWORD PTR fs:0
  00010	50		 push	 eax
  00011	83 ec 28	 sub	 esp, 40			; 00000028H
  00014	a1 00 00 00 00	 mov	 eax, DWORD PTR ___security_cookie
  00019	33 c5		 xor	 eax, ebp
  0001b	89 45 f0	 mov	 DWORD PTR __$ArrayPad$[ebp], eax
  0001e	50		 push	 eax
  0001f	8d 45 f4	 lea	 eax, DWORD PTR __$EHRec$[ebp]
  00022	64 a3 00 00 00
	00		 mov	 DWORD PTR fs:0, eax
  00028	89 4d dc	 mov	 DWORD PTR _this$[ebp], ecx

; 66   : 	// TODO: 在此添加控件通知处理程序代码
; 67   : 	CString sPath;

  0002b	8d 4d ec	 lea	 ecx, DWORD PTR _sPath$[ebp]
  0002e	ff 15 00 00 00
	00		 call	 DWORD PTR __imp_??0?$CStringT@DV?$StrTraitMFC_DLL@DV?$ChTraitsCRT@D@ATL@@@@@ATL@@QAE@XZ
  00034	c7 45 fc 00 00
	00 00		 mov	 DWORD PTR __$EHRec$[ebp+8], 0

; 68   : 	GetModuleFileName(NULL, sPath.GetBufferSetLength(MAX_PATH + 1), MAX_PATH);

  0003b	68 04 01 00 00	 push	 260			; 00000104H
  00040	68 05 01 00 00	 push	 261			; 00000105H
  00045	8d 4d ec	 lea	 ecx, DWORD PTR _sPath$[ebp]
  00048	ff 15 00 00 00
	00		 call	 DWORD PTR __imp_?GetBufferSetLength@?$CSimpleStringT@D$00@ATL@@QAEPADH@Z
  0004e	50		 push	 eax
  0004f	6a 00		 push	 0
  00051	ff 15 00 00 00
	00		 call	 DWORD PTR __imp__GetModuleFileNameA@12

; 69   : 	sPath.ReleaseBuffer();

  00057	6a ff		 push	 -1
  00059	8d 4d ec	 lea	 ecx, DWORD PTR _sPath$[ebp]
  0005c	ff 15 00 00 00
	00		 call	 DWORD PTR __imp_?ReleaseBuffer@?$CSimpleStringT@D$00@ATL@@QAEXH@Z

; 70   : 
; 71   : 	int nPos;
; 72   : 	nPos = sPath.ReverseFind('\\');

  00062	6a 5c		 push	 92			; 0000005cH
  00064	8d 4d ec	 lea	 ecx, DWORD PTR _sPath$[ebp]
  00067	ff 15 00 00 00
	00		 call	 DWORD PTR __imp_?ReverseFind@?$CStringT@DV?$StrTraitMFC_DLL@DV?$ChTraitsCRT@D@ATL@@@@@ATL@@QBEHD@Z
  0006d	89 45 d0	 mov	 DWORD PTR _nPos$[ebp], eax

; 73   : 	sPath = sPath.Left(nPos);

  00070	8b 45 d0	 mov	 eax, DWORD PTR _nPos$[ebp]
  00073	50		 push	 eax
  00074	8d 4d cc	 lea	 ecx, DWORD PTR $T2[ebp]
  00077	51		 push	 ecx
  00078	8d 4d ec	 lea	 ecx, DWORD PTR _sPath$[ebp]
  0007b	ff 15 00 00 00
	00		 call	 DWORD PTR __imp_?Left@?$CStringT@DV?$StrTraitMFC_DLL@DV?$ChTraitsCRT@D@ATL@@@@@ATL@@QBE?AV12@H@Z
  00081	89 45 d8	 mov	 DWORD PTR tv65[ebp], eax
  00084	8b 55 d8	 mov	 edx, DWORD PTR tv65[ebp]
  00087	89 55 d4	 mov	 DWORD PTR tv217[ebp], edx
  0008a	c6 45 fc 01	 mov	 BYTE PTR __$EHRec$[ebp+8], 1
  0008e	8b 45 d4	 mov	 eax, DWORD PTR tv217[ebp]
  00091	50		 push	 eax
  00092	8d 4d ec	 lea	 ecx, DWORD PTR _sPath$[ebp]
  00095	ff 15 00 00 00
	00		 call	 DWORD PTR __imp_??4?$CStringT@DV?$StrTraitMFC_DLL@DV?$ChTraitsCRT@D@ATL@@@@@ATL@@QAEAAV01@ABV01@@Z
  0009b	c6 45 fc 00	 mov	 BYTE PTR __$EHRec$[ebp+8], 0
  0009f	8d 4d cc	 lea	 ecx, DWORD PTR $T2[ebp]
  000a2	ff 15 00 00 00
	00		 call	 DWORD PTR __imp_??1?$CStringT@DV?$StrTraitMFC_DLL@DV?$ChTraitsCRT@D@ATL@@@@@ATL@@QAE@XZ

; 74   : 
; 75   : 	CString ConfigPath = sPath + _T("\\config.ini");

  000a8	68 00 00 00 00	 push	 OFFSET $SG4294953189
  000ad	8d 4d ec	 lea	 ecx, DWORD PTR _sPath$[ebp]
  000b0	51		 push	 ecx
  000b1	8d 55 e0	 lea	 edx, DWORD PTR _ConfigPath$[ebp]
  000b4	52		 push	 edx
  000b5	e8 00 00 00 00	 call	 ??HATL@@YA?AV?$CStringT@DV?$StrTraitMFC_DLL@DV?$ChTraitsCRT@D@ATL@@@@@0@ABV10@PBD@Z ; ATL::operator+
  000ba	83 c4 0c	 add	 esp, 12			; 0000000cH
  000bd	c6 45 fc 02	 mov	 BYTE PTR __$EHRec$[ebp+8], 2

; 76   : 
; 77   : 	GetPrivateProfileString(_T("LOGIN"), _T("USERNAME"), "", m_susername, sizeof(m_susername), ConfigPath);

  000c1	8d 4d e0	 lea	 ecx, DWORD PTR _ConfigPath$[ebp]
  000c4	ff 15 00 00 00
	00		 call	 DWORD PTR __imp_??B?$CSimpleStringT@D$00@ATL@@QBEPBDXZ
  000ca	50		 push	 eax
  000cb	6a 32		 push	 50			; 00000032H
  000cd	8b 45 dc	 mov	 eax, DWORD PTR _this$[ebp]
  000d0	05 2c 01 00 00	 add	 eax, 300		; 0000012cH
  000d5	50		 push	 eax
  000d6	68 00 00 00 00	 push	 OFFSET $SG4294953188
  000db	68 00 00 00 00	 push	 OFFSET $SG4294953187
  000e0	68 00 00 00 00	 push	 OFFSET $SG4294953186
  000e5	ff 15 00 00 00
	00		 call	 DWORD PTR __imp__GetPrivateProfileStringA@24

; 78   : 	GetPrivateProfileString(_T("LOGIN"), _T("PASSWORD"), "", m_spassword, sizeof(m_spassword), ConfigPath);

  000eb	8d 4d e0	 lea	 ecx, DWORD PTR _ConfigPath$[ebp]
  000ee	ff 15 00 00 00
	00		 call	 DWORD PTR __imp_??B?$CSimpleStringT@D$00@ATL@@QBEPBDXZ
  000f4	50		 push	 eax
  000f5	6a 32		 push	 50			; 00000032H
  000f7	8b 4d dc	 mov	 ecx, DWORD PTR _this$[ebp]
  000fa	81 c1 5e 01 00
	00		 add	 ecx, 350		; 0000015eH
  00100	51		 push	 ecx
  00101	68 00 00 00 00	 push	 OFFSET $SG4294953185
  00106	68 00 00 00 00	 push	 OFFSET $SG4294953184
  0010b	68 00 00 00 00	 push	 OFFSET $SG4294953183
  00110	ff 15 00 00 00
	00		 call	 DWORD PTR __imp__GetPrivateProfileStringA@24

; 79   : 
; 80   : 	UpdateData(TRUE);

  00116	6a 01		 push	 1
  00118	8b 4d dc	 mov	 ecx, DWORD PTR _this$[ebp]
  0011b	ff 15 00 00 00
	00		 call	 DWORD PTR __imp_?UpdateData@CWnd@@QAEHH@Z

; 81   : 	CString usr,pss;

  00121	8d 4d e8	 lea	 ecx, DWORD PTR _usr$[ebp]
  00124	ff 15 00 00 00
	00		 call	 DWORD PTR __imp_??0?$CStringT@DV?$StrTraitMFC_DLL@DV?$ChTraitsCRT@D@ATL@@@@@ATL@@QAE@XZ
  0012a	c6 45 fc 03	 mov	 BYTE PTR __$EHRec$[ebp+8], 3
  0012e	8d 4d e4	 lea	 ecx, DWORD PTR _pss$[ebp]
  00131	ff 15 00 00 00
	00		 call	 DWORD PTR __imp_??0?$CStringT@DV?$StrTraitMFC_DLL@DV?$ChTraitsCRT@D@ATL@@@@@ATL@@QAE@XZ
  00137	c6 45 fc 04	 mov	 BYTE PTR __$EHRec$[ebp+8], 4

; 82   : 	m_username.GetWindowTextA(usr);

  0013b	8d 55 e8	 lea	 edx, DWORD PTR _usr$[ebp]
  0013e	52		 push	 edx
  0013f	8b 4d dc	 mov	 ecx, DWORD PTR _this$[ebp]
  00142	81 c1 b8 00 00
	00		 add	 ecx, 184		; 000000b8H
  00148	ff 15 00 00 00
	00		 call	 DWORD PTR __imp_?GetWindowTextA@CWnd@@QBEXAAV?$CStringT@DV?$StrTraitMFC_DLL@DV?$ChTraitsCRT@D@ATL@@@@@ATL@@@Z

; 83   : 	m_password.GetWindowTextA(pss);

  0014e	8d 45 e4	 lea	 eax, DWORD PTR _pss$[ebp]
  00151	50		 push	 eax
  00152	8b 4d dc	 mov	 ecx, DWORD PTR _this$[ebp]
  00155	81 c1 90 01 00
	00		 add	 ecx, 400		; 00000190H
  0015b	ff 15 00 00 00
	00		 call	 DWORD PTR __imp_?GetWindowTextA@CWnd@@QBEXAAV?$CStringT@DV?$StrTraitMFC_DLL@DV?$ChTraitsCRT@D@ATL@@@@@ATL@@@Z

; 84   : 	m_showpassword = pss;

  00161	8d 4d e4	 lea	 ecx, DWORD PTR _pss$[ebp]
  00164	51		 push	 ecx
  00165	8b 4d dc	 mov	 ecx, DWORD PTR _this$[ebp]
  00168	81 c1 78 02 00
	00		 add	 ecx, 632		; 00000278H
  0016e	ff 15 00 00 00
	00		 call	 DWORD PTR __imp_??4?$CStringT@DV?$StrTraitMFC_DLL@DV?$ChTraitsCRT@D@ATL@@@@@ATL@@QAEAAV01@ABV01@@Z

; 85   : 	m_showname = usr;

  00174	8d 55 e8	 lea	 edx, DWORD PTR _usr$[ebp]
  00177	52		 push	 edx
  00178	8b 4d dc	 mov	 ecx, DWORD PTR _this$[ebp]
  0017b	81 c1 7c 02 00
	00		 add	 ecx, 636		; 0000027cH
  00181	ff 15 00 00 00
	00		 call	 DWORD PTR __imp_??4?$CStringT@DV?$StrTraitMFC_DLL@DV?$ChTraitsCRT@D@ATL@@@@@ATL@@QAEAAV01@ABV01@@Z

; 86   : 	if ((usr==m_susername)&&(pss==m_spassword))

  00187	8b 45 dc	 mov	 eax, DWORD PTR _this$[ebp]
  0018a	05 2c 01 00 00	 add	 eax, 300		; 0000012cH
  0018f	50		 push	 eax
  00190	8d 4d e8	 lea	 ecx, DWORD PTR _usr$[ebp]
  00193	51		 push	 ecx
  00194	e8 00 00 00 00	 call	 ??8ATL@@YA_NABV?$CStringT@DV?$StrTraitMFC_DLL@DV?$ChTraitsCRT@D@ATL@@@@@0@PBD@Z ; ATL::operator==
  00199	83 c4 08	 add	 esp, 8
  0019c	0f b6 d0	 movzx	 edx, al
  0019f	85 d2		 test	 edx, edx
  001a1	74 27		 je	 SHORT $LN2@OnBnClicke
  001a3	8b 45 dc	 mov	 eax, DWORD PTR _this$[ebp]
  001a6	05 5e 01 00 00	 add	 eax, 350		; 0000015eH
  001ab	50		 push	 eax
  001ac	8d 4d e4	 lea	 ecx, DWORD PTR _pss$[ebp]
  001af	51		 push	 ecx
  001b0	e8 00 00 00 00	 call	 ??8ATL@@YA_NABV?$CStringT@DV?$StrTraitMFC_DLL@DV?$ChTraitsCRT@D@ATL@@@@@0@PBD@Z ; ATL::operator==
  001b5	83 c4 08	 add	 esp, 8
  001b8	0f b6 d0	 movzx	 edx, al
  001bb	85 d2		 test	 edx, edx
  001bd	74 0b		 je	 SHORT $LN2@OnBnClicke

; 87   : 	{
; 88   : 		CDialogEx::OnOK();

  001bf	8b 4d dc	 mov	 ecx, DWORD PTR _this$[ebp]
  001c2	ff 15 00 00 00
	00		 call	 DWORD PTR __imp_?OnOK@CDialog@@MAEXXZ

; 89   : 	}
; 90   : 	else

  001c8	eb 50		 jmp	 SHORT $LN1@OnBnClicke
$LN2@OnBnClicke:

; 91   : 	{
; 92   : 		::MessageBox( NULL, "用户名或密码错误", TEXT("登录提示"), MB_OK | MB_TASKMODAL | MB_SETFOREGROUND );

  001ca	68 00 20 01 00	 push	 73728			; 00012000H
  001cf	68 00 00 00 00	 push	 OFFSET $SG4294953182
  001d4	68 00 00 00 00	 push	 OFFSET $SG4294953181
  001d9	6a 00		 push	 0
  001db	ff 15 00 00 00
	00		 call	 DWORD PTR __imp__MessageBoxA@16

; 93   : 		return;

  001e1	c6 45 fc 03	 mov	 BYTE PTR __$EHRec$[ebp+8], 3
  001e5	8d 4d e4	 lea	 ecx, DWORD PTR _pss$[ebp]
  001e8	ff 15 00 00 00
	00		 call	 DWORD PTR __imp_??1?$CStringT@DV?$StrTraitMFC_DLL@DV?$ChTraitsCRT@D@ATL@@@@@ATL@@QAE@XZ
  001ee	c6 45 fc 02	 mov	 BYTE PTR __$EHRec$[ebp+8], 2
  001f2	8d 4d e8	 lea	 ecx, DWORD PTR _usr$[ebp]
  001f5	ff 15 00 00 00
	00		 call	 DWORD PTR __imp_??1?$CStringT@DV?$StrTraitMFC_DLL@DV?$ChTraitsCRT@D@ATL@@@@@ATL@@QAE@XZ
  001fb	c6 45 fc 00	 mov	 BYTE PTR __$EHRec$[ebp+8], 0
  001ff	8d 4d e0	 lea	 ecx, DWORD PTR _ConfigPath$[ebp]
  00202	ff 15 00 00 00
	00		 call	 DWORD PTR __imp_??1?$CStringT@DV?$StrTraitMFC_DLL@DV?$ChTraitsCRT@D@ATL@@@@@ATL@@QAE@XZ
  00208	c7 45 fc ff ff
	ff ff		 mov	 DWORD PTR __$EHRec$[ebp+8], -1
  0020f	8d 4d ec	 lea	 ecx, DWORD PTR _sPath$[ebp]
  00212	ff 15 00 00 00
	00		 call	 DWORD PTR __imp_??1?$CStringT@DV?$StrTraitMFC_DLL@DV?$ChTraitsCRT@D@ATL@@@@@ATL@@QAE@XZ
  00218	eb 40		 jmp	 SHORT $LN3@OnBnClicke
$LN1@OnBnClicke:

; 94   : 	}
; 95   : 	CDialogEx::OnOK();

  0021a	8b 4d dc	 mov	 ecx, DWORD PTR _this$[ebp]
  0021d	ff 15 00 00 00
	00		 call	 DWORD PTR __imp_?OnOK@CDialog@@MAEXXZ

; 96   : }

  00223	c6 45 fc 03	 mov	 BYTE PTR __$EHRec$[ebp+8], 3
  00227	8d 4d e4	 lea	 ecx, DWORD PTR _pss$[ebp]
  0022a	ff 15 00 00 00
	00		 call	 DWORD PTR __imp_??1?$CStringT@DV?$StrTraitMFC_DLL@DV?$ChTraitsCRT@D@ATL@@@@@ATL@@QAE@XZ
  00230	c6 45 fc 02	 mov	 BYTE PTR __$EHRec$[ebp+8], 2
  00234	8d 4d e8	 lea	 ecx, DWORD PTR _usr$[ebp]
  00237	ff 15 00 00 00
	00		 call	 DWORD PTR __imp_??1?$CStringT@DV?$StrTraitMFC_DLL@DV?$ChTraitsCRT@D@ATL@@@@@ATL@@QAE@XZ
  0023d	c6 45 fc 00	 mov	 BYTE PTR __$EHRec$[ebp+8], 0
  00241	8d 4d e0	 lea	 ecx, DWORD PTR _ConfigPath$[ebp]
  00244	ff 15 00 00 00
	00		 call	 DWORD PTR __imp_??1?$CStringT@DV?$StrTraitMFC_DLL@DV?$ChTraitsCRT@D@ATL@@@@@ATL@@QAE@XZ
  0024a	c7 45 fc ff ff
	ff ff		 mov	 DWORD PTR __$EHRec$[ebp+8], -1
  00251	8d 4d ec	 lea	 ecx, DWORD PTR _sPath$[ebp]
  00254	ff 15 00 00 00
	00		 call	 DWORD PTR __imp_??1?$CStringT@DV?$StrTraitMFC_DLL@DV?$ChTraitsCRT@D@ATL@@@@@ATL@@QAE@XZ
$LN3@OnBnClicke:
  0025a	8b 4d f4	 mov	 ecx, DWORD PTR __$EHRec$[ebp]
  0025d	64 89 0d 00 00
	00 00		 mov	 DWORD PTR fs:0, ecx
  00264	59		 pop	 ecx
  00265	8b 4d f0	 mov	 ecx, DWORD PTR __$ArrayPad$[ebp]
  00268	33 cd		 xor	 ecx, ebp
  0026a	e8 00 00 00 00	 call	 @__security_check_cookie@4
  0026f	8b e5		 mov	 esp, ebp
  00271	5d		 pop	 ebp
  00272	c3		 ret	 0
_TEXT	ENDS
;	COMDAT text$x
text$x	SEGMENT
__unwindfunclet$?OnBnClickedOk@Login@@QAEXXZ$0:
  00000	8d 4d ec	 lea	 ecx, DWORD PTR _sPath$[ebp]
  00003	ff 25 00 00 00
	00		 jmp	 DWORD PTR __imp_??1?$CStringT@DV?$StrTraitMFC_DLL@DV?$ChTraitsCRT@D@ATL@@@@@ATL@@QAE@XZ
__unwindfunclet$?OnBnClickedOk@Login@@QAEXXZ$1:
  00009	8d 4d cc	 lea	 ecx, DWORD PTR $T2[ebp]
  0000c	ff 25 00 00 00
	00		 jmp	 DWORD PTR __imp_??1?$CStringT@DV?$StrTraitMFC_DLL@DV?$ChTraitsCRT@D@ATL@@@@@ATL@@QAE@XZ
__unwindfunclet$?OnBnClickedOk@Login@@QAEXXZ$2:
  00012	8d 4d e0	 lea	 ecx, DWORD PTR _ConfigPath$[ebp]
  00015	ff 25 00 00 00
	00		 jmp	 DWORD PTR __imp_??1?$CStringT@DV?$StrTraitMFC_DLL@DV?$ChTraitsCRT@D@ATL@@@@@ATL@@QAE@XZ
__unwindfunclet$?OnBnClickedOk@Login@@QAEXXZ$3:
  0001b	8d 4d e8	 lea	 ecx, DWORD PTR _usr$[ebp]
  0001e	ff 25 00 00 00
	00		 jmp	 DWORD PTR __imp_??1?$CStringT@DV?$StrTraitMFC_DLL@DV?$ChTraitsCRT@D@ATL@@@@@ATL@@QAE@XZ
__unwindfunclet$?OnBnClickedOk@Login@@QAEXXZ$4:
  00024	8d 4d e4	 lea	 ecx, DWORD PTR _pss$[ebp]
  00027	ff 25 00 00 00
	00		 jmp	 DWORD PTR __imp_??1?$CStringT@DV?$StrTraitMFC_DLL@DV?$ChTraitsCRT@D@ATL@@@@@ATL@@QAE@XZ
__ehhandler$?OnBnClickedOk@Login@@QAEXXZ:
  0002d	8b 54 24 08	 mov	 edx, DWORD PTR [esp+8]
  00031	8d 42 0c	 lea	 eax, DWORD PTR [edx+12]
  00034	8b 4a d4	 mov	 ecx, DWORD PTR [edx-44]
  00037	33 c8		 xor	 ecx, eax
  00039	e8 00 00 00 00	 call	 @__security_check_cookie@4
  0003e	8b 4a fc	 mov	 ecx, DWORD PTR [edx-4]
  00041	33 c8		 xor	 ecx, eax
  00043	e8 00 00 00 00	 call	 @__security_check_cookie@4
  00048	b8 00 00 00 00	 mov	 eax, OFFSET __ehfuncinfo$?OnBnClickedOk@Login@@QAEXXZ
  0004d	e9 00 00 00 00	 jmp	 ___CxxFrameHandler3
text$x	ENDS
?OnBnClickedOk@Login@@QAEXXZ ENDP			; Login::OnBnClickedOk
; Function compile flags: /Odtp
; File e:\work_wm\hxijy_code\endoscopemfc2012_menu_changepara_youhua_savepic_usb_1114_twothread_svepic_save5\src\endoscopemfc\login.cpp
;	COMDAT ?OnInitDialog@Login@@UAEHXZ
_TEXT	SEGMENT
$T2 = -28						; size = 4
_this$ = -24						; size = 4
_sPSW$ = -20						; size = 4
__$ArrayPad$ = -16					; size = 4
__$EHRec$ = -12						; size = 12
?OnInitDialog@Login@@UAEHXZ PROC			; Login::OnInitDialog, COMDAT
; _this$ = ecx

; 100  : {

  00000	55		 push	 ebp
  00001	8b ec		 mov	 ebp, esp
  00003	6a ff		 push	 -1
  00005	68 00 00 00 00	 push	 __ehhandler$?OnInitDialog@Login@@UAEHXZ
  0000a	64 a1 00 00 00
	00		 mov	 eax, DWORD PTR fs:0
  00010	50		 push	 eax
  00011	83 ec 10	 sub	 esp, 16			; 00000010H
  00014	a1 00 00 00 00	 mov	 eax, DWORD PTR ___security_cookie
  00019	33 c5		 xor	 eax, ebp
  0001b	89 45 f0	 mov	 DWORD PTR __$ArrayPad$[ebp], eax
  0001e	50		 push	 eax
  0001f	8d 45 f4	 lea	 eax, DWORD PTR __$EHRec$[ebp]
  00022	64 a3 00 00 00
	00		 mov	 DWORD PTR fs:0, eax
  00028	89 4d e8	 mov	 DWORD PTR _this$[ebp], ecx

; 101  : 	CDialog::OnInitDialog();

  0002b	8b 4d e8	 mov	 ecx, DWORD PTR _this$[ebp]
  0002e	ff 15 00 00 00
	00		 call	 DWORD PTR __imp_?OnInitDialog@CDialog@@UAEHXZ

; 102  : 	CString sPSW(m_spassword);

  00034	8b 45 e8	 mov	 eax, DWORD PTR _this$[ebp]
  00037	05 5e 01 00 00	 add	 eax, 350		; 0000015eH
  0003c	50		 push	 eax
  0003d	8d 4d ec	 lea	 ecx, DWORD PTR _sPSW$[ebp]
  00040	ff 15 00 00 00
	00		 call	 DWORD PTR __imp_??0?$CStringT@DV?$StrTraitMFC_DLL@DV?$ChTraitsCRT@D@ATL@@@@@ATL@@QAE@PBD@Z
  00046	c7 45 fc 00 00
	00 00		 mov	 DWORD PTR __$EHRec$[ebp+8], 0

; 103  : 	if ("123" == sPSW)

  0004d	8d 4d ec	 lea	 ecx, DWORD PTR _sPSW$[ebp]
  00050	51		 push	 ecx
  00051	68 00 00 00 00	 push	 OFFSET $SG4294953180
  00056	e8 00 00 00 00	 call	 ??8ATL@@YA_NPBDABV?$CStringT@DV?$StrTraitMFC_DLL@DV?$ChTraitsCRT@D@ATL@@@@@0@@Z ; ATL::operator==
  0005b	83 c4 08	 add	 esp, 8
  0005e	0f b6 d0	 movzx	 edx, al
  00061	85 d2		 test	 edx, edx
  00063	74 13		 je	 SHORT $LN2@OnInitDial

; 104  : 	{
; 105  : 		m_MSGInfo.ShowWindow(SW_SHOW);

  00065	6a 05		 push	 5
  00067	8b 4d e8	 mov	 ecx, DWORD PTR _this$[ebp]
  0006a	81 c1 04 02 00
	00		 add	 ecx, 516		; 00000204H
  00070	ff 15 00 00 00
	00		 call	 DWORD PTR __imp_?ShowWindow@CWnd@@QAEHH@Z

; 106  : 	}
; 107  : 	else

  00076	eb 11		 jmp	 SHORT $LN1@OnInitDial
$LN2@OnInitDial:

; 108  : 	{
; 109  : 		m_MSGInfo.ShowWindow(SW_HIDE);

  00078	6a 00		 push	 0
  0007a	8b 4d e8	 mov	 ecx, DWORD PTR _this$[ebp]
  0007d	81 c1 04 02 00
	00		 add	 ecx, 516		; 00000204H
  00083	ff 15 00 00 00
	00		 call	 DWORD PTR __imp_?ShowWindow@CWnd@@QAEHH@Z
$LN1@OnInitDial:

; 110  : 	}
; 111  : 	return TRUE;

  00089	c7 45 e4 01 00
	00 00		 mov	 DWORD PTR $T2[ebp], 1
  00090	c7 45 fc ff ff
	ff ff		 mov	 DWORD PTR __$EHRec$[ebp+8], -1
  00097	8d 4d ec	 lea	 ecx, DWORD PTR _sPSW$[ebp]
  0009a	ff 15 00 00 00
	00		 call	 DWORD PTR __imp_??1?$CStringT@DV?$StrTraitMFC_DLL@DV?$ChTraitsCRT@D@ATL@@@@@ATL@@QAE@XZ
  000a0	8b 45 e4	 mov	 eax, DWORD PTR $T2[ebp]

; 112  : }

  000a3	8b 4d f4	 mov	 ecx, DWORD PTR __$EHRec$[ebp]
  000a6	64 89 0d 00 00
	00 00		 mov	 DWORD PTR fs:0, ecx
  000ad	59		 pop	 ecx
  000ae	8b 4d f0	 mov	 ecx, DWORD PTR __$ArrayPad$[ebp]
  000b1	33 cd		 xor	 ecx, ebp
  000b3	e8 00 00 00 00	 call	 @__security_check_cookie@4
  000b8	8b e5		 mov	 esp, ebp
  000ba	5d		 pop	 ebp
  000bb	c3		 ret	 0
_TEXT	ENDS
;	COMDAT text$x
text$x	SEGMENT
__unwindfunclet$?OnInitDialog@Login@@UAEHXZ$0:
  00000	8d 4d ec	 lea	 ecx, DWORD PTR _sPSW$[ebp]
  00003	ff 25 00 00 00
	00		 jmp	 DWORD PTR __imp_??1?$CStringT@DV?$StrTraitMFC_DLL@DV?$ChTraitsCRT@D@ATL@@@@@ATL@@QAE@XZ
__ehhandler$?OnInitDialog@Login@@UAEHXZ:
  00009	8b 54 24 08	 mov	 edx, DWORD PTR [esp+8]
  0000d	8d 42 0c	 lea	 eax, DWORD PTR [edx+12]
  00010	8b 4a ec	 mov	 ecx, DWORD PTR [edx-20]
  00013	33 c8		 xor	 ecx, eax
  00015	e8 00 00 00 00	 call	 @__security_check_cookie@4
  0001a	8b 4a fc	 mov	 ecx, DWORD PTR [edx-4]
  0001d	33 c8		 xor	 ecx, eax
  0001f	e8 00 00 00 00	 call	 @__security_check_cookie@4
  00024	b8 00 00 00 00	 mov	 eax, OFFSET __ehfuncinfo$?OnInitDialog@Login@@UAEHXZ
  00029	e9 00 00 00 00	 jmp	 ___CxxFrameHandler3
text$x	ENDS
?OnInitDialog@Login@@UAEHXZ ENDP			; Login::OnInitDialog
; Function compile flags: /Odtp
; File d:\program files\microsoft visual studio 11.0\vc\atlmfc\include\cstringt.h
;	COMDAT ??8ATL@@YA_NABV?$CStringT@DV?$StrTraitMFC_DLL@DV?$ChTraitsCRT@D@ATL@@@@@0@PBD@Z
_TEXT	SEGMENT
tv68 = -4						; size = 4
_str1$ = 8						; size = 4
_psz2$ = 12						; size = 4
??8ATL@@YA_NABV?$CStringT@DV?$StrTraitMFC_DLL@DV?$ChTraitsCRT@D@ATL@@@@@0@PBD@Z PROC ; ATL::operator==, COMDAT

; 2425 : 	{

  00000	55		 push	 ebp
  00001	8b ec		 mov	 ebp, esp
  00003	51		 push	 ecx

; 2426 : 		return( str1.Compare( psz2 ) == 0 );

  00004	8b 45 0c	 mov	 eax, DWORD PTR _psz2$[ebp]
  00007	50		 push	 eax
  00008	8b 4d 08	 mov	 ecx, DWORD PTR _str1$[ebp]
  0000b	ff 15 00 00 00
	00		 call	 DWORD PTR __imp_?Compare@?$CStringT@DV?$StrTraitMFC_DLL@DV?$ChTraitsCRT@D@ATL@@@@@ATL@@QBEHPBD@Z
  00011	85 c0		 test	 eax, eax
  00013	75 09		 jne	 SHORT $LN3@operator
  00015	c7 45 fc 01 00
	00 00		 mov	 DWORD PTR tv68[ebp], 1
  0001c	eb 07		 jmp	 SHORT $LN4@operator
$LN3@operator:
  0001e	c7 45 fc 00 00
	00 00		 mov	 DWORD PTR tv68[ebp], 0
$LN4@operator:
  00025	8a 45 fc	 mov	 al, BYTE PTR tv68[ebp]

; 2427 : 	}

  00028	8b e5		 mov	 esp, ebp
  0002a	5d		 pop	 ebp
  0002b	c3		 ret	 0
??8ATL@@YA_NABV?$CStringT@DV?$StrTraitMFC_DLL@DV?$ChTraitsCRT@D@ATL@@@@@0@PBD@Z ENDP ; ATL::operator==
_TEXT	ENDS
; Function compile flags: /Odtp
;	COMDAT ??_GCEdit@@UAEPAXI@Z
_TEXT	SEGMENT
_this$ = -4						; size = 4
___flags$ = 8						; size = 4
??_GCEdit@@UAEPAXI@Z PROC				; CEdit::`scalar deleting destructor', COMDAT
; _this$ = ecx
  00000	55		 push	 ebp
  00001	8b ec		 mov	 ebp, esp
  00003	51		 push	 ecx
  00004	89 4d fc	 mov	 DWORD PTR _this$[ebp], ecx
  00007	8b 4d fc	 mov	 ecx, DWORD PTR _this$[ebp]
  0000a	ff 15 00 00 00
	00		 call	 DWORD PTR __imp_??1CEdit@@UAE@XZ
  00010	8b 45 08	 mov	 eax, DWORD PTR ___flags$[ebp]
  00013	83 e0 01	 and	 eax, 1
  00016	74 09		 je	 SHORT $LN1@scalar
  00018	8b 4d fc	 mov	 ecx, DWORD PTR _this$[ebp]
  0001b	51		 push	 ecx
  0001c	e8 00 00 00 00	 call	 ??3CObject@@SGXPAX@Z	; CObject::operator delete
$LN1@scalar:
  00021	8b 45 fc	 mov	 eax, DWORD PTR _this$[ebp]
  00024	8b e5		 mov	 esp, ebp
  00026	5d		 pop	 ebp
  00027	c2 04 00	 ret	 4
??_GCEdit@@UAEPAXI@Z ENDP				; CEdit::`scalar deleting destructor'
_TEXT	ENDS
; Function compile flags: /Odtp
; File d:\program files\microsoft visual studio 11.0\vc\atlmfc\include\afxwin2.inl
;	COMDAT ??0CEdit@@QAE@XZ
_TEXT	SEGMENT
_this$ = -4						; size = 4
??0CEdit@@QAE@XZ PROC					; CEdit::CEdit, COMDAT
; _this$ = ecx

; 939  : 	{ }

  00000	55		 push	 ebp
  00001	8b ec		 mov	 ebp, esp
  00003	51		 push	 ecx
  00004	89 4d fc	 mov	 DWORD PTR _this$[ebp], ecx
  00007	8b 4d fc	 mov	 ecx, DWORD PTR _this$[ebp]
  0000a	ff 15 00 00 00
	00		 call	 DWORD PTR __imp_??0CWnd@@QAE@XZ
  00010	8b 45 fc	 mov	 eax, DWORD PTR _this$[ebp]
  00013	c7 00 00 00 00
	00		 mov	 DWORD PTR [eax], OFFSET ??_7CEdit@@6B@
  00019	8b 45 fc	 mov	 eax, DWORD PTR _this$[ebp]
  0001c	8b e5		 mov	 esp, ebp
  0001e	5d		 pop	 ebp
  0001f	c3		 ret	 0
??0CEdit@@QAE@XZ ENDP					; CEdit::CEdit
_TEXT	ENDS
END
