; Listing generated by Microsoft (R) Optimizing Compiler Version 17.00.50727.1 

	TITLE	E:\work_wm\HXIJY_code\endoscopemfc2012_menu_changepara_youhua_savepic_USB_1114_twothread_svepic_save5\src\EndoScopeMFC\MWCCGraphBuilder.cpp
	.686P
	.XMM
	include listing.inc
	.model	flat

INCLUDELIB OLDNAMES

PUBLIC	??_C@_0BM@NMJKDPPO@invalid?5vector?$DMT?$DO?5subscript?$AA@ ; `string'
PUBLIC	??_C@_0BD@OLBABOEK@vector?$DMT?$DO?5too?5long?$AA@ ; `string'
EXTRN	__imp__VariantClear@4:PROC
EXTRN	_IID_IVMRWindowlessControl9:BYTE
EXTRN	_IID_IVMRFilterConfig9:BYTE
EXTRN	__imp__printf:PROC
;	COMDAT ??_C@_0BD@OLBABOEK@vector?$DMT?$DO?5too?5long?$AA@
CONST	SEGMENT
??_C@_0BD@OLBABOEK@vector?$DMT?$DO?5too?5long?$AA@ DB 'vector<T> too long'
	DB	00H						; `string'
CONST	ENDS
;	COMDAT ??_C@_0BM@NMJKDPPO@invalid?5vector?$DMT?$DO?5subscript?$AA@
CONST	SEGMENT
??_C@_0BM@NMJKDPPO@invalid?5vector?$DMT?$DO?5subscript?$AA@ DB 'invalid v'
	DB	'ector<T> subscript', 00H			; `string'
$SG4294952941 DB 'filter graph create failed', 0aH, 00H
$SG4294952940 DB 'can not get media control', 0aH, 00H
	ORG $+1
$SG4294952939 DB 'can not get media event', 0aH, 00H
	ORG $+3
$SG4294952938 DB 'create VMR9 failed', 0aH, 00H
$SG4294952937 DB 'F', 00H, 'r', 00H, 'i', 00H, 'e', 00H, 'n', 00H, 'd', 00H
	DB	'l', 00H, 'y', 00H, 'N', 00H, 'a', 00H, 'm', 00H, 'e', 00H, 00H
	DB	00H
	ORG $+2
$SG4294952936 DB 'S', 00H, 'D', 00H, 'I', 00H, 00H, 00H
$SG4294952935 DB 'V', 00H, 'M', 00H, 'R', 00H, '9', 00H, 00H, 00H
	ORG $+2
$SG4294952934 DB 'C', 00H, 'a', 00H, 'p', 00H, 't', 00H, 'u', 00H, 'r', 00H
	DB	'e', 00H, 00H, 00H
$SG4294952933 DB 'C', 00H, 'C', 00H, 00H, 00H
	ORG $+2
$SG4294952932 DB 'C', 00H, 'C', 00H, '7', 00H, '0', 00H, '8', 00H, 'D', 00H
	DB	'e', 00H, 'c', 00H, 'o', 00H, 'd', 00H, 'e', 00H, 'r', 00H, 00H
	DB	00H
END
