; Listing generated by Microsoft (R) Optimizing Compiler Version 17.00.50727.1 

	TITLE	E:\work_wm\HXIJY_code\endoscopemfc2012_menu_changepara_youhua_savepic_USB_1114_twothread_svepic_save5\src\EndoScopeMFC\PLC.cpp
	.686P
	.XMM
	include listing.inc
	.model	flat

INCLUDELIB OLDNAMES

PUBLIC	??_R2CPLC@@8					; CPLC::`RTTI Base Class Array'
PUBLIC	??_R2CComDataHandler@@8				; CComDataHandler::`RTTI Base Class Array'
PUBLIC	??_R1A@?0A@EA@CPLC@@8				; CPLC::`RTTI Base Class Descriptor at (0,-1,0,64)'
PUBLIC	??_R1A@?0A@EA@CComDataHandler@@8		; CComDataHandler::`RTTI Base Class Descriptor at (0,-1,0,64)'
PUBLIC	??_R3CPLC@@8					; CPLC::`RTTI Class Hierarchy Descriptor'
PUBLIC	??_R0?AVCPLC@@@8				; CPLC `RTTI Type Descriptor'
PUBLIC	??_R3CComDataHandler@@8				; CComDataHandler::`RTTI Class Hierarchy Descriptor'
PUBLIC	??_R0?AVCComDataHandler@@@8			; CComDataHandler `RTTI Type Descriptor'
PUBLIC	??_R4CPLC@@6B@					; CPLC::`RTTI Complete Object Locator'
PUBLIC	??_R4CComDataHandler@@6B@			; CComDataHandler::`RTTI Complete Object Locator'
PUBLIC	??_7CComDataHandler@@6B@			; CComDataHandler::`vftable'
PUBLIC	??_7CPLC@@6B@					; CPLC::`vftable'
PUBLIC	?g_pPLC@@3PAVCPLC@@A				; g_pPLC
?g_pPLC@@3PAVCPLC@@A DD 01H DUP (?)			; g_pPLC
_BSS	ENDS
;	COMDAT ??_7CPLC@@6B@
CONST	SEGMENT
??_7CPLC@@6B@ DD FLAT:??_R4CPLC@@6B@			; CPLC::`vftable'
	DD	FLAT:?ProcessData@CPLC@@UAEXPAEH@Z
	DD	FLAT:??_ECPLC@@UAEPAXI@Z
CONST	ENDS
;	COMDAT ??_7CComDataHandler@@6B@
CONST	SEGMENT
??_7CComDataHandler@@6B@ DD FLAT:??_R4CComDataHandler@@6B@ ; CComDataHandler::`vftable'
	DD	FLAT:__purecall
CONST	ENDS
;	COMDAT ??_R4CComDataHandler@@6B@
rdata$r	SEGMENT
??_R4CComDataHandler@@6B@ DD 00H			; CComDataHandler::`RTTI Complete Object Locator'
	DD	00H
	DD	00H
	DD	FLAT:??_R0?AVCComDataHandler@@@8
	DD	FLAT:??_R3CComDataHandler@@8
rdata$r	ENDS
;	COMDAT ??_R4CPLC@@6B@
rdata$r	SEGMENT
??_R4CPLC@@6B@ DD 00H					; CPLC::`RTTI Complete Object Locator'
	DD	00H
	DD	00H
	DD	FLAT:??_R0?AVCPLC@@@8
	DD	FLAT:??_R3CPLC@@8
rdata$r	ENDS
;	COMDAT ??_R0?AVCComDataHandler@@@8
_DATA	SEGMENT
??_R0?AVCComDataHandler@@@8 DD FLAT:??_7type_info@@6B@	; CComDataHandler `RTTI Type Descriptor'
	DD	00H
	DB	'.?AVCComDataHandler@@', 00H
_DATA	ENDS
;	COMDAT ??_R3CComDataHandler@@8
rdata$r	SEGMENT
??_R3CComDataHandler@@8 DD 00H				; CComDataHandler::`RTTI Class Hierarchy Descriptor'
	DD	00H
	DD	01H
	DD	FLAT:??_R2CComDataHandler@@8
rdata$r	ENDS
;	COMDAT ??_R0?AVCPLC@@@8
_DATA	SEGMENT
??_R0?AVCPLC@@@8 DD FLAT:??_7type_info@@6B@		; CPLC `RTTI Type Descriptor'
	DD	00H
	DB	'.?AVCPLC@@', 00H
_DATA	ENDS
;	COMDAT ??_R3CPLC@@8
rdata$r	SEGMENT
??_R3CPLC@@8 DD	00H					; CPLC::`RTTI Class Hierarchy Descriptor'
	DD	00H
	DD	02H
	DD	FLAT:??_R2CPLC@@8
rdata$r	ENDS
;	COMDAT ??_R1A@?0A@EA@CComDataHandler@@8
rdata$r	SEGMENT
??_R1A@?0A@EA@CComDataHandler@@8 DD FLAT:??_R0?AVCComDataHandler@@@8 ; CComDataHandler::`RTTI Base Class Descriptor at (0,-1,0,64)'
	DD	00H
	DD	00H
	DD	0ffffffffH
	DD	00H
	DD	040H
	DD	FLAT:??_R3CComDataHandler@@8
rdata$r	ENDS
;	COMDAT ??_R1A@?0A@EA@CPLC@@8
rdata$r	SEGMENT
??_R1A@?0A@EA@CPLC@@8 DD FLAT:??_R0?AVCPLC@@@8		; CPLC::`RTTI Base Class Descriptor at (0,-1,0,64)'
	DD	01H
	DD	00H
	DD	0ffffffffH
	DD	00H
	DD	040H
	DD	FLAT:??_R3CPLC@@8
rdata$r	ENDS
;	COMDAT ??_R2CComDataHandler@@8
rdata$r	SEGMENT
??_R2CComDataHandler@@8 DD FLAT:??_R1A@?0A@EA@CComDataHandler@@8 ; CComDataHandler::`RTTI Base Class Array'
rdata$r	ENDS
;	COMDAT ??_R2CPLC@@8
rdata$r	SEGMENT
??_R2CPLC@@8 DD	FLAT:??_R1A@?0A@EA@CPLC@@8		; CPLC::`RTTI Base Class Array'
	DD	FLAT:??_R1A@?0A@EA@CComDataHandler@@8
$SG4294928751 DB 00H
PUBLIC	?ProcessData@CPLC@@UAEXPAEH@Z			; CPLC::ProcessData
PUBLIC	??1CPLC@@UAE@XZ					; CPLC::~CPLC
PUBLIC	??0CComDataHandler@@QAE@XZ			; CComDataHandler::CComDataHandler
PUBLIC	??_GCPLC@@UAEPAXI@Z				; CPLC::`scalar deleting destructor'
PUBLIC	?SetDataHandler@CLightComIO@@QAEXPAVCComDataHandler@@@Z ; CLightComIO::SetDataHandler
PUBLIC	?SetDataHandler@CVideoComIO@@QAEXPAVCComDataHandler@@@Z ; CVideoComIO::SetDataHandler
PUBLIC	?GetShowDlgPointer@CPLC@@QAEXPAVCWnd@@@Z	; CPLC::GetShowDlgPointer
PUBLIC	??0CPLC@@QAE@XZ					; CPLC::CPLC
PUBLIC	?ProcessCardInitialize@CPLC@@QAE_NV?$CStringT@DV?$StrTraitMFC_DLL@DV?$ChTraitsCRT@D@ATL@@@@@ATL@@H@Z ; CPLC::ProcessCardInitialize
PUBLIC	?VideoInitialize@CPLC@@QAE_NV?$CStringT@DV?$StrTraitMFC_DLL@DV?$ChTraitsCRT@D@ATL@@@@@ATL@@H@Z ; CPLC::VideoInitialize
EXTRN	??_ECPLC@@UAEPAXI@Z:PROC			; CPLC::`vector deleting destructor'
;	COMDAT xdata$x
xdata$x	SEGMENT
__ehfuncinfo$?VideoInitialize@CPLC@@QAE_NV?$CStringT@DV?$StrTraitMFC_DLL@DV?$ChTraitsCRT@D@ATL@@@@@ATL@@H@Z DD 019930522H
	DD	01H
	DD	FLAT:__unwindtable$?VideoInitialize@CPLC@@QAE_NV?$CStringT@DV?$StrTraitMFC_DLL@DV?$ChTraitsCRT@D@ATL@@@@@ATL@@H@Z
	DD	2 DUP(00H)
	DD	2 DUP(00H)
	DD	00H
	DD	01H
__unwindtable$?VideoInitialize@CPLC@@QAE_NV?$CStringT@DV?$StrTraitMFC_DLL@DV?$ChTraitsCRT@D@ATL@@@@@ATL@@H@Z DD 0ffffffffH
	DD	FLAT:__unwindfunclet$?VideoInitialize@CPLC@@QAE_NV?$CStringT@DV?$StrTraitMFC_DLL@DV?$ChTraitsCRT@D@ATL@@@@@ATL@@H@Z$0
xdata$x	ENDS
;	COMDAT xdata$x
xdata$x	SEGMENT
__ehfuncinfo$?ProcessCardInitialize@CPLC@@QAE_NV?$CStringT@DV?$StrTraitMFC_DLL@DV?$ChTraitsCRT@D@ATL@@@@@ATL@@H@Z DD 019930522H
	DD	01H
	DD	FLAT:__unwindtable$?ProcessCardInitialize@CPLC@@QAE_NV?$CStringT@DV?$StrTraitMFC_DLL@DV?$ChTraitsCRT@D@ATL@@@@@ATL@@H@Z
	DD	2 DUP(00H)
	DD	2 DUP(00H)
	DD	00H
	DD	01H
__unwindtable$?ProcessCardInitialize@CPLC@@QAE_NV?$CStringT@DV?$StrTraitMFC_DLL@DV?$ChTraitsCRT@D@ATL@@@@@ATL@@H@Z DD 0ffffffffH
	DD	FLAT:__unwindfunclet$?ProcessCardInitialize@CPLC@@QAE_NV?$CStringT@DV?$StrTraitMFC_DLL@DV?$ChTraitsCRT@D@ATL@@@@@ATL@@H@Z$0
xdata$x	ENDS
;	COMDAT xdata$x
xdata$x	SEGMENT
__ehfuncinfo$??0CPLC@@QAE@XZ DD 019930522H
	DD	04H
	DD	FLAT:__unwindtable$??0CPLC@@QAE@XZ
	DD	2 DUP(00H)
	DD	2 DUP(00H)
	DD	00H
	DD	01H
__unwindtable$??0CPLC@@QAE@XZ DD 0ffffffffH
	DD	FLAT:__unwindfunclet$??0CPLC@@QAE@XZ$0
	DD	00H
	DD	FLAT:__unwindfunclet$??0CPLC@@QAE@XZ$1
	DD	01H
	DD	FLAT:__unwindfunclet$??0CPLC@@QAE@XZ$2
	DD	02H
	DD	FLAT:__unwindfunclet$??0CPLC@@QAE@XZ$3
xdata$x	ENDS
;	COMDAT xdata$x
xdata$x	SEGMENT
__ehfuncinfo$??1CPLC@@UAE@XZ DD 019930522H
	DD	03H
	DD	FLAT:__unwindtable$??1CPLC@@UAE@XZ
	DD	2 DUP(00H)
	DD	2 DUP(00H)
	DD	00H
	DD	01H
__unwindtable$??1CPLC@@UAE@XZ DD 0ffffffffH
	DD	FLAT:__unwindfunclet$??1CPLC@@UAE@XZ$0
	DD	00H
	DD	FLAT:__unwindfunclet$??1CPLC@@UAE@XZ$1
	DD	01H
	DD	FLAT:__unwindfunclet$??1CPLC@@UAE@XZ$2
; Function compile flags: /Odtp
; File e:\work_wm\hxijy_code\endoscopemfc2012_menu_changepara_youhua_savepic_usb_1114_twothread_svepic_save5\src\endoscopemfc\plc.cpp
;	COMDAT ?VideoInitialize@CPLC@@QAE_NV?$CStringT@DV?$StrTraitMFC_DLL@DV?$ChTraitsCRT@D@ATL@@@@@ATL@@H@Z
_TEXT	SEGMENT
tv86 = -28						; size = 4
$T2 = -24						; size = 4
_this$ = -20						; size = 4
$T3 = -14						; size = 1
tv67 = -13						; size = 1
__$EHRec$ = -12						; size = 12
_strCOM$ = 8						; size = 4
_nBaudRate$ = 12					; size = 4
?VideoInitialize@CPLC@@QAE_NV?$CStringT@DV?$StrTraitMFC_DLL@DV?$ChTraitsCRT@D@ATL@@@@@ATL@@H@Z PROC ; CPLC::VideoInitialize, COMDAT
; _this$ = ecx

; 29   : {

  00000	55		 push	 ebp
  00001	8b ec		 mov	 ebp, esp
  00003	6a ff		 push	 -1
  00005	68 00 00 00 00	 push	 __ehhandler$?VideoInitialize@CPLC@@QAE_NV?$CStringT@DV?$StrTraitMFC_DLL@DV?$ChTraitsCRT@D@ATL@@@@@ATL@@H@Z
  0000a	64 a1 00 00 00
	00		 mov	 eax, DWORD PTR fs:0
  00010	50		 push	 eax
  00011	83 ec 10	 sub	 esp, 16			; 00000010H
  00014	a1 00 00 00 00	 mov	 eax, DWORD PTR ___security_cookie
  00019	33 c5		 xor	 eax, ebp
  0001b	50		 push	 eax
  0001c	8d 45 f4	 lea	 eax, DWORD PTR __$EHRec$[ebp]
  0001f	64 a3 00 00 00
	00		 mov	 DWORD PTR fs:0, eax
  00025	89 4d ec	 mov	 DWORD PTR _this$[ebp], ecx
  00028	c7 45 fc 00 00
	00 00		 mov	 DWORD PTR __$EHRec$[ebp+8], 0

; 30   : 	return m_VideoComIO.Initialize( strCOM, nBaudRate );

  0002f	8b 45 0c	 mov	 eax, DWORD PTR _nBaudRate$[ebp]
  00032	50		 push	 eax
  00033	51		 push	 ecx
  00034	8b cc		 mov	 ecx, esp
  00036	89 65 e8	 mov	 DWORD PTR $T2[ebp], esp
  00039	8d 55 08	 lea	 edx, DWORD PTR _strCOM$[ebp]
  0003c	52		 push	 edx
  0003d	ff 15 00 00 00
	00		 call	 DWORD PTR __imp_??0?$CStringT@DV?$StrTraitMFC_DLL@DV?$ChTraitsCRT@D@ATL@@@@@ATL@@QAE@ABV01@@Z
  00043	89 45 e4	 mov	 DWORD PTR tv86[ebp], eax
  00046	8b 4d ec	 mov	 ecx, DWORD PTR _this$[ebp]
  00049	83 c1 0c	 add	 ecx, 12			; 0000000cH
  0004c	e8 00 00 00 00	 call	 ?Initialize@CVideoComIO@@QAE_NV?$CStringT@DV?$StrTraitMFC_DLL@DV?$ChTraitsCRT@D@ATL@@@@@ATL@@H@Z ; CVideoComIO::Initialize
  00051	88 45 f3	 mov	 BYTE PTR tv67[ebp], al
  00054	8a 45 f3	 mov	 al, BYTE PTR tv67[ebp]
  00057	88 45 f2	 mov	 BYTE PTR $T3[ebp], al
  0005a	c7 45 fc ff ff
	ff ff		 mov	 DWORD PTR __$EHRec$[ebp+8], -1
  00061	8d 4d 08	 lea	 ecx, DWORD PTR _strCOM$[ebp]
  00064	ff 15 00 00 00
	00		 call	 DWORD PTR __imp_??1?$CStringT@DV?$StrTraitMFC_DLL@DV?$ChTraitsCRT@D@ATL@@@@@ATL@@QAE@XZ
  0006a	8a 45 f2	 mov	 al, BYTE PTR $T3[ebp]

; 31   : }

  0006d	8b 4d f4	 mov	 ecx, DWORD PTR __$EHRec$[ebp]
  00070	64 89 0d 00 00
	00 00		 mov	 DWORD PTR fs:0, ecx
  00077	59		 pop	 ecx
  00078	8b e5		 mov	 esp, ebp
  0007a	5d		 pop	 ebp
  0007b	c2 08 00	 ret	 8
_TEXT	ENDS
;	COMDAT text$x
text$x	SEGMENT
__unwindfunclet$?VideoInitialize@CPLC@@QAE_NV?$CStringT@DV?$StrTraitMFC_DLL@DV?$ChTraitsCRT@D@ATL@@@@@ATL@@H@Z$0:
  00000	8d 4d 08	 lea	 ecx, DWORD PTR _strCOM$[ebp]
  00003	ff 25 00 00 00
	00		 jmp	 DWORD PTR __imp_??1?$CStringT@DV?$StrTraitMFC_DLL@DV?$ChTraitsCRT@D@ATL@@@@@ATL@@QAE@XZ
__ehhandler$?VideoInitialize@CPLC@@QAE_NV?$CStringT@DV?$StrTraitMFC_DLL@DV?$ChTraitsCRT@D@ATL@@@@@ATL@@H@Z:
  00009	8b 54 24 08	 mov	 edx, DWORD PTR [esp+8]
  0000d	8d 42 0c	 lea	 eax, DWORD PTR [edx+12]
  00010	8b 4a ec	 mov	 ecx, DWORD PTR [edx-20]
  00013	33 c8		 xor	 ecx, eax
  00015	e8 00 00 00 00	 call	 @__security_check_cookie@4
  0001a	b8 00 00 00 00	 mov	 eax, OFFSET __ehfuncinfo$?VideoInitialize@CPLC@@QAE_NV?$CStringT@DV?$StrTraitMFC_DLL@DV?$ChTraitsCRT@D@ATL@@@@@ATL@@H@Z
  0001f	e9 00 00 00 00	 jmp	 ___CxxFrameHandler3
text$x	ENDS
?VideoInitialize@CPLC@@QAE_NV?$CStringT@DV?$StrTraitMFC_DLL@DV?$ChTraitsCRT@D@ATL@@@@@ATL@@H@Z ENDP ; CPLC::VideoInitialize
; Function compile flags: /Odtp
; File e:\work_wm\hxijy_code\endoscopemfc2012_menu_changepara_youhua_savepic_usb_1114_twothread_svepic_save5\src\endoscopemfc\plc.cpp
;	COMDAT ?ProcessCardInitialize@CPLC@@QAE_NV?$CStringT@DV?$StrTraitMFC_DLL@DV?$ChTraitsCRT@D@ATL@@@@@ATL@@H@Z
_TEXT	SEGMENT
tv86 = -28						; size = 4
$T2 = -24						; size = 4
_this$ = -20						; size = 4
$T3 = -14						; size = 1
tv67 = -13						; size = 1
__$EHRec$ = -12						; size = 12
_strCOM$ = 8						; size = 4
_nBaudRate$ = 12					; size = 4
?ProcessCardInitialize@CPLC@@QAE_NV?$CStringT@DV?$StrTraitMFC_DLL@DV?$ChTraitsCRT@D@ATL@@@@@ATL@@H@Z PROC ; CPLC::ProcessCardInitialize, COMDAT
; _this$ = ecx

; 39   : {

  00000	55		 push	 ebp
  00001	8b ec		 mov	 ebp, esp
  00003	6a ff		 push	 -1
  00005	68 00 00 00 00	 push	 __ehhandler$?ProcessCardInitialize@CPLC@@QAE_NV?$CStringT@DV?$StrTraitMFC_DLL@DV?$ChTraitsCRT@D@ATL@@@@@ATL@@H@Z
  0000a	64 a1 00 00 00
	00		 mov	 eax, DWORD PTR fs:0
  00010	50		 push	 eax
  00011	83 ec 10	 sub	 esp, 16			; 00000010H
  00014	a1 00 00 00 00	 mov	 eax, DWORD PTR ___security_cookie
  00019	33 c5		 xor	 eax, ebp
  0001b	50		 push	 eax
  0001c	8d 45 f4	 lea	 eax, DWORD PTR __$EHRec$[ebp]
  0001f	64 a3 00 00 00
	00		 mov	 DWORD PTR fs:0, eax
  00025	89 4d ec	 mov	 DWORD PTR _this$[ebp], ecx
  00028	c7 45 fc 00 00
	00 00		 mov	 DWORD PTR __$EHRec$[ebp+8], 0

; 40   : 	return m_ProcessCardComIO.Initialize(strCOM,nBaudRate);

  0002f	8b 45 0c	 mov	 eax, DWORD PTR _nBaudRate$[ebp]
  00032	50		 push	 eax
  00033	51		 push	 ecx
  00034	8b cc		 mov	 ecx, esp
  00036	89 65 e8	 mov	 DWORD PTR $T2[ebp], esp
  00039	8d 55 08	 lea	 edx, DWORD PTR _strCOM$[ebp]
  0003c	52		 push	 edx
  0003d	ff 15 00 00 00
	00		 call	 DWORD PTR __imp_??0?$CStringT@DV?$StrTraitMFC_DLL@DV?$ChTraitsCRT@D@ATL@@@@@ATL@@QAE@ABV01@@Z
  00043	89 45 e4	 mov	 DWORD PTR tv86[ebp], eax
  00046	8b 4d ec	 mov	 ecx, DWORD PTR _this$[ebp]
  00049	81 c1 84 00 00
	00		 add	 ecx, 132		; 00000084H
  0004f	e8 00 00 00 00	 call	 ?Initialize@CProcessCard@@QAE_NV?$CStringT@DV?$StrTraitMFC_DLL@DV?$ChTraitsCRT@D@ATL@@@@@ATL@@H@Z ; CProcessCard::Initialize
  00054	88 45 f3	 mov	 BYTE PTR tv67[ebp], al
  00057	8a 45 f3	 mov	 al, BYTE PTR tv67[ebp]
  0005a	88 45 f2	 mov	 BYTE PTR $T3[ebp], al
  0005d	c7 45 fc ff ff
	ff ff		 mov	 DWORD PTR __$EHRec$[ebp+8], -1
  00064	8d 4d 08	 lea	 ecx, DWORD PTR _strCOM$[ebp]
  00067	ff 15 00 00 00
	00		 call	 DWORD PTR __imp_??1?$CStringT@DV?$StrTraitMFC_DLL@DV?$ChTraitsCRT@D@ATL@@@@@ATL@@QAE@XZ
  0006d	8a 45 f2	 mov	 al, BYTE PTR $T3[ebp]

; 41   : }

  00070	8b 4d f4	 mov	 ecx, DWORD PTR __$EHRec$[ebp]
  00073	64 89 0d 00 00
	00 00		 mov	 DWORD PTR fs:0, ecx
  0007a	59		 pop	 ecx
  0007b	8b e5		 mov	 esp, ebp
  0007d	5d		 pop	 ebp
  0007e	c2 08 00	 ret	 8
_TEXT	ENDS
;	COMDAT text$x
text$x	SEGMENT
__unwindfunclet$?ProcessCardInitialize@CPLC@@QAE_NV?$CStringT@DV?$StrTraitMFC_DLL@DV?$ChTraitsCRT@D@ATL@@@@@ATL@@H@Z$0:
  00000	8d 4d 08	 lea	 ecx, DWORD PTR _strCOM$[ebp]
  00003	ff 25 00 00 00
	00		 jmp	 DWORD PTR __imp_??1?$CStringT@DV?$StrTraitMFC_DLL@DV?$ChTraitsCRT@D@ATL@@@@@ATL@@QAE@XZ
__ehhandler$?ProcessCardInitialize@CPLC@@QAE_NV?$CStringT@DV?$StrTraitMFC_DLL@DV?$ChTraitsCRT@D@ATL@@@@@ATL@@H@Z:
  00009	8b 54 24 08	 mov	 edx, DWORD PTR [esp+8]
  0000d	8d 42 0c	 lea	 eax, DWORD PTR [edx+12]
  00010	8b 4a ec	 mov	 ecx, DWORD PTR [edx-20]
  00013	33 c8		 xor	 ecx, eax
  00015	e8 00 00 00 00	 call	 @__security_check_cookie@4
  0001a	b8 00 00 00 00	 mov	 eax, OFFSET __ehfuncinfo$?ProcessCardInitialize@CPLC@@QAE_NV?$CStringT@DV?$StrTraitMFC_DLL@DV?$ChTraitsCRT@D@ATL@@@@@ATL@@H@Z
  0001f	e9 00 00 00 00	 jmp	 ___CxxFrameHandler3
text$x	ENDS
?ProcessCardInitialize@CPLC@@QAE_NV?$CStringT@DV?$StrTraitMFC_DLL@DV?$ChTraitsCRT@D@ATL@@@@@ATL@@H@Z ENDP ; CPLC::ProcessCardInitialize
; Function compile flags: /Odtp
; File e:\work_wm\hxijy_code\endoscopemfc2012_menu_changepara_youhua_savepic_usb_1114_twothread_svepic_save5\src\endoscopemfc\plc.cpp
;	COMDAT ??0CPLC@@QAE@XZ
_TEXT	SEGMENT
_this$ = -16						; size = 4
__$EHRec$ = -12						; size = 12
??0CPLC@@QAE@XZ PROC					; CPLC::CPLC, COMDAT
; _this$ = ecx

; 8    : {

  00000	55		 push	 ebp
  00001	8b ec		 mov	 ebp, esp
  00003	6a ff		 push	 -1
  00005	68 00 00 00 00	 push	 __ehhandler$??0CPLC@@QAE@XZ
  0000a	64 a1 00 00 00
	00		 mov	 eax, DWORD PTR fs:0
  00010	50		 push	 eax
  00011	51		 push	 ecx
  00012	a1 00 00 00 00	 mov	 eax, DWORD PTR ___security_cookie
  00017	33 c5		 xor	 eax, ebp
  00019	50		 push	 eax
  0001a	8d 45 f4	 lea	 eax, DWORD PTR __$EHRec$[ebp]
  0001d	64 a3 00 00 00
	00		 mov	 DWORD PTR fs:0, eax
  00023	89 4d f0	 mov	 DWORD PTR _this$[ebp], ecx
  00026	8b 4d f0	 mov	 ecx, DWORD PTR _this$[ebp]
  00029	e8 00 00 00 00	 call	 ??0CComDataHandler@@QAE@XZ
  0002e	8b 45 f0	 mov	 eax, DWORD PTR _this$[ebp]
  00031	c7 00 00 00 00
	00		 mov	 DWORD PTR [eax], OFFSET ??_7CPLC@@6B@
  00037	8b 4d f0	 mov	 ecx, DWORD PTR _this$[ebp]
  0003a	83 c1 08	 add	 ecx, 8
  0003d	ff 15 00 00 00
	00		 call	 DWORD PTR __imp_??0?$CStringT@DV?$StrTraitMFC_DLL@DV?$ChTraitsCRT@D@ATL@@@@@ATL@@QAE@XZ
  00043	c7 45 fc 00 00
	00 00		 mov	 DWORD PTR __$EHRec$[ebp+8], 0
  0004a	8b 4d f0	 mov	 ecx, DWORD PTR _this$[ebp]
  0004d	83 c1 0c	 add	 ecx, 12			; 0000000cH
  00050	e8 00 00 00 00	 call	 ??0CVideoComIO@@QAE@XZ	; CVideoComIO::CVideoComIO
  00055	c6 45 fc 01	 mov	 BYTE PTR __$EHRec$[ebp+8], 1
  00059	8b 4d f0	 mov	 ecx, DWORD PTR _this$[ebp]
  0005c	83 c1 48	 add	 ecx, 72			; 00000048H
  0005f	e8 00 00 00 00	 call	 ??0CLightComIO@@QAE@XZ	; CLightComIO::CLightComIO
  00064	c6 45 fc 02	 mov	 BYTE PTR __$EHRec$[ebp+8], 2
  00068	8b 4d f0	 mov	 ecx, DWORD PTR _this$[ebp]
  0006b	81 c1 84 00 00
	00		 add	 ecx, 132		; 00000084H
  00071	e8 00 00 00 00	 call	 ??0CProcessCard@@QAE@XZ	; CProcessCard::CProcessCard
  00076	c6 45 fc 03	 mov	 BYTE PTR __$EHRec$[ebp+8], 3

; 9    : 	m_VideoComIO.SetDataHandler(this);

  0007a	8b 4d f0	 mov	 ecx, DWORD PTR _this$[ebp]
  0007d	51		 push	 ecx
  0007e	8b 4d f0	 mov	 ecx, DWORD PTR _this$[ebp]
  00081	83 c1 0c	 add	 ecx, 12			; 0000000cH
  00084	e8 00 00 00 00	 call	 ?SetDataHandler@CVideoComIO@@QAEXPAVCComDataHandler@@@Z ; CVideoComIO::SetDataHandler

; 10   : 	m_LightComIO.SetDataHandler(this);

  00089	8b 55 f0	 mov	 edx, DWORD PTR _this$[ebp]
  0008c	52		 push	 edx
  0008d	8b 4d f0	 mov	 ecx, DWORD PTR _this$[ebp]
  00090	83 c1 48	 add	 ecx, 72			; 00000048H
  00093	e8 00 00 00 00	 call	 ?SetDataHandler@CLightComIO@@QAEXPAVCComDataHandler@@@Z ; CLightComIO::SetDataHandler

; 11   : 	m_bRegister = false;

  00098	8b 45 f0	 mov	 eax, DWORD PTR _this$[ebp]
  0009b	c6 40 04 00	 mov	 BYTE PTR [eax+4], 0

; 12   : 
; 13   : 	m_strSemState = _T("");

  0009f	68 00 00 00 00	 push	 OFFSET $SG4294928751
  000a4	8b 4d f0	 mov	 ecx, DWORD PTR _this$[ebp]
  000a7	83 c1 08	 add	 ecx, 8
  000aa	ff 15 00 00 00
	00		 call	 DWORD PTR __imp_??4?$CStringT@DV?$StrTraitMFC_DLL@DV?$ChTraitsCRT@D@ATL@@@@@ATL@@QAEAAV01@PBD@Z

; 14   : }

  000b0	c7 45 fc ff ff
	ff ff		 mov	 DWORD PTR __$EHRec$[ebp+8], -1
  000b7	8b 45 f0	 mov	 eax, DWORD PTR _this$[ebp]
  000ba	8b 4d f4	 mov	 ecx, DWORD PTR __$EHRec$[ebp]
  000bd	64 89 0d 00 00
	00 00		 mov	 DWORD PTR fs:0, ecx
  000c4	59		 pop	 ecx
  000c5	8b e5		 mov	 esp, ebp
  000c7	5d		 pop	 ebp
  000c8	c3		 ret	 0
_TEXT	ENDS
;	COMDAT text$x
text$x	SEGMENT
__unwindfunclet$??0CPLC@@QAE@XZ$0:
  00000	8b 4d f0	 mov	 ecx, DWORD PTR _this$[ebp]
  00003	83 c1 08	 add	 ecx, 8
  00006	ff 25 00 00 00
	00		 jmp	 DWORD PTR __imp_??1?$CStringT@DV?$StrTraitMFC_DLL@DV?$ChTraitsCRT@D@ATL@@@@@ATL@@QAE@XZ
__unwindfunclet$??0CPLC@@QAE@XZ$1:
  0000c	8b 4d f0	 mov	 ecx, DWORD PTR _this$[ebp]
  0000f	83 c1 0c	 add	 ecx, 12			; 0000000cH
  00012	e9 00 00 00 00	 jmp	 ??1CVideoComIO@@UAE@XZ	; CVideoComIO::~CVideoComIO
__unwindfunclet$??0CPLC@@QAE@XZ$2:
  00017	8b 4d f0	 mov	 ecx, DWORD PTR _this$[ebp]
  0001a	83 c1 48	 add	 ecx, 72			; 00000048H
  0001d	e9 00 00 00 00	 jmp	 ??1CLightComIO@@UAE@XZ	; CLightComIO::~CLightComIO
__unwindfunclet$??0CPLC@@QAE@XZ$3:
  00022	8b 4d f0	 mov	 ecx, DWORD PTR _this$[ebp]
  00025	81 c1 84 00 00
	00		 add	 ecx, 132		; 00000084H
  0002b	e9 00 00 00 00	 jmp	 ??1CProcessCard@@QAE@XZ	; CProcessCard::~CProcessCard
__ehhandler$??0CPLC@@QAE@XZ:
  00030	8b 54 24 08	 mov	 edx, DWORD PTR [esp+8]
  00034	8d 42 0c	 lea	 eax, DWORD PTR [edx+12]
  00037	8b 4a f8	 mov	 ecx, DWORD PTR [edx-8]
  0003a	33 c8		 xor	 ecx, eax
  0003c	e8 00 00 00 00	 call	 @__security_check_cookie@4
  00041	b8 00 00 00 00	 mov	 eax, OFFSET __ehfuncinfo$??0CPLC@@QAE@XZ
  00046	e9 00 00 00 00	 jmp	 ___CxxFrameHandler3
text$x	ENDS
??0CPLC@@QAE@XZ ENDP					; CPLC::CPLC
; Function compile flags: /Odtp
; File e:\work_wm\hxijy_code\endoscopemfc2012_menu_changepara_youhua_savepic_usb_1114_twothread_svepic_save5\src\endoscopemfc\plc.cpp
;	COMDAT ?GetShowDlgPointer@CPLC@@QAEXPAVCWnd@@@Z
_TEXT	SEGMENT
_this$ = -4						; size = 4
_pShowDlg$ = 8						; size = 4
?GetShowDlgPointer@CPLC@@QAEXPAVCWnd@@@Z PROC		; CPLC::GetShowDlgPointer, COMDAT
; _this$ = ecx

; 22   : {

  00000	55		 push	 ebp
  00001	8b ec		 mov	 ebp, esp
  00003	51		 push	 ecx
  00004	89 4d fc	 mov	 DWORD PTR _this$[ebp], ecx

; 23   : 	ASSERT( NULL != pShowDlg );
; 24   : 	g_pShowDlg = pShowDlg;

  00007	8b 45 08	 mov	 eax, DWORD PTR _pShowDlg$[ebp]
  0000a	a3 00 00 00 00	 mov	 DWORD PTR ?g_pShowDlg@@3PAVCWnd@@A, eax ; g_pShowDlg

; 25   : }

  0000f	8b e5		 mov	 esp, ebp
  00011	5d		 pop	 ebp
  00012	c2 04 00	 ret	 4
?GetShowDlgPointer@CPLC@@QAEXPAVCWnd@@@Z ENDP		; CPLC::GetShowDlgPointer
_TEXT	ENDS
; Function compile flags: /Odtp
; File e:\work_wm\hxijy_code\endoscopemfc2012_menu_changepara_youhua_savepic_usb_1114_twothread_svepic_save5\src\endoscopemfc\videocomio.h
;	COMDAT ?SetDataHandler@CVideoComIO@@QAEXPAVCComDataHandler@@@Z
_TEXT	SEGMENT
_this$ = -4						; size = 4
_p$ = 8							; size = 4
?SetDataHandler@CVideoComIO@@QAEXPAVCComDataHandler@@@Z PROC ; CVideoComIO::SetDataHandler, COMDAT
; _this$ = ecx

; 43   : 	{

  00000	55		 push	 ebp
  00001	8b ec		 mov	 ebp, esp
  00003	51		 push	 ecx
  00004	89 4d fc	 mov	 DWORD PTR _this$[ebp], ecx

; 44   : 		m_pDataHandler = p;

  00007	8b 45 fc	 mov	 eax, DWORD PTR _this$[ebp]
  0000a	8b 4d 08	 mov	 ecx, DWORD PTR _p$[ebp]
  0000d	89 48 38	 mov	 DWORD PTR [eax+56], ecx

; 45   : 	}

  00010	8b e5		 mov	 esp, ebp
  00012	5d		 pop	 ebp
  00013	c2 04 00	 ret	 4
?SetDataHandler@CVideoComIO@@QAEXPAVCComDataHandler@@@Z ENDP ; CVideoComIO::SetDataHandler
_TEXT	ENDS
; Function compile flags: /Odtp
; File e:\work_wm\hxijy_code\endoscopemfc2012_menu_changepara_youhua_savepic_usb_1114_twothread_svepic_save5\src\endoscopemfc\lightcomio.h
;	COMDAT ?SetDataHandler@CLightComIO@@QAEXPAVCComDataHandler@@@Z
_TEXT	SEGMENT
_this$ = -4						; size = 4
_p$ = 8							; size = 4
?SetDataHandler@CLightComIO@@QAEXPAVCComDataHandler@@@Z PROC ; CLightComIO::SetDataHandler, COMDAT
; _this$ = ecx

; 42   : 	{

  00000	55		 push	 ebp
  00001	8b ec		 mov	 ebp, esp
  00003	51		 push	 ecx
  00004	89 4d fc	 mov	 DWORD PTR _this$[ebp], ecx

; 43   : 		m_pDataHandler = p;

  00007	8b 45 fc	 mov	 eax, DWORD PTR _this$[ebp]
  0000a	8b 4d 08	 mov	 ecx, DWORD PTR _p$[ebp]
  0000d	89 48 38	 mov	 DWORD PTR [eax+56], ecx

; 44   : 	}

  00010	8b e5		 mov	 esp, ebp
  00012	5d		 pop	 ebp
  00013	c2 04 00	 ret	 4
?SetDataHandler@CLightComIO@@QAEXPAVCComDataHandler@@@Z ENDP ; CLightComIO::SetDataHandler
_TEXT	ENDS
; Function compile flags: /Odtp
;	COMDAT ??_GCPLC@@UAEPAXI@Z
_TEXT	SEGMENT
_this$ = -4						; size = 4
___flags$ = 8						; size = 4
??_GCPLC@@UAEPAXI@Z PROC				; CPLC::`scalar deleting destructor', COMDAT
; _this$ = ecx
  00000	55		 push	 ebp
  00001	8b ec		 mov	 ebp, esp
  00003	51		 push	 ecx
  00004	89 4d fc	 mov	 DWORD PTR _this$[ebp], ecx
  00007	8b 4d fc	 mov	 ecx, DWORD PTR _this$[ebp]
  0000a	e8 00 00 00 00	 call	 ??1CPLC@@UAE@XZ		; CPLC::~CPLC
  0000f	8b 45 08	 mov	 eax, DWORD PTR ___flags$[ebp]
  00012	83 e0 01	 and	 eax, 1
  00015	74 0d		 je	 SHORT $LN1@scalar
  00017	8b 4d fc	 mov	 ecx, DWORD PTR _this$[ebp]
  0001a	51		 push	 ecx
  0001b	ff 15 00 00 00
	00		 call	 DWORD PTR __imp_??3@YAXPAX@Z
  00021	83 c4 04	 add	 esp, 4
$LN1@scalar:
  00024	8b 45 fc	 mov	 eax, DWORD PTR _this$[ebp]
  00027	8b e5		 mov	 esp, ebp
  00029	5d		 pop	 ebp
  0002a	c2 04 00	 ret	 4
??_GCPLC@@UAEPAXI@Z ENDP				; CPLC::`scalar deleting destructor'
_TEXT	ENDS
; Function compile flags: /Odtp
;	COMDAT ??0CComDataHandler@@QAE@XZ
_TEXT	SEGMENT
_this$ = -4						; size = 4
??0CComDataHandler@@QAE@XZ PROC				; CComDataHandler::CComDataHandler, COMDAT
; _this$ = ecx
  00000	55		 push	 ebp
  00001	8b ec		 mov	 ebp, esp
  00003	51		 push	 ecx
  00004	89 4d fc	 mov	 DWORD PTR _this$[ebp], ecx
  00007	8b 45 fc	 mov	 eax, DWORD PTR _this$[ebp]
  0000a	c7 00 00 00 00
	00		 mov	 DWORD PTR [eax], OFFSET ??_7CComDataHandler@@6B@
  00010	8b 45 fc	 mov	 eax, DWORD PTR _this$[ebp]
  00013	8b e5		 mov	 esp, ebp
  00015	5d		 pop	 ebp
  00016	c3		 ret	 0
??0CComDataHandler@@QAE@XZ ENDP				; CComDataHandler::CComDataHandler
_TEXT	ENDS
; Function compile flags: /Odtp
; File e:\work_wm\hxijy_code\endoscopemfc2012_menu_changepara_youhua_savepic_usb_1114_twothread_svepic_save5\src\endoscopemfc\plc.cpp
;	COMDAT ??1CPLC@@UAE@XZ
_TEXT	SEGMENT
_this$ = -16						; size = 4
__$EHRec$ = -12						; size = 12
??1CPLC@@UAE@XZ PROC					; CPLC::~CPLC, COMDAT
; _this$ = ecx

; 18   : {

  00000	55		 push	 ebp
  00001	8b ec		 mov	 ebp, esp
  00003	6a ff		 push	 -1
  00005	68 00 00 00 00	 push	 __ehhandler$??1CPLC@@UAE@XZ
  0000a	64 a1 00 00 00
	00		 mov	 eax, DWORD PTR fs:0
  00010	50		 push	 eax
  00011	51		 push	 ecx
  00012	a1 00 00 00 00	 mov	 eax, DWORD PTR ___security_cookie
  00017	33 c5		 xor	 eax, ebp
  00019	50		 push	 eax
  0001a	8d 45 f4	 lea	 eax, DWORD PTR __$EHRec$[ebp]
  0001d	64 a3 00 00 00
	00		 mov	 DWORD PTR fs:0, eax
  00023	89 4d f0	 mov	 DWORD PTR _this$[ebp], ecx
  00026	8b 45 f0	 mov	 eax, DWORD PTR _this$[ebp]
  00029	c7 00 00 00 00
	00		 mov	 DWORD PTR [eax], OFFSET ??_7CPLC@@6B@
  0002f	c7 45 fc 02 00
	00 00		 mov	 DWORD PTR __$EHRec$[ebp+8], 2

; 19   : }

  00036	8b 4d f0	 mov	 ecx, DWORD PTR _this$[ebp]
  00039	81 c1 84 00 00
	00		 add	 ecx, 132		; 00000084H
  0003f	e8 00 00 00 00	 call	 ??1CProcessCard@@QAE@XZ	; CProcessCard::~CProcessCard
  00044	c6 45 fc 01	 mov	 BYTE PTR __$EHRec$[ebp+8], 1
  00048	8b 4d f0	 mov	 ecx, DWORD PTR _this$[ebp]
  0004b	83 c1 48	 add	 ecx, 72			; 00000048H
  0004e	e8 00 00 00 00	 call	 ??1CLightComIO@@UAE@XZ	; CLightComIO::~CLightComIO
  00053	c6 45 fc 00	 mov	 BYTE PTR __$EHRec$[ebp+8], 0
  00057	8b 4d f0	 mov	 ecx, DWORD PTR _this$[ebp]
  0005a	83 c1 0c	 add	 ecx, 12			; 0000000cH
  0005d	e8 00 00 00 00	 call	 ??1CVideoComIO@@UAE@XZ	; CVideoComIO::~CVideoComIO
  00062	c7 45 fc ff ff
	ff ff		 mov	 DWORD PTR __$EHRec$[ebp+8], -1
  00069	8b 4d f0	 mov	 ecx, DWORD PTR _this$[ebp]
  0006c	83 c1 08	 add	 ecx, 8
  0006f	ff 15 00 00 00
	00		 call	 DWORD PTR __imp_??1?$CStringT@DV?$StrTraitMFC_DLL@DV?$ChTraitsCRT@D@ATL@@@@@ATL@@QAE@XZ
  00075	8b 4d f4	 mov	 ecx, DWORD PTR __$EHRec$[ebp]
  00078	64 89 0d 00 00
	00 00		 mov	 DWORD PTR fs:0, ecx
  0007f	59		 pop	 ecx
  00080	8b e5		 mov	 esp, ebp
  00082	5d		 pop	 ebp
  00083	c3		 ret	 0
_TEXT	ENDS
;	COMDAT text$x
text$x	SEGMENT
__unwindfunclet$??1CPLC@@UAE@XZ$0:
  00000	8b 4d f0	 mov	 ecx, DWORD PTR _this$[ebp]
  00003	83 c1 08	 add	 ecx, 8
  00006	ff 25 00 00 00
	00		 jmp	 DWORD PTR __imp_??1?$CStringT@DV?$StrTraitMFC_DLL@DV?$ChTraitsCRT@D@ATL@@@@@ATL@@QAE@XZ
__unwindfunclet$??1CPLC@@UAE@XZ$1:
  0000c	8b 4d f0	 mov	 ecx, DWORD PTR _this$[ebp]
  0000f	83 c1 0c	 add	 ecx, 12			; 0000000cH
  00012	e9 00 00 00 00	 jmp	 ??1CVideoComIO@@UAE@XZ	; CVideoComIO::~CVideoComIO
__unwindfunclet$??1CPLC@@UAE@XZ$2:
  00017	8b 4d f0	 mov	 ecx, DWORD PTR _this$[ebp]
  0001a	83 c1 48	 add	 ecx, 72			; 00000048H
  0001d	e9 00 00 00 00	 jmp	 ??1CLightComIO@@UAE@XZ	; CLightComIO::~CLightComIO
__ehhandler$??1CPLC@@UAE@XZ:
  00022	8b 54 24 08	 mov	 edx, DWORD PTR [esp+8]
  00026	8d 42 0c	 lea	 eax, DWORD PTR [edx+12]
  00029	8b 4a f8	 mov	 ecx, DWORD PTR [edx-8]
  0002c	33 c8		 xor	 ecx, eax
  0002e	e8 00 00 00 00	 call	 @__security_check_cookie@4
  00033	b8 00 00 00 00	 mov	 eax, OFFSET __ehfuncinfo$??1CPLC@@UAE@XZ
  00038	e9 00 00 00 00	 jmp	 ___CxxFrameHandler3
text$x	ENDS
??1CPLC@@UAE@XZ ENDP					; CPLC::~CPLC
; Function compile flags: /Odtp
; File e:\work_wm\hxijy_code\endoscopemfc2012_menu_changepara_youhua_savepic_usb_1114_twothread_svepic_save5\src\endoscopemfc\plc.cpp
;	COMDAT ?ProcessData@CPLC@@UAEXPAEH@Z
_TEXT	SEGMENT
_this$ = -4						; size = 4
_pBuf$ = 8						; size = 4
_size$ = 12						; size = 4
?ProcessData@CPLC@@UAEXPAEH@Z PROC			; CPLC::ProcessData, COMDAT
; _this$ = ecx

; 44   : {

  00000	55		 push	 ebp
  00001	8b ec		 mov	 ebp, esp
  00003	51		 push	 ecx
  00004	89 4d fc	 mov	 DWORD PTR _this$[ebp], ecx

; 45   : 	if ( g_pShowDlg != NULL )

  00007	83 3d 00 00 00
	00 00		 cmp	 DWORD PTR ?g_pShowDlg@@3PAVCWnd@@A, 0 ; g_pShowDlg
  0000e	74 18		 je	 SHORT $LN2@ProcessDat

; 46   : 	{
; 47   : 		g_pShowDlg->SendMessage( WM_SERIALPORT_MSG, (WPARAM)pBuf, size );

  00010	8b 45 0c	 mov	 eax, DWORD PTR _size$[ebp]
  00013	50		 push	 eax
  00014	8b 4d 08	 mov	 ecx, DWORD PTR _pBuf$[ebp]
  00017	51		 push	 ecx
  00018	68 64 04 00 00	 push	 1124			; 00000464H
  0001d	8b 0d 00 00 00
	00		 mov	 ecx, DWORD PTR ?g_pShowDlg@@3PAVCWnd@@A ; g_pShowDlg
  00023	e8 00 00 00 00	 call	 ?SendMessageA@CWnd@@QBEJIIJ@Z ; CWnd::SendMessageA
$LN2@ProcessDat:

; 48   : 	}
; 49   : }

  00028	8b e5		 mov	 esp, ebp
  0002a	5d		 pop	 ebp
  0002b	c2 08 00	 ret	 8
?ProcessData@CPLC@@UAEXPAEH@Z ENDP			; CPLC::ProcessData
_TEXT	ENDS
END
